 Coursework4

 Timestamp is 5ee1fe98 (Thu Jun 11 10:51:20 2020)

 Preferred load address is 00400000

 Start         Length     Name                   Class
 0001:00000000 000082d0H .text$di                CODE
 0001:000082d0 0004e150H .text$mn                CODE
 0001:00056420 00005900H .text$x                 CODE
 0001:0005bd20 00001012H .text$yd                CODE
 0002:00000000 00000104H .CRT$XCA                DATA
 0002:00000104 00000104H .CRT$XCAA               DATA
 0002:00000208 00000104H .CRT$XCL                DATA
 0002:0000030c 00000104H .CRT$XCZ                DATA
 0002:00000410 00000104H .CRT$XIA                DATA
 0002:00000514 00000104H .CRT$XIAA               DATA
 0002:00000618 00000104H .CRT$XIAC               DATA
 0002:0000071c 00000104H .CRT$XIZ                DATA
 0002:00000820 00000104H .CRT$XPA                DATA
 0002:00000924 00000104H .CRT$XPZ                DATA
 0002:00000a28 00000104H .CRT$XTA                DATA
 0002:00000b2c 00000104H .CRT$XTZ                DATA
 0002:00000c30 000127d0H .rdata                  DATA
 0002:00013400 00002a9cH .rdata$r                DATA
 0002:00015e9c 000005f8H .rdata$sxdata           DATA
 0002:00016494 000001a0H .rdata$zzzdbg           DATA
 0002:00016634 00000104H .rtc$IAA                DATA
 0002:00016738 00000104H .rtc$IZZ                DATA
 0002:0001683c 00000104H .rtc$TAA                DATA
 0002:00016940 00000108H .rtc$TZZ                DATA
 0002:00016a48 00004550H .xdata$x                DATA
 0002:0001af98 00000000H .edata                  DATA
 0003:00000000 00000148H .data                   DATA
 0003:00000148 00001788H .data$r                 DATA
 0003:000018d0 00000458H .bss                    DATA
 0004:00000000 00000518H .idata$5                DATA
 0004:00000518 0000008cH .idata$2                DATA
 0004:000005a4 00000014H .idata$3                DATA
 0004:000005b8 00000518H .idata$4                DATA
 0004:00000ad0 00001e12H .idata$6                DATA
 0005:00000000 00000109H .00cfg                  DATA
 0006:00000000 00000170H .rsrc$01                DATA
 0006:00000170 000002ccH .rsrc$02                DATA

  Address         Publics by Value              Rva+Base       Lib:Object

 0000:00000000       ___hybrid_auxiliary_iat    00000000     <absolute>
 0000:00000000       ___hybrid_code_map_count   00000000     <absolute>
 0000:00000000       ___guard_fids_table        00000000     <absolute>
 0000:00000000       ___guard_iat_count         00000000     <absolute>
 0000:00000000       ___guard_iat_table         00000000     <absolute>
 0000:00000000       ___guard_longjmp_table     00000000     <absolute>
 0000:00000000       ___dynamic_value_reloc_table 00000000     <absolute>
 0000:00000000       ___guard_eh_cont_count     00000000     <absolute>
 0000:00000000       ___enclave_config          00000000     <absolute>
 0000:00000000       ___hybrid_code_map         00000000     <absolute>
 0000:00000000       ___volatile_metadata       00000000     <absolute>
 0000:00000000       ___AbsoluteZero            00000000     <absolute>
 0000:00000000       ___guard_fids_count        00000000     <absolute>
 0000:00000000       ___guard_eh_cont_table     00000000     <absolute>
 0000:00000000       ___guard_longjmp_count     00000000     <absolute>
 0000:00000100       ___guard_flags             00000100     <absolute>
 0000:00000109       ___safe_se_handler_count   00000109     <absolute>
 0000:00000000       ___ImageBase               00400000     <linker-defined>
 0001:000082d0       ??0LoseGameState@@QAE@PAVBaseEngine@@@Z 004092d0 f   LoseGameState.obj
 0001:00008390       ??1LoseGameState@@UAE@XZ   00409390 f   LoseGameState.obj
 0001:000083c0       ?initialiseObjects@LoseGameState@@UAEHXZ 004093c0 f   LoseGameState.obj
 0001:000085f0       ?setupBackgroundBuffer@LoseGameState@@UAEXXZ 004095f0 f   LoseGameState.obj
 0001:00008620       ?keyDown@LoseGameState@@UAEXH@Z 00409620 f   LoseGameState.obj
 0001:00008690       ?updateAllObjects@LoseGameState@@UAEXH@Z 00409690 f   LoseGameState.obj
 0001:00008820       ??$?0$$V@?$_Compressed_pair@V?$allocator@D@std@@V?$_String_val@U?$_Simple_types@D@std@@@2@$00@std@@QAE@U_Zero_then_variadic_args_t@1@@Z 00409820 f i LoseGameState.obj
 0001:00008850       ??$?0$$V@?$_Compressed_pair@V?$allocator@U?$_Tree_node@U?$pair@$$CBV?$basic_string@DU?$char_traits@D@std@@V?$allocator@D@2@@std@@V?$shared_ptr@VRawImageData@@@2@@std@@PAX@std@@@std@@V?$_Tree_val@U?$_Tree_simple_types@U?$pair@$$CBV?$basic_string@DU?$char_traits@D@std@@V?$allocator@D@2@@std@@V?$shared_ptr@VRawImageData@@@2@@std@@@std@@@2@$00@std@@QAE@U_Zero_then_variadic_args_t@1@@Z 00409850 f i LoseGameState.obj
 0001:00008880       ??$?0$$V@?$_Compressed_pair@V?$allocator@U?$_Tree_node@U?$pair@$$CBV?$basic_string@DU?$char_traits@D@std@@V?$allocator@D@2@@std@@V?$weak_ptr@VRawImageData@@@2@@std@@PAX@std@@@std@@V?$_Tree_val@U?$_Tree_simple_types@U?$pair@$$CBV?$basic_string@DU?$char_traits@D@std@@V?$allocator@D@2@@std@@V?$weak_ptr@VRawImageData@@@2@@std@@@std@@@2@$00@std@@QAE@U_Zero_then_variadic_args_t@1@@Z 00409880 f i LoseGameState.obj
 0001:000088b0       ??$?0AAPAU?$_Tree_node@U?$pair@$$CBV?$basic_string@DU?$char_traits@D@std@@V?$allocator@D@2@@std@@V?$shared_ptr@VRawImageData@@@2@@std@@PAX@std@@_N$0A@@?$pair@PAU?$_Tree_node@U?$pair@$$CBV?$basic_string@DU?$char_traits@D@std@@V?$allocator@D@2@@std@@V?$shared_ptr@VRawImageData@@@2@@std@@PAX@std@@_N@std@@QAE@AAPAU?$_Tree_node@U?$pair@$$CBV?$basic_string@DU?$char_traits@D@std@@V?$allocator@D@2@@std@@V?$shared_ptr@VRawImageData@@@2@@std@@PAX@1@$$QA_N@Z 004098b0 f i LoseGameState.obj
 0001:00008900       ??$?0AAPAU?$_Tree_node@U?$pair@$$CBV?$basic_string@DU?$char_traits@D@std@@V?$allocator@D@2@@std@@V?$weak_ptr@VRawImageData@@@2@@std@@PAX@std@@_N$0A@@?$pair@PAU?$_Tree_node@U?$pair@$$CBV?$basic_string@DU?$char_traits@D@std@@V?$allocator@D@2@@std@@V?$weak_ptr@VRawImageData@@@2@@std@@PAX@std@@_N@std@@QAE@AAPAU?$_Tree_node@U?$pair@$$CBV?$basic_string@DU?$char_traits@D@std@@V?$allocator@D@2@@std@@V?$weak_ptr@VRawImageData@@@2@@std@@PAX@1@$$QA_N@Z 00409900 f i LoseGameState.obj
 0001:00008950       ??$?0AAV?$basic_string@DU?$char_traits@D@std@@V?$allocator@D@2@@std@@AAV?$shared_ptr@VRawImageData@@@1@$0A@@?$pair@V?$basic_string@DU?$char_traits@D@std@@V?$allocator@D@2@@std@@V?$shared_ptr@VRawImageData@@@2@@std@@QAE@AAV?$basic_string@DU?$char_traits@D@std@@V?$allocator@D@2@@1@AAV?$shared_ptr@VRawImageData@@@1@@Z 00409950 f i LoseGameState.obj
 0001:000089a0       ??$?0AAV?$basic_string@DU?$char_traits@D@std@@V?$allocator@D@2@@std@@AAV?$weak_ptr@VRawImageData@@@1@$0A@@?$pair@V?$basic_string@DU?$char_traits@D@std@@V?$allocator@D@2@@std@@V?$weak_ptr@VRawImageData@@@2@@std@@QAE@AAV?$basic_string@DU?$char_traits@D@std@@V?$allocator@D@2@@1@AAV?$weak_ptr@VRawImageData@@@1@@Z 004099a0 f i LoseGameState.obj
 0001:000089f0       ??$?0ABU?$less@V?$basic_string@DU?$char_traits@D@std@@V?$allocator@D@2@@std@@@std@@U_Zero_then_variadic_args_t@1@@?$_Compressed_pair@U?$less@V?$basic_string@DU?$char_traits@D@std@@V?$allocator@D@2@@std@@@std@@V?$_Compressed_pair@V?$allocator@U?$_Tree_node@U?$pair@$$CBV?$basic_string@DU?$char_traits@D@std@@V?$allocator@D@2@@std@@V?$shared_ptr@VRawImageData@@@2@@std@@PAX@std@@@std@@V?$_Tree_val@U?$_Tree_simple_types@U?$pair@$$CBV?$basic_string@DU?$char_traits@D@std@@V?$allocator@D@2@@std@@V?$shared_ptr@VRawImageData@@@2@@std@@@std@@@2@$00@2@$00@std@@QAE@U_One_then_variadic_args_t@1@ABU?$less@V?$basic_string@DU?$char_traits@D@std@@V?$allocator@D@2@@std@@@1@$$QAU_Zero_then_variadic_args_t@1@@Z 004099f0 f i LoseGameState.obj
 0001:00008a40       ??$?0ABU?$less@V?$basic_string@DU?$char_traits@D@std@@V?$allocator@D@2@@std@@@std@@U_Zero_then_variadic_args_t@1@@?$_Compressed_pair@U?$less@V?$basic_string@DU?$char_traits@D@std@@V?$allocator@D@2@@std@@@std@@V?$_Compressed_pair@V?$allocator@U?$_Tree_node@U?$pair@$$CBV?$basic_string@DU?$char_traits@D@std@@V?$allocator@D@2@@std@@V?$weak_ptr@VRawImageData@@@2@@std@@PAX@std@@@std@@V?$_Tree_val@U?$_Tree_simple_types@U?$pair@$$CBV?$basic_string@DU?$char_traits@D@std@@V?$allocator@D@2@@std@@V?$weak_ptr@VRawImageData@@@2@@std@@@std@@@2@$00@2@$00@std@@QAE@U_One_then_variadic_args_t@1@ABU?$less@V?$basic_string@DU?$char_traits@D@std@@V?$allocator@D@2@@std@@@1@$$QAU_Zero_then_variadic_args_t@1@@Z 00409a40 f i LoseGameState.obj
 0001:00008a90       ??$?0D@?$allocator@U_Container_proxy@std@@@std@@QAE@ABV?$allocator@D@1@@Z 00409a90 f i LoseGameState.obj
 0001:00008ab0       ??$?0PAU?$_Tree_node@U?$pair@$$CBV?$basic_string@DU?$char_traits@D@std@@V?$allocator@D@2@@std@@V?$shared_ptr@VRawImageData@@@2@@std@@PAX@std@@_N$0A@@?$pair@PAU?$_Tree_node@U?$pair@$$CBV?$basic_string@DU?$char_traits@D@std@@V?$allocator@D@2@@std@@V?$shared_ptr@VRawImageData@@@2@@std@@PAX@std@@_N@std@@QAE@$$QAPAU?$_Tree_node@U?$pair@$$CBV?$basic_string@DU?$char_traits@D@std@@V?$allocator@D@2@@std@@V?$shared_ptr@VRawImageData@@@2@@std@@PAX@1@$$QA_N@Z 00409ab0 f i LoseGameState.obj
 0001:00008b00       ??$?0PAU?$_Tree_node@U?$pair@$$CBV?$basic_string@DU?$char_traits@D@std@@V?$allocator@D@2@@std@@V?$weak_ptr@VRawImageData@@@2@@std@@PAX@std@@_N$0A@@?$pair@PAU?$_Tree_node@U?$pair@$$CBV?$basic_string@DU?$char_traits@D@std@@V?$allocator@D@2@@std@@V?$weak_ptr@VRawImageData@@@2@@std@@PAX@std@@_N@std@@QAE@$$QAPAU?$_Tree_node@U?$pair@$$CBV?$basic_string@DU?$char_traits@D@std@@V?$allocator@D@2@@std@@V?$weak_ptr@VRawImageData@@@2@@std@@PAX@1@$$QA_N@Z 00409b00 f i LoseGameState.obj
 0001:00008b50       ??$?0U?$_Tree_node@U?$pair@$$CBV?$basic_string@DU?$char_traits@D@std@@V?$allocator@D@2@@std@@V?$shared_ptr@VRawImageData@@@2@@std@@PAX@std@@@?$allocator@U_Container_proxy@std@@@std@@QAE@ABV?$allocator@U?$_Tree_node@U?$pair@$$CBV?$basic_string@DU?$char_traits@D@std@@V?$allocator@D@2@@std@@V?$shared_ptr@VRawImageData@@@2@@std@@PAX@std@@@1@@Z 00409b50 f i LoseGameState.obj
 0001:00008b70       ??$?0U?$_Tree_node@U?$pair@$$CBV?$basic_string@DU?$char_traits@D@std@@V?$allocator@D@2@@std@@V?$weak_ptr@VRawImageData@@@2@@std@@PAX@std@@@?$allocator@U_Container_proxy@std@@@std@@QAE@ABV?$allocator@U?$_Tree_node@U?$pair@$$CBV?$basic_string@DU?$char_traits@D@std@@V?$allocator@D@2@@std@@V?$weak_ptr@VRawImageData@@@2@@std@@PAX@std@@@1@@Z 00409b70 f i LoseGameState.obj
 0001:00008b90       ??$?0U?$pair@V?$basic_string@DU?$char_traits@D@std@@V?$allocator@D@2@@std@@V?$shared_ptr@VRawImageData@@@2@@std@@@?$_Tree_temp_node@V?$allocator@U?$_Tree_node@U?$pair@$$CBV?$basic_string@DU?$char_traits@D@std@@V?$allocator@D@2@@std@@V?$shared_ptr@VRawImageData@@@2@@std@@PAX@std@@@std@@@std@@QAE@AAV?$allocator@U?$_Tree_node@U?$pair@$$CBV?$basic_string@DU?$char_traits@D@std@@V?$allocator@D@2@@std@@V?$shared_ptr@VRawImageData@@@2@@std@@PAX@std@@@1@PAU?$_Tree_node@U?$pair@$$CBV?$basic_string@DU?$char_traits@D@std@@V?$allocator@D@2@@std@@V?$shared_ptr@VRawImageData@@@2@@std@@PAX@1@$$QAU?$pair@V?$basic_string@DU?$char_traits@D@std@@V?$allocator@D@2@@std@@V?$shared_ptr@VRawImageData@@@2@@1@@Z 00409b90 f i LoseGameState.obj
 0001:00008ca0       ??$?0U?$pair@V?$basic_string@DU?$char_traits@D@std@@V?$allocator@D@2@@std@@V?$weak_ptr@VRawImageData@@@2@@std@@@?$_Tree_temp_node@V?$allocator@U?$_Tree_node@U?$pair@$$CBV?$basic_string@DU?$char_traits@D@std@@V?$allocator@D@2@@std@@V?$weak_ptr@VRawImageData@@@2@@std@@PAX@std@@@std@@@std@@QAE@AAV?$allocator@U?$_Tree_node@U?$pair@$$CBV?$basic_string@DU?$char_traits@D@std@@V?$allocator@D@2@@std@@V?$weak_ptr@VRawImageData@@@2@@std@@PAX@std@@@1@PAU?$_Tree_node@U?$pair@$$CBV?$basic_string@DU?$char_traits@D@std@@V?$allocator@D@2@@std@@V?$weak_ptr@VRawImageData@@@2@@std@@PAX@1@$$QAU?$pair@V?$basic_string@DU?$char_traits@D@std@@V?$allocator@D@2@@std@@V?$weak_ptr@VRawImageData@@@2@@1@@Z 00409ca0 f i LoseGameState.obj
 0001:00008db0       ??$?0V?$_Tree_iterator@V?$_Tree_val@U?$_Tree_simple_types@U?$pair@$$CBV?$basic_string@DU?$char_traits@D@std@@V?$allocator@D@2@@std@@V?$shared_ptr@VRawImageData@@@2@@std@@@std@@@std@@@std@@AB_N$0A@@?$pair@V?$_Tree_iterator@V?$_Tree_val@U?$_Tree_simple_types@U?$pair@$$CBV?$basic_string@DU?$char_traits@D@std@@V?$allocator@D@2@@std@@V?$shared_ptr@VRawImageData@@@2@@std@@@std@@@std@@@std@@_N@std@@QAE@$$QAV?$_Tree_iterator@V?$_Tree_val@U?$_Tree_simple_types@U?$pair@$$CBV?$basic_string@DU?$char_traits@D@std@@V?$allocator@D@2@@std@@V?$shared_ptr@VRawImageData@@@2@@std@@@std@@@std@@@1@AB_N@Z 00409db0 f i LoseGameState.obj
 0001:00008e00       ??$?0V?$_Tree_iterator@V?$_Tree_val@U?$_Tree_simple_types@U?$pair@$$CBV?$basic_string@DU?$char_traits@D@std@@V?$allocator@D@2@@std@@V?$weak_ptr@VRawImageData@@@2@@std@@@std@@@std@@@std@@AB_N$0A@@?$pair@V?$_Tree_iterator@V?$_Tree_val@U?$_Tree_simple_types@U?$pair@$$CBV?$basic_string@DU?$char_traits@D@std@@V?$allocator@D@2@@std@@V?$weak_ptr@VRawImageData@@@2@@std@@@std@@@std@@@std@@_N@std@@QAE@$$QAV?$_Tree_iterator@V?$_Tree_val@U?$_Tree_simple_types@U?$pair@$$CBV?$basic_string@DU?$char_traits@D@std@@V?$allocator@D@2@@std@@V?$weak_ptr@VRawImageData@@@2@@std@@@std@@@std@@@1@AB_N@Z 00409e00 f i LoseGameState.obj
 0001:00008e50       ??$?0V?$allocator@D@std@@$$V@?$_Compressed_pair@V?$allocator@D@std@@V?$_String_val@U?$_Simple_types@D@std@@@2@$00@std@@QAE@U_One_then_variadic_args_t@1@$$QAV?$allocator@D@1@@Z 00409e50 f i LoseGameState.obj
 0001:00008e80       ??$?0V?$basic_string@DU?$char_traits@D@std@@V?$allocator@D@2@@std@@V?$shared_ptr@VRawImageData@@@1@$0A@@?$pair@$$CBV?$basic_string@DU?$char_traits@D@std@@V?$allocator@D@2@@std@@V?$shared_ptr@VRawImageData@@@2@@std@@QAE@$$QAU?$pair@V?$basic_string@DU?$char_traits@D@std@@V?$allocator@D@2@@std@@V?$shared_ptr@VRawImageData@@@2@@1@@Z 00409e80 f i LoseGameState.obj
 0001:00008ed0       ??$?0V?$basic_string@DU?$char_traits@D@std@@V?$allocator@D@2@@std@@V?$weak_ptr@VRawImageData@@@1@$0A@@?$pair@$$CBV?$basic_string@DU?$char_traits@D@std@@V?$allocator@D@2@@std@@V?$weak_ptr@VRawImageData@@@2@@std@@QAE@$$QAU?$pair@V?$basic_string@DU?$char_traits@D@std@@V?$allocator@D@2@@std@@V?$weak_ptr@VRawImageData@@@2@@1@@Z 00409ed0 f i LoseGameState.obj
 0001:00008f20       ??$?0VRawImageData@@$0A@@?$shared_ptr@VRawImageData@@@std@@QAE@PAVRawImageData@@@Z 00409f20 f i LoseGameState.obj
 0001:00009010       ??$?0VRawImageData@@$0A@@?$weak_ptr@VRawImageData@@@std@@QAE@ABV?$shared_ptr@VRawImageData@@@1@@Z 0040a010 f i LoseGameState.obj
 0001:00009040       ??$?6DU?$char_traits@D@std@@V?$allocator@D@1@@std@@YAAAV?$basic_ostream@DU?$char_traits@D@std@@@0@AAV10@ABV?$basic_string@DU?$char_traits@D@std@@V?$allocator@D@2@@0@@Z 0040a040 f i LoseGameState.obj
 0001:00009070       ??$?6U?$char_traits@D@std@@@std@@YAAAV?$basic_ostream@DU?$char_traits@D@std@@@0@AAV10@PBD@Z 0040a070 f i LoseGameState.obj
 0001:00009470       ??$?9VRawImageData@@@std@@YA_NABV?$shared_ptr@VRawImageData@@@0@$$T@Z 0040a470 f i LoseGameState.obj
 0001:000094a0       ??$?CVRawImageData@@$0A@@?$shared_ptr@VRawImageData@@@std@@QBEPAVRawImageData@@XZ 0040a4a0 f i LoseGameState.obj
 0001:000094c0       ??$?MDU?$char_traits@D@std@@V?$allocator@D@1@@std@@YA_NABV?$basic_string@DU?$char_traits@D@std@@V?$allocator@D@2@@0@0@Z 0040a4c0 f i LoseGameState.obj
 0001:00009500       ??$_Alloc_proxy@V?$allocator@U_Container_proxy@std@@@std@@@_Container_base12@std@@QAEX$$QAV?$allocator@U_Container_proxy@std@@@1@@Z 0040a500 f i LoseGameState.obj
 0001:00009560       ??$_Allocate@$07U_Default_allocate_traits@std@@$0A@@std@@YAPAXI@Z 0040a560 f i LoseGameState.obj
 0001:000095a0       ??$_Allocate_manually_vector_aligned@U_Default_allocate_traits@std@@@std@@YAPAXI@Z 0040a5a0 f i LoseGameState.obj
 0001:00009680       ??$_Atomic_address_as@$$CBJ$$CCJ@std@@YAPDJACJ@Z 0040a680 f i LoseGameState.obj
 0001:00009690       ??$_Buyheadnode@V?$allocator@U?$_Tree_node@U?$pair@$$CBV?$basic_string@DU?$char_traits@D@std@@V?$allocator@D@2@@std@@V?$shared_ptr@VRawImageData@@@2@@std@@PAX@std@@@std@@@?$_Tree_node@U?$pair@$$CBV?$basic_string@DU?$char_traits@D@std@@V?$allocator@D@2@@std@@V?$shared_ptr@VRawImageData@@@2@@std@@PAX@std@@SAPAU01@AAV?$allocator@U?$_Tree_node@U?$pair@$$CBV?$basic_string@DU?$char_traits@D@std@@V?$allocator@D@2@@std@@V?$shared_ptr@VRawImageData@@@2@@std@@PAX@std@@@1@@Z 0040a690 f i LoseGameState.obj
 0001:00009710       ??$_Buyheadnode@V?$allocator@U?$_Tree_node@U?$pair@$$CBV?$basic_string@DU?$char_traits@D@std@@V?$allocator@D@2@@std@@V?$weak_ptr@VRawImageData@@@2@@std@@PAX@std@@@std@@@?$_Tree_node@U?$pair@$$CBV?$basic_string@DU?$char_traits@D@std@@V?$allocator@D@2@@std@@V?$weak_ptr@VRawImageData@@@2@@std@@PAX@std@@SAPAU01@AAV?$allocator@U?$_Tree_node@U?$pair@$$CBV?$basic_string@DU?$char_traits@D@std@@V?$allocator@D@2@@std@@V?$weak_ptr@VRawImageData@@@2@@std@@PAX@std@@@1@@Z 0040a710 f i LoseGameState.obj
 0001:00009790       ??$_Construct_from_weak@VRawImageData@@@?$_Ptr_base@VRawImageData@@@std@@IAE_NABV?$weak_ptr@VRawImageData@@@1@@Z 0040a790 f i LoseGameState.obj
 0001:000097f0       ??$_Construct_in_place@PADABQAD@std@@YAXAAPADABQAD@Z 0040a7f0 f i LoseGameState.obj
 0001:00009840       ??$_Construct_in_place@PAU?$_Tree_node@U?$pair@$$CBV?$basic_string@DU?$char_traits@D@std@@V?$allocator@D@2@@std@@V?$shared_ptr@VRawImageData@@@2@@std@@PAX@std@@AAPAU12@@std@@YAXAAPAU?$_Tree_node@U?$pair@$$CBV?$basic_string@DU?$char_traits@D@std@@V?$allocator@D@2@@std@@V?$shared_ptr@VRawImageData@@@2@@std@@PAX@0@0@Z 0040a840 f i LoseGameState.obj
 0001:00009890       ??$_Construct_in_place@PAU?$_Tree_node@U?$pair@$$CBV?$basic_string@DU?$char_traits@D@std@@V?$allocator@D@2@@std@@V?$shared_ptr@VRawImageData@@@2@@std@@PAX@std@@ABQAU12@@std@@YAXAAPAU?$_Tree_node@U?$pair@$$CBV?$basic_string@DU?$char_traits@D@std@@V?$allocator@D@2@@std@@V?$shared_ptr@VRawImageData@@@2@@std@@PAX@0@ABQAU10@@Z 0040a890 f i LoseGameState.obj
 0001:000098e0       ??$_Construct_in_place@PAU?$_Tree_node@U?$pair@$$CBV?$basic_string@DU?$char_traits@D@std@@V?$allocator@D@2@@std@@V?$weak_ptr@VRawImageData@@@2@@std@@PAX@std@@AAPAU12@@std@@YAXAAPAU?$_Tree_node@U?$pair@$$CBV?$basic_string@DU?$char_traits@D@std@@V?$allocator@D@2@@std@@V?$weak_ptr@VRawImageData@@@2@@std@@PAX@0@0@Z 0040a8e0 f i LoseGameState.obj
 0001:00009930       ??$_Construct_in_place@PAU?$_Tree_node@U?$pair@$$CBV?$basic_string@DU?$char_traits@D@std@@V?$allocator@D@2@@std@@V?$weak_ptr@VRawImageData@@@2@@std@@PAX@std@@ABQAU12@@std@@YAXAAPAU?$_Tree_node@U?$pair@$$CBV?$basic_string@DU?$char_traits@D@std@@V?$allocator@D@2@@std@@V?$weak_ptr@VRawImageData@@@2@@std@@PAX@0@ABQAU10@@Z 0040a930 f i LoseGameState.obj
 0001:00009980       ??$_Construct_in_place@U_Container_proxy@std@@PAU_Container_base12@2@@std@@YAXAAU_Container_proxy@0@$$QAPAU_Container_base12@0@@Z 0040a980 f i LoseGameState.obj
 0001:000099d0       ??$_Convert_size@I@std@@YAII@Z 0040a9d0 f i LoseGameState.obj
 0001:000099e0       ??$_Copy_construct_from@VRawImageData@@@?$_Ptr_base@VRawImageData@@@std@@IAEXABV?$shared_ptr@VRawImageData@@@1@@Z 0040a9e0 f i LoseGameState.obj
 0001:00009a30       ??$_Copy_memmove@PAPAVDisplayableObject@@PAPAV1@@std@@YAPAPAVDisplayableObject@@PAPAV1@00@Z 0040aa30 f i LoseGameState.obj
 0001:00009a80       ??$_Deallocate@$07$0A@@std@@YAXPAXI@Z 0040aa80 f i LoseGameState.obj
 0001:00009af0       ??$_Deallocate_plain@V?$allocator@U_Container_proxy@std@@@std@@@std@@YAXAAV?$allocator@U_Container_proxy@std@@@0@QAU_Container_proxy@0@@Z 0040aaf0 f i LoseGameState.obj
 0001:00009b50       ??$_Debug_lt_pred@ABU?$less@V?$basic_string@DU?$char_traits@D@std@@V?$allocator@D@2@@std@@@std@@ABV?$basic_string@DU?$char_traits@D@std@@V?$allocator@D@2@@2@ABV32@$0A@@std@@YA_NABU?$less@V?$basic_string@DU?$char_traits@D@std@@V?$allocator@D@2@@std@@@0@ABV?$basic_string@DU?$char_traits@D@std@@V?$allocator@D@2@@0@1@Z 0040ab50 f i LoseGameState.obj
 0001:00009c00       ??$_Delete_plain_internal@V?$allocator@U_Container_proxy@std@@@std@@@std@@YAXAAV?$allocator@U_Container_proxy@std@@@0@QAU_Container_proxy@0@@Z 0040ac00 f i LoseGameState.obj
 0001:00009c20       ??$_Destroy_in_place@PAD@std@@YAXAAPAD@Z 0040ac20 f i LoseGameState.obj
 0001:00009c30       ??$_Destroy_in_place@PAU?$_Tree_node@U?$pair@$$CBV?$basic_string@DU?$char_traits@D@std@@V?$allocator@D@2@@std@@V?$shared_ptr@VRawImageData@@@2@@std@@PAX@std@@@std@@YAXAAPAU?$_Tree_node@U?$pair@$$CBV?$basic_string@DU?$char_traits@D@std@@V?$allocator@D@2@@std@@V?$shared_ptr@VRawImageData@@@2@@std@@PAX@0@@Z 0040ac30 f i LoseGameState.obj
 0001:00009c40       ??$_Destroy_in_place@PAU?$_Tree_node@U?$pair@$$CBV?$basic_string@DU?$char_traits@D@std@@V?$allocator@D@2@@std@@V?$weak_ptr@VRawImageData@@@2@@std@@PAX@std@@@std@@YAXAAPAU?$_Tree_node@U?$pair@$$CBV?$basic_string@DU?$char_traits@D@std@@V?$allocator@D@2@@std@@V?$weak_ptr@VRawImageData@@@2@@std@@PAX@0@@Z 0040ac40 f i LoseGameState.obj
 0001:00009c50       ??$_Destroy_range@V?$allocator@PAVDisplayableObject@@@std@@@std@@YAXPAPAVDisplayableObject@@QAPAV1@AAV?$allocator@PAVDisplayableObject@@@0@@Z 0040ac50 f i LoseGameState.obj
 0001:00009c60       ??$_Emplace@U?$pair@V?$basic_string@DU?$char_traits@D@std@@V?$allocator@D@2@@std@@V?$shared_ptr@VRawImageData@@@2@@std@@@?$_Tree@V?$_Tmap_traits@V?$basic_string@DU?$char_traits@D@std@@V?$allocator@D@2@@std@@V?$shared_ptr@VRawImageData@@@2@U?$less@V?$basic_string@DU?$char_traits@D@std@@V?$allocator@D@2@@std@@@2@V?$allocator@U?$pair@$$CBV?$basic_string@DU?$char_traits@D@std@@V?$allocator@D@2@@std@@V?$shared_ptr@VRawImageData@@@2@@std@@@2@$0A@@std@@@std@@IAE?AU?$pair@PAU?$_Tree_node@U?$pair@$$CBV?$basic_string@DU?$char_traits@D@std@@V?$allocator@D@2@@std@@V?$shared_ptr@VRawImageData@@@2@@std@@PAX@std@@_N@1@$$QAU?$pair@V?$basic_string@DU?$char_traits@D@std@@V?$allocator@D@2@@std@@V?$shared_ptr@VRawImageData@@@2@@1@@Z 0040ac60 f i LoseGameState.obj
 0001:00009d90       ??$_Emplace@U?$pair@V?$basic_string@DU?$char_traits@D@std@@V?$allocator@D@2@@std@@V?$weak_ptr@VRawImageData@@@2@@std@@@?$_Tree@V?$_Tmap_traits@V?$basic_string@DU?$char_traits@D@std@@V?$allocator@D@2@@std@@V?$weak_ptr@VRawImageData@@@2@U?$less@V?$basic_string@DU?$char_traits@D@std@@V?$allocator@D@2@@std@@@2@V?$allocator@U?$pair@$$CBV?$basic_string@DU?$char_traits@D@std@@V?$allocator@D@2@@std@@V?$weak_ptr@VRawImageData@@@2@@std@@@2@$0A@@std@@@std@@IAE?AU?$pair@PAU?$_Tree_node@U?$pair@$$CBV?$basic_string@DU?$char_traits@D@std@@V?$allocator@D@2@@std@@V?$weak_ptr@VRawImageData@@@2@@std@@PAX@std@@_N@1@$$QAU?$pair@V?$basic_string@DU?$char_traits@D@std@@V?$allocator@D@2@@std@@V?$weak_ptr@VRawImageData@@@2@@1@@Z 0040ad90 f i LoseGameState.obj
 0001:00009ec0       ??$_Erase_head@V?$allocator@U?$_Tree_node@U?$pair@$$CBV?$basic_string@DU?$char_traits@D@std@@V?$allocator@D@2@@std@@V?$shared_ptr@VRawImageData@@@2@@std@@PAX@std@@@std@@@?$_Tree_val@U?$_Tree_simple_types@U?$pair@$$CBV?$basic_string@DU?$char_traits@D@std@@V?$allocator@D@2@@std@@V?$shared_ptr@VRawImageData@@@2@@std@@@std@@@std@@QAEXAAV?$allocator@U?$_Tree_node@U?$pair@$$CBV?$basic_string@DU?$char_traits@D@std@@V?$allocator@D@2@@std@@V?$shared_ptr@VRawImageData@@@2@@std@@PAX@std@@@1@@Z 0040aec0 f i LoseGameState.obj
 0001:00009f10       ??$_Erase_head@V?$allocator@U?$_Tree_node@U?$pair@$$CBV?$basic_string@DU?$char_traits@D@std@@V?$allocator@D@2@@std@@V?$weak_ptr@VRawImageData@@@2@@std@@PAX@std@@@std@@@?$_Tree_val@U?$_Tree_simple_types@U?$pair@$$CBV?$basic_string@DU?$char_traits@D@std@@V?$allocator@D@2@@std@@V?$weak_ptr@VRawImageData@@@2@@std@@@std@@@std@@QAEXAAV?$allocator@U?$_Tree_node@U?$pair@$$CBV?$basic_string@DU?$char_traits@D@std@@V?$allocator@D@2@@std@@V?$weak_ptr@VRawImageData@@@2@@std@@PAX@std@@@1@@Z 0040af10 f i LoseGameState.obj
 0001:00009f60       ??$_Erase_tree@V?$allocator@U?$_Tree_node@U?$pair@$$CBV?$basic_string@DU?$char_traits@D@std@@V?$allocator@D@2@@std@@V?$shared_ptr@VRawImageData@@@2@@std@@PAX@std@@@std@@@?$_Tree_val@U?$_Tree_simple_types@U?$pair@$$CBV?$basic_string@DU?$char_traits@D@std@@V?$allocator@D@2@@std@@V?$shared_ptr@VRawImageData@@@2@@std@@@std@@@std@@QAEXAAV?$allocator@U?$_Tree_node@U?$pair@$$CBV?$basic_string@DU?$char_traits@D@std@@V?$allocator@D@2@@std@@V?$shared_ptr@VRawImageData@@@2@@std@@PAX@std@@@1@PAU?$_Tree_node@U?$pair@$$CBV?$basic_string@DU?$char_traits@D@std@@V?$allocator@D@2@@std@@V?$shared_ptr@VRawImageData@@@2@@std@@PAX@1@@Z 0040af60 f i LoseGameState.obj
 0001:00009fc0       ??$_Erase_tree@V?$allocator@U?$_Tree_node@U?$pair@$$CBV?$basic_string@DU?$char_traits@D@std@@V?$allocator@D@2@@std@@V?$weak_ptr@VRawImageData@@@2@@std@@PAX@std@@@std@@@?$_Tree_val@U?$_Tree_simple_types@U?$pair@$$CBV?$basic_string@DU?$char_traits@D@std@@V?$allocator@D@2@@std@@V?$weak_ptr@VRawImageData@@@2@@std@@@std@@@std@@QAEXAAV?$allocator@U?$_Tree_node@U?$pair@$$CBV?$basic_string@DU?$char_traits@D@std@@V?$allocator@D@2@@std@@V?$weak_ptr@VRawImageData@@@2@@std@@PAX@std@@@1@PAU?$_Tree_node@U?$pair@$$CBV?$basic_string@DU?$char_traits@D@std@@V?$allocator@D@2@@std@@V?$weak_ptr@VRawImageData@@@2@@std@@PAX@1@@Z 0040afc0 f i LoseGameState.obj
 0001:0000a020       ??$_Find@V?$basic_string@DU?$char_traits@D@std@@V?$allocator@D@2@@std@@@?$_Tree@V?$_Tmap_traits@V?$basic_string@DU?$char_traits@D@std@@V?$allocator@D@2@@std@@V?$weak_ptr@VRawImageData@@@2@U?$less@V?$basic_string@DU?$char_traits@D@std@@V?$allocator@D@2@@std@@@2@V?$allocator@U?$pair@$$CBV?$basic_string@DU?$char_traits@D@std@@V?$allocator@D@2@@std@@V?$weak_ptr@VRawImageData@@@2@@std@@@2@$0A@@std@@@std@@ABEPAU?$_Tree_node@U?$pair@$$CBV?$basic_string@DU?$char_traits@D@std@@V?$allocator@D@2@@std@@V?$weak_ptr@VRawImageData@@@2@@std@@PAX@1@ABV?$basic_string@DU?$char_traits@D@std@@V?$allocator@D@2@@1@@Z 0040b020 f i LoseGameState.obj
 0001:0000a080       ??$_Find_lower_bound@V?$basic_string@DU?$char_traits@D@std@@V?$allocator@D@2@@std@@@?$_Tree@V?$_Tmap_traits@V?$basic_string@DU?$char_traits@D@std@@V?$allocator@D@2@@std@@V?$shared_ptr@VRawImageData@@@2@U?$less@V?$basic_string@DU?$char_traits@D@std@@V?$allocator@D@2@@std@@@2@V?$allocator@U?$pair@$$CBV?$basic_string@DU?$char_traits@D@std@@V?$allocator@D@2@@std@@V?$shared_ptr@VRawImageData@@@2@@std@@@2@$0A@@std@@@std@@IBE?AU?$_Tree_find_result@PAU?$_Tree_node@U?$pair@$$CBV?$basic_string@DU?$char_traits@D@std@@V?$allocator@D@2@@std@@V?$shared_ptr@VRawImageData@@@2@@std@@PAX@std@@@1@ABV?$basic_string@DU?$char_traits@D@std@@V?$allocator@D@2@@1@@Z 0040b080 f i LoseGameState.obj
 0001:0000a170       ??$_Find_lower_bound@V?$basic_string@DU?$char_traits@D@std@@V?$allocator@D@2@@std@@@?$_Tree@V?$_Tmap_traits@V?$basic_string@DU?$char_traits@D@std@@V?$allocator@D@2@@std@@V?$weak_ptr@VRawImageData@@@2@U?$less@V?$basic_string@DU?$char_traits@D@std@@V?$allocator@D@2@@std@@@2@V?$allocator@U?$pair@$$CBV?$basic_string@DU?$char_traits@D@std@@V?$allocator@D@2@@std@@V?$weak_ptr@VRawImageData@@@2@@std@@@2@$0A@@std@@@std@@IBE?AU?$_Tree_find_result@PAU?$_Tree_node@U?$pair@$$CBV?$basic_string@DU?$char_traits@D@std@@V?$allocator@D@2@@std@@V?$weak_ptr@VRawImageData@@@2@@std@@PAX@std@@@1@ABV?$basic_string@DU?$char_traits@D@std@@V?$allocator@D@2@@1@@Z 0040b170 f i LoseGameState.obj
 0001:0000a260       ??$_Freenode0@V?$allocator@U?$_Tree_node@U?$pair@$$CBV?$basic_string@DU?$char_traits@D@std@@V?$allocator@D@2@@std@@V?$shared_ptr@VRawImageData@@@2@@std@@PAX@std@@@std@@@?$_Tree_node@U?$pair@$$CBV?$basic_string@DU?$char_traits@D@std@@V?$allocator@D@2@@std@@V?$shared_ptr@VRawImageData@@@2@@std@@PAX@std@@SAXAAV?$allocator@U?$_Tree_node@U?$pair@$$CBV?$basic_string@DU?$char_traits@D@std@@V?$allocator@D@2@@std@@V?$shared_ptr@VRawImageData@@@2@@std@@PAX@std@@@1@PAU01@@Z 0040b260 f i LoseGameState.obj
 0001:0000a2f0       ??$_Freenode0@V?$allocator@U?$_Tree_node@U?$pair@$$CBV?$basic_string@DU?$char_traits@D@std@@V?$allocator@D@2@@std@@V?$weak_ptr@VRawImageData@@@2@@std@@PAX@std@@@std@@@?$_Tree_node@U?$pair@$$CBV?$basic_string@DU?$char_traits@D@std@@V?$allocator@D@2@@std@@V?$weak_ptr@VRawImageData@@@2@@std@@PAX@std@@SAXAAV?$allocator@U?$_Tree_node@U?$pair@$$CBV?$basic_string@DU?$char_traits@D@std@@V?$allocator@D@2@@std@@V?$weak_ptr@VRawImageData@@@2@@std@@PAX@std@@@1@PAU01@@Z 0040b2f0 f i LoseGameState.obj
 0001:0000a380       ??$_Freenode@V?$allocator@U?$_Tree_node@U?$pair@$$CBV?$basic_string@DU?$char_traits@D@std@@V?$allocator@D@2@@std@@V?$shared_ptr@VRawImageData@@@2@@std@@PAX@std@@@std@@@?$_Tree_node@U?$pair@$$CBV?$basic_string@DU?$char_traits@D@std@@V?$allocator@D@2@@std@@V?$shared_ptr@VRawImageData@@@2@@std@@PAX@std@@SAXAAV?$allocator@U?$_Tree_node@U?$pair@$$CBV?$basic_string@DU?$char_traits@D@std@@V?$allocator@D@2@@std@@V?$shared_ptr@VRawImageData@@@2@@std@@PAX@std@@@1@PAU01@@Z 0040b380 f i LoseGameState.obj
 0001:0000a400       ??$_Freenode@V?$allocator@U?$_Tree_node@U?$pair@$$CBV?$basic_string@DU?$char_traits@D@std@@V?$allocator@D@2@@std@@V?$weak_ptr@VRawImageData@@@2@@std@@PAX@std@@@std@@@?$_Tree_node@U?$pair@$$CBV?$basic_string@DU?$char_traits@D@std@@V?$allocator@D@2@@std@@V?$weak_ptr@VRawImageData@@@2@@std@@PAX@std@@SAXAAV?$allocator@U?$_Tree_node@U?$pair@$$CBV?$basic_string@DU?$char_traits@D@std@@V?$allocator@D@2@@std@@V?$weak_ptr@VRawImageData@@@2@@std@@PAX@std@@@1@PAU01@@Z 0040b400 f i LoseGameState.obj
 0001:0000a480       ??$_Get_size_of_n@$00@std@@YAII@Z 0040b480 f i LoseGameState.obj
 0001:0000a4a0       ??$_Get_size_of_n@$03@std@@YAII@Z 0040b4a0 f i LoseGameState.obj
 0001:0000a4e0       ??$_Get_size_of_n@$07@std@@YAII@Z 0040b4e0 f i LoseGameState.obj
 0001:0000a520       ??$_Get_size_of_n@$0DE@@std@@YAII@Z 0040b520 f i LoseGameState.obj
 0001:0000a550       ??$_Get_unwrapped@ABQAPAVDisplayableObject@@@std@@YA@ABQAPAVDisplayableObject@@@Z 0040b550 f i LoseGameState.obj
 0001:0000a560       ??$_Insert_string@DU?$char_traits@D@std@@I@std@@YAAAV?$basic_ostream@DU?$char_traits@D@std@@@0@AAV10@QBDI@Z 0040b560 f i LoseGameState.obj
 0001:0000a8e0       ??$_Kfn@$$CBV?$basic_string@DU?$char_traits@D@std@@V?$allocator@D@2@@std@@V?$shared_ptr@VRawImageData@@@2@@?$_Tmap_traits@V?$basic_string@DU?$char_traits@D@std@@V?$allocator@D@2@@std@@V?$shared_ptr@VRawImageData@@@2@U?$less@V?$basic_string@DU?$char_traits@D@std@@V?$allocator@D@2@@std@@@2@V?$allocator@U?$pair@$$CBV?$basic_string@DU?$char_traits@D@std@@V?$allocator@D@2@@std@@V?$shared_ptr@VRawImageData@@@2@@std@@@2@$0A@@std@@SAABV?$basic_string@DU?$char_traits@D@std@@V?$allocator@D@2@@1@ABU?$pair@$$CBV?$basic_string@DU?$char_traits@D@std@@V?$allocator@D@2@@std@@V?$shared_ptr@VRawImageData@@@2@@1@@Z 0040b8e0 f i LoseGameState.obj
 0001:0000a8f0       ??$_Kfn@$$CBV?$basic_string@DU?$char_traits@D@std@@V?$allocator@D@2@@std@@V?$weak_ptr@VRawImageData@@@2@@?$_Tmap_traits@V?$basic_string@DU?$char_traits@D@std@@V?$allocator@D@2@@std@@V?$weak_ptr@VRawImageData@@@2@U?$less@V?$basic_string@DU?$char_traits@D@std@@V?$allocator@D@2@@std@@@2@V?$allocator@U?$pair@$$CBV?$basic_string@DU?$char_traits@D@std@@V?$allocator@D@2@@std@@V?$weak_ptr@VRawImageData@@@2@@std@@@2@$0A@@std@@SAABV?$basic_string@DU?$char_traits@D@std@@V?$allocator@D@2@@1@ABU?$pair@$$CBV?$basic_string@DU?$char_traits@D@std@@V?$allocator@D@2@@std@@V?$weak_ptr@VRawImageData@@@2@@1@@Z 0040b8f0 f i LoseGameState.obj
 0001:0000a900       ??$_Lower_bound_duplicate@V?$basic_string@DU?$char_traits@D@std@@V?$allocator@D@2@@std@@@?$_Tree@V?$_Tmap_traits@V?$basic_string@DU?$char_traits@D@std@@V?$allocator@D@2@@std@@V?$shared_ptr@VRawImageData@@@2@U?$less@V?$basic_string@DU?$char_traits@D@std@@V?$allocator@D@2@@std@@@2@V?$allocator@U?$pair@$$CBV?$basic_string@DU?$char_traits@D@std@@V?$allocator@D@2@@std@@V?$shared_ptr@VRawImageData@@@2@@std@@@2@$0A@@std@@@std@@IBE_NQAU?$_Tree_node@U?$pair@$$CBV?$basic_string@DU?$char_traits@D@std@@V?$allocator@D@2@@std@@V?$shared_ptr@VRawImageData@@@2@@std@@PAX@1@ABV?$basic_string@DU?$char_traits@D@std@@V?$allocator@D@2@@1@@Z 0040b900 f i LoseGameState.obj
 0001:0000a970       ??$_Lower_bound_duplicate@V?$basic_string@DU?$char_traits@D@std@@V?$allocator@D@2@@std@@@?$_Tree@V?$_Tmap_traits@V?$basic_string@DU?$char_traits@D@std@@V?$allocator@D@2@@std@@V?$weak_ptr@VRawImageData@@@2@U?$less@V?$basic_string@DU?$char_traits@D@std@@V?$allocator@D@2@@std@@@2@V?$allocator@U?$pair@$$CBV?$basic_string@DU?$char_traits@D@std@@V?$allocator@D@2@@std@@V?$weak_ptr@VRawImageData@@@2@@std@@@2@$0A@@std@@@std@@IBE_NQAU?$_Tree_node@U?$pair@$$CBV?$basic_string@DU?$char_traits@D@std@@V?$allocator@D@2@@std@@V?$weak_ptr@VRawImageData@@@2@@std@@PAX@1@ABV?$basic_string@DU?$char_traits@D@std@@V?$allocator@D@2@@1@@Z 0040b970 f i LoseGameState.obj
 0001:0000a9e0       ??$_Max_value@I@std@@YAABIABI0@Z 0040b9e0 f i LoseGameState.obj
 0001:0000aa20       ??$_Min_value@I@std@@YAABIABI0@Z 0040ba20 f i LoseGameState.obj
 0001:0000aa60       ??$_Move_construct_from@VRawImageData@@@?$_Ptr_base@VRawImageData@@@std@@IAEX$$QAV01@@Z 0040ba60 f i LoseGameState.obj
 0001:0000aab0       ??$_Reallocate_for@V<lambda_9366063389c5f42a00a5088cf24e69de>@@PBD@?$basic_string@DU?$char_traits@D@std@@V?$allocator@D@2@@std@@AAEAAV01@IV<lambda_9366063389c5f42a00a5088cf24e69de>@@PBD@Z 0040bab0 f i LoseGameState.obj
 0001:0000abb0       ??$_Resize@U_Value_init_tag@std@@@?$vector@PAVDisplayableObject@@V?$allocator@PAVDisplayableObject@@@std@@@std@@AAEXIABU_Value_init_tag@1@@Z 0040bbb0 f i LoseGameState.obj
 0001:0000acd0       ??$_Resize_reallocate@U_Value_init_tag@std@@@?$vector@PAVDisplayableObject@@V?$allocator@PAVDisplayableObject@@@std@@@std@@AAEXIABU_Value_init_tag@1@@Z 0040bcd0 f i LoseGameState.obj
 0001:0000ae80       ??$_Set_ptr_rep_and_enable_shared@VRawImageData@@@?$shared_ptr@VRawImageData@@@std@@AAEXQAVRawImageData@@QAV_Ref_count_base@1@@Z 0040be80 f i LoseGameState.obj
 0001:0000aeb0       ??$_Traits_compare@U?$char_traits@D@std@@@std@@YAHQBDI0I@Z 0040beb0 f i LoseGameState.obj
 0001:0000af20       ??$_Unfancy@D@std@@YAPADPAD@Z 0040bf20 f i LoseGameState.obj
 0001:0000af30       ??$_Unfancy@PAVDisplayableObject@@@std@@YAPAPAVDisplayableObject@@PAPAV1@@Z 0040bf30 f i LoseGameState.obj
 0001:0000af40       ??$_Unfancy@U_Container_proxy@std@@@std@@YAPAU_Container_proxy@0@PAU10@@Z 0040bf40 f i LoseGameState.obj
 0001:0000af50       ??$_Uninitialized_move@PAPAVDisplayableObject@@V?$allocator@PAVDisplayableObject@@@std@@@std@@YAPAPAVDisplayableObject@@QAPAV1@0PAPAV1@AAV?$allocator@PAVDisplayableObject@@@0@@Z 0040bf50 f i LoseGameState.obj
 0001:0000afc0       ??$_Uninitialized_value_construct_n@V?$allocator@PAVDisplayableObject@@@std@@@std@@YAPAPAVDisplayableObject@@PAPAV1@IAAV?$allocator@PAVDisplayableObject@@@0@@Z 0040bfc0 f i LoseGameState.obj
 0001:0000b010       ??$_Weakly_construct_from@VRawImageData@@@?$_Ptr_base@VRawImageData@@@std@@IAEXABV01@@Z 0040c010 f i LoseGameState.obj
 0001:0000b060       ??$_Zero_range@PAPAVDisplayableObject@@@std@@YAPAPAVDisplayableObject@@QAPAV1@0@Z 0040c060 f i LoseGameState.obj
 0001:0000b0a0       ??$addressof@$$CBV?$_String_val@U?$_Simple_types@D@std@@@std@@@std@@YAPBV?$_String_val@U?$_Simple_types@D@std@@@0@ABV10@@Z 0040c0a0 f i LoseGameState.obj
 0001:0000b0b0       ??$addressof@$$CBV?$_Tree_val@U?$_Tree_simple_types@U?$pair@$$CBV?$basic_string@DU?$char_traits@D@std@@V?$allocator@D@2@@std@@V?$shared_ptr@VRawImageData@@@2@@std@@@std@@@std@@@std@@YAPBV?$_Tree_val@U?$_Tree_simple_types@U?$pair@$$CBV?$basic_string@DU?$char_traits@D@std@@V?$allocator@D@2@@std@@V?$shared_ptr@VRawImageData@@@2@@std@@@std@@@0@ABV10@@Z 0040c0b0 f i LoseGameState.obj
 0001:0000b0c0       ??$addressof@$$CBV?$_Tree_val@U?$_Tree_simple_types@U?$pair@$$CBV?$basic_string@DU?$char_traits@D@std@@V?$allocator@D@2@@std@@V?$weak_ptr@VRawImageData@@@2@@std@@@std@@@std@@@std@@YAPBV?$_Tree_val@U?$_Tree_simple_types@U?$pair@$$CBV?$basic_string@DU?$char_traits@D@std@@V?$allocator@D@2@@std@@V?$weak_ptr@VRawImageData@@@2@@std@@@std@@@0@ABV10@@Z 0040c0c0 f i LoseGameState.obj
 0001:0000b0d0       ??$addressof@PAD@std@@YAPAPADAAPAD@Z 0040c0d0 f i LoseGameState.obj
 0001:0000b0e0       ??$addressof@PAU?$_Tree_node@U?$pair@$$CBV?$basic_string@DU?$char_traits@D@std@@V?$allocator@D@2@@std@@V?$shared_ptr@VRawImageData@@@2@@std@@PAX@std@@@std@@YAPAPAU?$_Tree_node@U?$pair@$$CBV?$basic_string@DU?$char_traits@D@std@@V?$allocator@D@2@@std@@V?$shared_ptr@VRawImageData@@@2@@std@@PAX@0@AAPAU10@@Z 0040c0e0 f i LoseGameState.obj
 0001:0000b0f0       ??$addressof@PAU?$_Tree_node@U?$pair@$$CBV?$basic_string@DU?$char_traits@D@std@@V?$allocator@D@2@@std@@V?$weak_ptr@VRawImageData@@@2@@std@@PAX@std@@@std@@YAPAPAU?$_Tree_node@U?$pair@$$CBV?$basic_string@DU?$char_traits@D@std@@V?$allocator@D@2@@std@@V?$weak_ptr@VRawImageData@@@2@@std@@PAX@0@AAPAU10@@Z 0040c0f0 f i LoseGameState.obj
 0001:0000b100       ??$addressof@U?$pair@$$CBV?$basic_string@DU?$char_traits@D@std@@V?$allocator@D@2@@std@@V?$shared_ptr@VRawImageData@@@2@@std@@@std@@YAPAU?$pair@$$CBV?$basic_string@DU?$char_traits@D@std@@V?$allocator@D@2@@std@@V?$shared_ptr@VRawImageData@@@2@@0@AAU10@@Z 0040c100 f i LoseGameState.obj
 0001:0000b110       ??$addressof@U?$pair@$$CBV?$basic_string@DU?$char_traits@D@std@@V?$allocator@D@2@@std@@V?$weak_ptr@VRawImageData@@@2@@std@@@std@@YAPAU?$pair@$$CBV?$basic_string@DU?$char_traits@D@std@@V?$allocator@D@2@@std@@V?$weak_ptr@VRawImageData@@@2@@0@AAU10@@Z 0040c110 f i LoseGameState.obj
 0001:0000b120       ??$addressof@U_Container_base12@std@@@std@@YAPAU_Container_base12@0@AAU10@@Z 0040c120 f i LoseGameState.obj
 0001:0000b130       ??$addressof@U_Container_proxy@std@@@std@@YAPAU_Container_proxy@0@AAU10@@Z 0040c130 f i LoseGameState.obj
 0001:0000b140       ??$addressof@V?$_String_val@U?$_Simple_types@D@std@@@std@@@std@@YAPAV?$_String_val@U?$_Simple_types@D@std@@@0@AAV10@@Z 0040c140 f i LoseGameState.obj
 0001:0000b150       ??$addressof@V?$_Tree_val@U?$_Tree_simple_types@U?$pair@$$CBV?$basic_string@DU?$char_traits@D@std@@V?$allocator@D@2@@std@@V?$shared_ptr@VRawImageData@@@2@@std@@@std@@@std@@@std@@YAPAV?$_Tree_val@U?$_Tree_simple_types@U?$pair@$$CBV?$basic_string@DU?$char_traits@D@std@@V?$allocator@D@2@@std@@V?$shared_ptr@VRawImageData@@@2@@std@@@std@@@0@AAV10@@Z 0040c150 f i LoseGameState.obj
 0001:0000b160       ??$addressof@V?$_Tree_val@U?$_Tree_simple_types@U?$pair@$$CBV?$basic_string@DU?$char_traits@D@std@@V?$allocator@D@2@@std@@V?$weak_ptr@VRawImageData@@@2@@std@@@std@@@std@@@std@@YAPAV?$_Tree_val@U?$_Tree_simple_types@U?$pair@$$CBV?$basic_string@DU?$char_traits@D@std@@V?$allocator@D@2@@std@@V?$weak_ptr@VRawImageData@@@2@@std@@@std@@@0@AAV10@@Z 0040c160 f i LoseGameState.obj
 0001:0000b170       ??$construct@U?$pair@$$CBV?$basic_string@DU?$char_traits@D@std@@V?$allocator@D@2@@std@@V?$shared_ptr@VRawImageData@@@2@@std@@U?$pair@V?$basic_string@DU?$char_traits@D@std@@V?$allocator@D@2@@std@@V?$shared_ptr@VRawImageData@@@2@@2@@?$_Default_allocator_traits@V?$allocator@U?$_Tree_node@U?$pair@$$CBV?$basic_string@DU?$char_traits@D@std@@V?$allocator@D@2@@std@@V?$shared_ptr@VRawImageData@@@2@@std@@PAX@std@@@std@@@std@@SAXAAV?$allocator@U?$_Tree_node@U?$pair@$$CBV?$basic_string@DU?$char_traits@D@std@@V?$allocator@D@2@@std@@V?$shared_ptr@VRawImageData@@@2@@std@@PAX@std@@@1@QAU?$pair@$$CBV?$basic_string@DU?$char_traits@D@std@@V?$allocator@D@2@@std@@V?$shared_ptr@VRawImageData@@@2@@1@$$QAU?$pair@V?$basic_string@DU?$char_traits@D@std@@V?$allocator@D@2@@std@@V?$shared_ptr@VRawImageData@@@2@@1@@Z 0040c170 f i LoseGameState.obj
 0001:0000b1b0       ??$construct@U?$pair@$$CBV?$basic_string@DU?$char_traits@D@std@@V?$allocator@D@2@@std@@V?$weak_ptr@VRawImageData@@@2@@std@@U?$pair@V?$basic_string@DU?$char_traits@D@std@@V?$allocator@D@2@@std@@V?$weak_ptr@VRawImageData@@@2@@2@@?$_Default_allocator_traits@V?$allocator@U?$_Tree_node@U?$pair@$$CBV?$basic_string@DU?$char_traits@D@std@@V?$allocator@D@2@@std@@V?$weak_ptr@VRawImageData@@@2@@std@@PAX@std@@@std@@@std@@SAXAAV?$allocator@U?$_Tree_node@U?$pair@$$CBV?$basic_string@DU?$char_traits@D@std@@V?$allocator@D@2@@std@@V?$weak_ptr@VRawImageData@@@2@@std@@PAX@std@@@1@QAU?$pair@$$CBV?$basic_string@DU?$char_traits@D@std@@V?$allocator@D@2@@std@@V?$weak_ptr@VRawImageData@@@2@@1@$$QAU?$pair@V?$basic_string@DU?$char_traits@D@std@@V?$allocator@D@2@@std@@V?$weak_ptr@VRawImageData@@@2@@1@@Z 0040c1b0 f i LoseGameState.obj
 0001:0000b1f0       ??$destroy@U?$pair@$$CBV?$basic_string@DU?$char_traits@D@std@@V?$allocator@D@2@@std@@V?$shared_ptr@VRawImageData@@@2@@std@@@?$_Default_allocator_traits@V?$allocator@U?$_Tree_node@U?$pair@$$CBV?$basic_string@DU?$char_traits@D@std@@V?$allocator@D@2@@std@@V?$shared_ptr@VRawImageData@@@2@@std@@PAX@std@@@std@@@std@@SAXAAV?$allocator@U?$_Tree_node@U?$pair@$$CBV?$basic_string@DU?$char_traits@D@std@@V?$allocator@D@2@@std@@V?$shared_ptr@VRawImageData@@@2@@std@@PAX@std@@@1@QAU?$pair@$$CBV?$basic_string@DU?$char_traits@D@std@@V?$allocator@D@2@@std@@V?$shared_ptr@VRawImageData@@@2@@1@@Z 0040c1f0 f i LoseGameState.obj
 0001:0000b210       ??$destroy@U?$pair@$$CBV?$basic_string@DU?$char_traits@D@std@@V?$allocator@D@2@@std@@V?$weak_ptr@VRawImageData@@@2@@std@@@?$_Default_allocator_traits@V?$allocator@U?$_Tree_node@U?$pair@$$CBV?$basic_string@DU?$char_traits@D@std@@V?$allocator@D@2@@std@@V?$weak_ptr@VRawImageData@@@2@@std@@PAX@std@@@std@@@std@@SAXAAV?$allocator@U?$_Tree_node@U?$pair@$$CBV?$basic_string@DU?$char_traits@D@std@@V?$allocator@D@2@@std@@V?$weak_ptr@VRawImageData@@@2@@std@@PAX@std@@@1@QAU?$pair@$$CBV?$basic_string@DU?$char_traits@D@std@@V?$allocator@D@2@@std@@V?$weak_ptr@VRawImageData@@@2@@1@@Z 0040c210 f i LoseGameState.obj
 0001:0000b230       ??$emplace@U?$pair@V?$basic_string@DU?$char_traits@D@std@@V?$allocator@D@2@@std@@V?$shared_ptr@VRawImageData@@@2@@std@@@?$_Tree@V?$_Tmap_traits@V?$basic_string@DU?$char_traits@D@std@@V?$allocator@D@2@@std@@V?$shared_ptr@VRawImageData@@@2@U?$less@V?$basic_string@DU?$char_traits@D@std@@V?$allocator@D@2@@std@@@2@V?$allocator@U?$pair@$$CBV?$basic_string@DU?$char_traits@D@std@@V?$allocator@D@2@@std@@V?$shared_ptr@VRawImageData@@@2@@std@@@2@$0A@@std@@@std@@QAE?AU?$pair@V?$_Tree_iterator@V?$_Tree_val@U?$_Tree_simple_types@U?$pair@$$CBV?$basic_string@DU?$char_traits@D@std@@V?$allocator@D@2@@std@@V?$shared_ptr@VRawImageData@@@2@@std@@@std@@@std@@@std@@_N@1@$$QAU?$pair@V?$basic_string@DU?$char_traits@D@std@@V?$allocator@D@2@@std@@V?$shared_ptr@VRawImageData@@@2@@1@@Z 0040c230 f i LoseGameState.obj
 0001:0000b2c0       ??$emplace@U?$pair@V?$basic_string@DU?$char_traits@D@std@@V?$allocator@D@2@@std@@V?$weak_ptr@VRawImageData@@@2@@std@@@?$_Tree@V?$_Tmap_traits@V?$basic_string@DU?$char_traits@D@std@@V?$allocator@D@2@@std@@V?$weak_ptr@VRawImageData@@@2@U?$less@V?$basic_string@DU?$char_traits@D@std@@V?$allocator@D@2@@std@@@2@V?$allocator@U?$pair@$$CBV?$basic_string@DU?$char_traits@D@std@@V?$allocator@D@2@@std@@V?$weak_ptr@VRawImageData@@@2@@std@@@2@$0A@@std@@@std@@QAE?AU?$pair@V?$_Tree_iterator@V?$_Tree_val@U?$_Tree_simple_types@U?$pair@$$CBV?$basic_string@DU?$char_traits@D@std@@V?$allocator@D@2@@std@@V?$weak_ptr@VRawImageData@@@2@@std@@@std@@@std@@@std@@_N@1@$$QAU?$pair@V?$basic_string@DU?$char_traits@D@std@@V?$allocator@D@2@@std@@V?$weak_ptr@VRawImageData@@@2@@1@@Z 0040c2c0 f i LoseGameState.obj
 0001:0000b350       ??$endl@DU?$char_traits@D@std@@@std@@YAAAV?$basic_ostream@DU?$char_traits@D@std@@@0@AAV10@@Z 0040c350 f i LoseGameState.obj
 0001:0000b390       ??$erase@V?$_Tree_iterator@V?$_Tree_val@U?$_Tree_simple_types@U?$pair@$$CBV?$basic_string@DU?$char_traits@D@std@@V?$allocator@D@2@@std@@V?$weak_ptr@VRawImageData@@@2@@std@@@std@@@std@@@std@@$0A@@?$_Tree@V?$_Tmap_traits@V?$basic_string@DU?$char_traits@D@std@@V?$allocator@D@2@@std@@V?$weak_ptr@VRawImageData@@@2@U?$less@V?$basic_string@DU?$char_traits@D@std@@V?$allocator@D@2@@std@@@2@V?$allocator@U?$pair@$$CBV?$basic_string@DU?$char_traits@D@std@@V?$allocator@D@2@@std@@V?$weak_ptr@VRawImageData@@@2@@std@@@2@$0A@@std@@@std@@QAE?AV?$_Tree_iterator@V?$_Tree_val@U?$_Tree_simple_types@U?$pair@$$CBV?$basic_string@DU?$char_traits@D@std@@V?$allocator@D@2@@std@@V?$weak_ptr@VRawImageData@@@2@@std@@@std@@@std@@@1@V21@@Z 0040c390 f i LoseGameState.obj
 0001:0000b510       ??$exchange@PAU?$_Tree_node@U?$pair@$$CBV?$basic_string@DU?$char_traits@D@std@@V?$allocator@D@2@@std@@V?$shared_ptr@VRawImageData@@@2@@std@@PAX@std@@$$T@std@@YAPAU?$_Tree_node@U?$pair@$$CBV?$basic_string@DU?$char_traits@D@std@@V?$allocator@D@2@@std@@V?$shared_ptr@VRawImageData@@@2@@std@@PAX@0@AAPAU10@$$QA$$T@Z 0040c510 f i LoseGameState.obj
 0001:0000b540       ??$exchange@PAU?$_Tree_node@U?$pair@$$CBV?$basic_string@DU?$char_traits@D@std@@V?$allocator@D@2@@std@@V?$shared_ptr@VRawImageData@@@2@@std@@PAX@std@@AAPAU12@@std@@YAPAU?$_Tree_node@U?$pair@$$CBV?$basic_string@DU?$char_traits@D@std@@V?$allocator@D@2@@std@@V?$shared_ptr@VRawImageData@@@2@@std@@PAX@0@AAPAU10@0@Z 0040c540 f i LoseGameState.obj
 0001:0000b570       ??$exchange@PAU?$_Tree_node@U?$pair@$$CBV?$basic_string@DU?$char_traits@D@std@@V?$allocator@D@2@@std@@V?$weak_ptr@VRawImageData@@@2@@std@@PAX@std@@$$T@std@@YAPAU?$_Tree_node@U?$pair@$$CBV?$basic_string@DU?$char_traits@D@std@@V?$allocator@D@2@@std@@V?$weak_ptr@VRawImageData@@@2@@std@@PAX@0@AAPAU10@$$QA$$T@Z 0040c570 f i LoseGameState.obj
 0001:0000b5a0       ??$exchange@PAU?$_Tree_node@U?$pair@$$CBV?$basic_string@DU?$char_traits@D@std@@V?$allocator@D@2@@std@@V?$weak_ptr@VRawImageData@@@2@@std@@PAX@std@@AAPAU12@@std@@YAPAU?$_Tree_node@U?$pair@$$CBV?$basic_string@DU?$char_traits@D@std@@V?$allocator@D@2@@std@@V?$weak_ptr@VRawImageData@@@2@@std@@PAX@0@AAPAU10@0@Z 0040c5a0 f i LoseGameState.obj
 0001:0000b5d0       ??$forward@AAPAU?$_Tree_node@U?$pair@$$CBV?$basic_string@DU?$char_traits@D@std@@V?$allocator@D@2@@std@@V?$shared_ptr@VRawImageData@@@2@@std@@PAX@std@@@std@@YAAAPAU?$_Tree_node@U?$pair@$$CBV?$basic_string@DU?$char_traits@D@std@@V?$allocator@D@2@@std@@V?$shared_ptr@VRawImageData@@@2@@std@@PAX@0@AAPAU10@@Z 0040c5d0 f i LoseGameState.obj
 0001:0000b5e0       ??$forward@AAPAU?$_Tree_node@U?$pair@$$CBV?$basic_string@DU?$char_traits@D@std@@V?$allocator@D@2@@std@@V?$weak_ptr@VRawImageData@@@2@@std@@PAX@std@@@std@@YAAAPAU?$_Tree_node@U?$pair@$$CBV?$basic_string@DU?$char_traits@D@std@@V?$allocator@D@2@@std@@V?$weak_ptr@VRawImageData@@@2@@std@@PAX@0@AAPAU10@@Z 0040c5e0 f i LoseGameState.obj
 0001:0000b5f0       ??$forward@AAV?$basic_string@DU?$char_traits@D@std@@V?$allocator@D@2@@std@@@std@@YAAAV?$basic_string@DU?$char_traits@D@std@@V?$allocator@D@2@@0@AAV10@@Z 0040c5f0 f i LoseGameState.obj
 0001:0000b600       ??$forward@AAV?$shared_ptr@VRawImageData@@@std@@@std@@YAAAV?$shared_ptr@VRawImageData@@@0@AAV10@@Z 0040c600 f i LoseGameState.obj
 0001:0000b610       ??$forward@AAV?$weak_ptr@VRawImageData@@@std@@@std@@YAAAV?$weak_ptr@VRawImageData@@@0@AAV10@@Z 0040c610 f i LoseGameState.obj
 0001:0000b620       ??$forward@ABQAD@std@@YAABQADABQAD@Z 0040c620 f i LoseGameState.obj
 0001:0000b630       ??$forward@ABQAU?$_Tree_node@U?$pair@$$CBV?$basic_string@DU?$char_traits@D@std@@V?$allocator@D@2@@std@@V?$shared_ptr@VRawImageData@@@2@@std@@PAX@std@@@std@@YAABQAU?$_Tree_node@U?$pair@$$CBV?$basic_string@DU?$char_traits@D@std@@V?$allocator@D@2@@std@@V?$shared_ptr@VRawImageData@@@2@@std@@PAX@0@ABQAU10@@Z 0040c630 f i LoseGameState.obj
 0001:0000b640       ??$forward@ABQAU?$_Tree_node@U?$pair@$$CBV?$basic_string@DU?$char_traits@D@std@@V?$allocator@D@2@@std@@V?$weak_ptr@VRawImageData@@@2@@std@@PAX@std@@@std@@YAABQAU?$_Tree_node@U?$pair@$$CBV?$basic_string@DU?$char_traits@D@std@@V?$allocator@D@2@@std@@V?$weak_ptr@VRawImageData@@@2@@std@@PAX@0@ABQAU10@@Z 0040c640 f i LoseGameState.obj
 0001:0000b650       ??$forward@ABU?$less@V?$basic_string@DU?$char_traits@D@std@@V?$allocator@D@2@@std@@@std@@@std@@YAABU?$less@V?$basic_string@DU?$char_traits@D@std@@V?$allocator@D@2@@std@@@0@ABU10@@Z 0040c650 f i LoseGameState.obj
 0001:0000b660       ??$forward@AB_N@std@@YAAB_NAB_N@Z 0040c660 f i LoseGameState.obj
 0001:0000b670       ??$forward@PAU?$_Tree_node@U?$pair@$$CBV?$basic_string@DU?$char_traits@D@std@@V?$allocator@D@2@@std@@V?$shared_ptr@VRawImageData@@@2@@std@@PAX@std@@@std@@YA$$QAPAU?$_Tree_node@U?$pair@$$CBV?$basic_string@DU?$char_traits@D@std@@V?$allocator@D@2@@std@@V?$shared_ptr@VRawImageData@@@2@@std@@PAX@0@AAPAU10@@Z 0040c670 f i LoseGameState.obj
 0001:0000b680       ??$forward@PAU?$_Tree_node@U?$pair@$$CBV?$basic_string@DU?$char_traits@D@std@@V?$allocator@D@2@@std@@V?$weak_ptr@VRawImageData@@@2@@std@@PAX@std@@@std@@YA$$QAPAU?$_Tree_node@U?$pair@$$CBV?$basic_string@DU?$char_traits@D@std@@V?$allocator@D@2@@std@@V?$weak_ptr@VRawImageData@@@2@@std@@PAX@0@AAPAU10@@Z 0040c680 f i LoseGameState.obj
 0001:0000b690       ??$forward@PAU_Container_base12@std@@@std@@YA$$QAPAU_Container_base12@0@AAPAU10@@Z 0040c690 f i LoseGameState.obj
 0001:0000b6a0       ??$forward@U?$pair@V?$basic_string@DU?$char_traits@D@std@@V?$allocator@D@2@@std@@V?$shared_ptr@VRawImageData@@@2@@std@@@std@@YA$$QAU?$pair@V?$basic_string@DU?$char_traits@D@std@@V?$allocator@D@2@@std@@V?$shared_ptr@VRawImageData@@@2@@0@AAU10@@Z 0040c6a0 f i LoseGameState.obj
 0001:0000b6b0       ??$forward@U?$pair@V?$basic_string@DU?$char_traits@D@std@@V?$allocator@D@2@@std@@V?$weak_ptr@VRawImageData@@@2@@std@@@std@@YA$$QAU?$pair@V?$basic_string@DU?$char_traits@D@std@@V?$allocator@D@2@@std@@V?$weak_ptr@VRawImageData@@@2@@0@AAU10@@Z 0040c6b0 f i LoseGameState.obj
 0001:0000b6c0       ??$forward@U_Zero_then_variadic_args_t@std@@@std@@YA$$QAU_Zero_then_variadic_args_t@0@AAU10@@Z 0040c6c0 f i LoseGameState.obj
 0001:0000b6d0       ??$forward@V?$_Tree_iterator@V?$_Tree_val@U?$_Tree_simple_types@U?$pair@$$CBV?$basic_string@DU?$char_traits@D@std@@V?$allocator@D@2@@std@@V?$shared_ptr@VRawImageData@@@2@@std@@@std@@@std@@@std@@@std@@YA$$QAV?$_Tree_iterator@V?$_Tree_val@U?$_Tree_simple_types@U?$pair@$$CBV?$basic_string@DU?$char_traits@D@std@@V?$allocator@D@2@@std@@V?$shared_ptr@VRawImageData@@@2@@std@@@std@@@std@@@0@AAV10@@Z 0040c6d0 f i LoseGameState.obj
 0001:0000b6e0       ??$forward@V?$_Tree_iterator@V?$_Tree_val@U?$_Tree_simple_types@U?$pair@$$CBV?$basic_string@DU?$char_traits@D@std@@V?$allocator@D@2@@std@@V?$weak_ptr@VRawImageData@@@2@@std@@@std@@@std@@@std@@@std@@YA$$QAV?$_Tree_iterator@V?$_Tree_val@U?$_Tree_simple_types@U?$pair@$$CBV?$basic_string@DU?$char_traits@D@std@@V?$allocator@D@2@@std@@V?$weak_ptr@VRawImageData@@@2@@std@@@std@@@std@@@0@AAV10@@Z 0040c6e0 f i LoseGameState.obj
 0001:0000b6f0       ??$forward@V?$allocator@D@std@@@std@@YA$$QAV?$allocator@D@0@AAV10@@Z 0040c6f0 f i LoseGameState.obj
 0001:0000b700       ??$forward@V?$basic_string@DU?$char_traits@D@std@@V?$allocator@D@2@@std@@@std@@YA$$QAV?$basic_string@DU?$char_traits@D@std@@V?$allocator@D@2@@0@AAV10@@Z 0040c700 f i LoseGameState.obj
 0001:0000b710       ??$forward@V?$shared_ptr@VRawImageData@@@std@@@std@@YA$$QAV?$shared_ptr@VRawImageData@@@0@AAV10@@Z 0040c710 f i LoseGameState.obj
 0001:0000b720       ??$forward@V?$weak_ptr@VRawImageData@@@std@@@std@@YA$$QAV?$weak_ptr@VRawImageData@@@0@AAV10@@Z 0040c720 f i LoseGameState.obj
 0001:0000b730       ??$forward@_N@std@@YA$$QA_NAA_N@Z 0040c730 f i LoseGameState.obj
 0001:0000b740       ??$insert@U?$pair@V?$basic_string@DU?$char_traits@D@std@@V?$allocator@D@2@@std@@V?$shared_ptr@VRawImageData@@@2@@std@@$0A@@?$map@V?$basic_string@DU?$char_traits@D@std@@V?$allocator@D@2@@std@@V?$shared_ptr@VRawImageData@@@2@U?$less@V?$basic_string@DU?$char_traits@D@std@@V?$allocator@D@2@@std@@@2@V?$allocator@U?$pair@$$CBV?$basic_string@DU?$char_traits@D@std@@V?$allocator@D@2@@std@@V?$shared_ptr@VRawImageData@@@2@@std@@@2@@std@@QAE?AU?$pair@V?$_Tree_iterator@V?$_Tree_val@U?$_Tree_simple_types@U?$pair@$$CBV?$basic_string@DU?$char_traits@D@std@@V?$allocator@D@2@@std@@V?$shared_ptr@VRawImageData@@@2@@std@@@std@@@std@@@std@@_N@1@$$QAU?$pair@V?$basic_string@DU?$char_traits@D@std@@V?$allocator@D@2@@std@@V?$shared_ptr@VRawImageData@@@2@@1@@Z 0040c740 f i LoseGameState.obj
 0001:0000b790       ??$insert@U?$pair@V?$basic_string@DU?$char_traits@D@std@@V?$allocator@D@2@@std@@V?$weak_ptr@VRawImageData@@@2@@std@@$0A@@?$map@V?$basic_string@DU?$char_traits@D@std@@V?$allocator@D@2@@std@@V?$weak_ptr@VRawImageData@@@2@U?$less@V?$basic_string@DU?$char_traits@D@std@@V?$allocator@D@2@@std@@@2@V?$allocator@U?$pair@$$CBV?$basic_string@DU?$char_traits@D@std@@V?$allocator@D@2@@std@@V?$weak_ptr@VRawImageData@@@2@@std@@@2@@std@@QAE?AU?$pair@V?$_Tree_iterator@V?$_Tree_val@U?$_Tree_simple_types@U?$pair@$$CBV?$basic_string@DU?$char_traits@D@std@@V?$allocator@D@2@@std@@V?$weak_ptr@VRawImageData@@@2@@std@@@std@@@std@@@std@@_N@1@$$QAU?$pair@V?$basic_string@DU?$char_traits@D@std@@V?$allocator@D@2@@std@@V?$weak_ptr@VRawImageData@@@2@@1@@Z 0040c790 f i LoseGameState.obj
 0001:0000b7e0       ??$move@AAD@std@@YA$$QADAAD@Z 0040c7e0 f i LoseGameState.obj
 0001:0000b7f0       ??$move@AAV?$allocator@D@std@@@std@@YA$$QAV?$allocator@D@0@AAV10@@Z 0040c7f0 f i LoseGameState.obj
 0001:0000b800       ??$move@AAV?$shared_ptr@VRawImageData@@@std@@@std@@YA$$QAV?$shared_ptr@VRawImageData@@@0@AAV10@@Z 0040c800 f i LoseGameState.obj
 0001:0000b810       ??$move@AAV?$weak_ptr@VRawImageData@@@std@@@std@@YA$$QAV?$weak_ptr@VRawImageData@@@0@AAV10@@Z 0040c810 f i LoseGameState.obj
 0001:0000b820       ??$swap@D$0A@@std@@YAXAAD0@Z 0040c820 f i LoseGameState.obj
 0001:0000b870       ??0?$_Alloc_construct_ptr@V?$allocator@U?$_Tree_node@U?$pair@$$CBV?$basic_string@DU?$char_traits@D@std@@V?$allocator@D@2@@std@@V?$shared_ptr@VRawImageData@@@2@@std@@PAX@std@@@std@@@std@@QAE@AAV?$allocator@U?$_Tree_node@U?$pair@$$CBV?$basic_string@DU?$char_traits@D@std@@V?$allocator@D@2@@std@@V?$shared_ptr@VRawImageData@@@2@@std@@PAX@std@@@1@@Z 0040c870 f i LoseGameState.obj
 0001:0000b8a0       ??0?$_Alloc_construct_ptr@V?$allocator@U?$_Tree_node@U?$pair@$$CBV?$basic_string@DU?$char_traits@D@std@@V?$allocator@D@2@@std@@V?$weak_ptr@VRawImageData@@@2@@std@@PAX@std@@@std@@@std@@QAE@AAV?$allocator@U?$_Tree_node@U?$pair@$$CBV?$basic_string@DU?$char_traits@D@std@@V?$allocator@D@2@@std@@V?$weak_ptr@VRawImageData@@@2@@std@@PAX@std@@@1@@Z 0040c8a0 f i LoseGameState.obj
 0001:0000b8d0       ??0?$_Container_proxy_ptr12@V?$allocator@U_Container_proxy@std@@@std@@@std@@QAE@AAV?$allocator@U_Container_proxy@std@@@1@AAU_Container_base12@1@@Z 0040c8d0 f i LoseGameState.obj
 0001:0000b950       ??0?$_Ptr_base@VRawImageData@@@std@@IAE@XZ 0040c950 f i LoseGameState.obj
 0001:0000b980       ??0?$_Ref_count@VRawImageData@@@std@@QAE@PAVRawImageData@@@Z 0040c980 f i LoseGameState.obj
 0001:0000b9d0       ??0?$_String_val@U?$_Simple_types@D@std@@@std@@QAE@XZ 0040c9d0 f i LoseGameState.obj
 0001:0000ba20       ??0?$_Temporary_owner@VRawImageData@@@std@@QAE@QAVRawImageData@@@Z 0040ca20 f i LoseGameState.obj
 0001:0000ba40       ??0?$_Tree@V?$_Tmap_traits@V?$basic_string@DU?$char_traits@D@std@@V?$allocator@D@2@@std@@V?$shared_ptr@VRawImageData@@@2@U?$less@V?$basic_string@DU?$char_traits@D@std@@V?$allocator@D@2@@std@@@2@V?$allocator@U?$pair@$$CBV?$basic_string@DU?$char_traits@D@std@@V?$allocator@D@2@@std@@V?$shared_ptr@VRawImageData@@@2@@std@@@2@$0A@@std@@@std@@QAE@ABU?$less@V?$basic_string@DU?$char_traits@D@std@@V?$allocator@D@2@@std@@@1@@Z 0040ca40 f i LoseGameState.obj
 0001:0000ba80       ??0?$_Tree@V?$_Tmap_traits@V?$basic_string@DU?$char_traits@D@std@@V?$allocator@D@2@@std@@V?$weak_ptr@VRawImageData@@@2@U?$less@V?$basic_string@DU?$char_traits@D@std@@V?$allocator@D@2@@std@@@2@V?$allocator@U?$pair@$$CBV?$basic_string@DU?$char_traits@D@std@@V?$allocator@D@2@@std@@V?$weak_ptr@VRawImageData@@@2@@std@@@2@$0A@@std@@@std@@QAE@ABU?$less@V?$basic_string@DU?$char_traits@D@std@@V?$allocator@D@2@@std@@@1@@Z 0040ca80 f i LoseGameState.obj
 0001:0000bac0       ??0?$_Tree_const_iterator@V?$_Tree_val@U?$_Tree_simple_types@U?$pair@$$CBV?$basic_string@DU?$char_traits@D@std@@V?$allocator@D@2@@std@@V?$shared_ptr@VRawImageData@@@2@@std@@@std@@@std@@@std@@QAE@$$QAV01@@Z 0040cac0 f i LoseGameState.obj
 0001:0000baf0       ??0?$_Tree_const_iterator@V?$_Tree_val@U?$_Tree_simple_types@U?$pair@$$CBV?$basic_string@DU?$char_traits@D@std@@V?$allocator@D@2@@std@@V?$shared_ptr@VRawImageData@@@2@@std@@@std@@@std@@@std@@QAE@PAU?$_Tree_node@U?$pair@$$CBV?$basic_string@DU?$char_traits@D@std@@V?$allocator@D@2@@std@@V?$shared_ptr@VRawImageData@@@2@@std@@PAX@1@PBV?$_Tree_val@U?$_Tree_simple_types@U?$pair@$$CBV?$basic_string@DU?$char_traits@D@std@@V?$allocator@D@2@@std@@V?$shared_ptr@VRawImageData@@@2@@std@@@std@@@1@@Z 0040caf0 f i LoseGameState.obj
 0001:0000bb20       ??0?$_Tree_const_iterator@V?$_Tree_val@U?$_Tree_simple_types@U?$pair@$$CBV?$basic_string@DU?$char_traits@D@std@@V?$allocator@D@2@@std@@V?$weak_ptr@VRawImageData@@@2@@std@@@std@@@std@@@std@@QAE@$$QAV01@@Z 0040cb20 f i LoseGameState.obj
 0001:0000bb50       ??0?$_Tree_const_iterator@V?$_Tree_val@U?$_Tree_simple_types@U?$pair@$$CBV?$basic_string@DU?$char_traits@D@std@@V?$allocator@D@2@@std@@V?$weak_ptr@VRawImageData@@@2@@std@@@std@@@std@@@std@@QAE@ABV01@@Z 0040cb50 f i LoseGameState.obj
 0001:0000bb80       ??0?$_Tree_const_iterator@V?$_Tree_val@U?$_Tree_simple_types@U?$pair@$$CBV?$basic_string@DU?$char_traits@D@std@@V?$allocator@D@2@@std@@V?$weak_ptr@VRawImageData@@@2@@std@@@std@@@std@@@std@@QAE@PAU?$_Tree_node@U?$pair@$$CBV?$basic_string@DU?$char_traits@D@std@@V?$allocator@D@2@@std@@V?$weak_ptr@VRawImageData@@@2@@std@@PAX@1@PBV?$_Tree_val@U?$_Tree_simple_types@U?$pair@$$CBV?$basic_string@DU?$char_traits@D@std@@V?$allocator@D@2@@std@@V?$weak_ptr@VRawImageData@@@2@@std@@@std@@@1@@Z 0040cb80 f i LoseGameState.obj
 0001:0000bbb0       ??0?$_Tree_iterator@V?$_Tree_val@U?$_Tree_simple_types@U?$pair@$$CBV?$basic_string@DU?$char_traits@D@std@@V?$allocator@D@2@@std@@V?$shared_ptr@VRawImageData@@@2@@std@@@std@@@std@@@std@@QAE@$$QAV01@@Z 0040cbb0 f i LoseGameState.obj
 0001:0000bbe0       ??0?$_Tree_iterator@V?$_Tree_val@U?$_Tree_simple_types@U?$pair@$$CBV?$basic_string@DU?$char_traits@D@std@@V?$allocator@D@2@@std@@V?$shared_ptr@VRawImageData@@@2@@std@@@std@@@std@@@std@@QAE@PAU?$_Tree_node@U?$pair@$$CBV?$basic_string@DU?$char_traits@D@std@@V?$allocator@D@2@@std@@V?$shared_ptr@VRawImageData@@@2@@std@@PAX@1@PBV?$_Tree_val@U?$_Tree_simple_types@U?$pair@$$CBV?$basic_string@DU?$char_traits@D@std@@V?$allocator@D@2@@std@@V?$shared_ptr@VRawImageData@@@2@@std@@@std@@@1@@Z 0040cbe0 f i LoseGameState.obj
 0001:0000bc10       ??0?$_Tree_iterator@V?$_Tree_val@U?$_Tree_simple_types@U?$pair@$$CBV?$basic_string@DU?$char_traits@D@std@@V?$allocator@D@2@@std@@V?$weak_ptr@VRawImageData@@@2@@std@@@std@@@std@@@std@@QAE@$$QAV01@@Z 0040cc10 f i LoseGameState.obj
 0001:0000bc40       ??0?$_Tree_iterator@V?$_Tree_val@U?$_Tree_simple_types@U?$pair@$$CBV?$basic_string@DU?$char_traits@D@std@@V?$allocator@D@2@@std@@V?$weak_ptr@VRawImageData@@@2@@std@@@std@@@std@@@std@@QAE@ABV01@@Z 0040cc40 f i LoseGameState.obj
 0001:0000bc70       ??0?$_Tree_iterator@V?$_Tree_val@U?$_Tree_simple_types@U?$pair@$$CBV?$basic_string@DU?$char_traits@D@std@@V?$allocator@D@2@@std@@V?$weak_ptr@VRawImageData@@@2@@std@@@std@@@std@@@std@@QAE@PAU?$_Tree_node@U?$pair@$$CBV?$basic_string@DU?$char_traits@D@std@@V?$allocator@D@2@@std@@V?$weak_ptr@VRawImageData@@@2@@std@@PAX@1@PBV?$_Tree_val@U?$_Tree_simple_types@U?$pair@$$CBV?$basic_string@DU?$char_traits@D@std@@V?$allocator@D@2@@std@@V?$weak_ptr@VRawImageData@@@2@@std@@@std@@@1@@Z 0040cc70 f i LoseGameState.obj
 0001:0000bca0       ??0?$_Tree_temp_node_alloc@V?$allocator@U?$_Tree_node@U?$pair@$$CBV?$basic_string@DU?$char_traits@D@std@@V?$allocator@D@2@@std@@V?$shared_ptr@VRawImageData@@@2@@std@@PAX@std@@@std@@@std@@QAE@AAV?$allocator@U?$_Tree_node@U?$pair@$$CBV?$basic_string@DU?$char_traits@D@std@@V?$allocator@D@2@@std@@V?$shared_ptr@VRawImageData@@@2@@std@@PAX@std@@@1@@Z 0040cca0 f i LoseGameState.obj
 0001:0000bd20       ??0?$_Tree_temp_node_alloc@V?$allocator@U?$_Tree_node@U?$pair@$$CBV?$basic_string@DU?$char_traits@D@std@@V?$allocator@D@2@@std@@V?$weak_ptr@VRawImageData@@@2@@std@@PAX@std@@@std@@@std@@QAE@AAV?$allocator@U?$_Tree_node@U?$pair@$$CBV?$basic_string@DU?$char_traits@D@std@@V?$allocator@D@2@@std@@V?$weak_ptr@VRawImageData@@@2@@std@@PAX@std@@@1@@Z 0040cd20 f i LoseGameState.obj
 0001:0000bda0       ??0?$_Tree_unchecked_const_iterator@V?$_Tree_val@U?$_Tree_simple_types@U?$pair@$$CBV?$basic_string@DU?$char_traits@D@std@@V?$allocator@D@2@@std@@V?$shared_ptr@VRawImageData@@@2@@std@@@std@@@std@@U_Iterator_base12@2@@std@@QAE@$$QAV01@@Z 0040cda0 f i LoseGameState.obj
 0001:0000bde0       ??0?$_Tree_unchecked_const_iterator@V?$_Tree_val@U?$_Tree_simple_types@U?$pair@$$CBV?$basic_string@DU?$char_traits@D@std@@V?$allocator@D@2@@std@@V?$shared_ptr@VRawImageData@@@2@@std@@@std@@@std@@U_Iterator_base12@2@@std@@QAE@PAU?$_Tree_node@U?$pair@$$CBV?$basic_string@DU?$char_traits@D@std@@V?$allocator@D@2@@std@@V?$shared_ptr@VRawImageData@@@2@@std@@PAX@1@PBV?$_Tree_val@U?$_Tree_simple_types@U?$pair@$$CBV?$basic_string@DU?$char_traits@D@std@@V?$allocator@D@2@@std@@V?$shared_ptr@VRawImageData@@@2@@std@@@std@@@1@@Z 0040cde0 f i LoseGameState.obj
 0001:0000be20       ??0?$_Tree_unchecked_const_iterator@V?$_Tree_val@U?$_Tree_simple_types@U?$pair@$$CBV?$basic_string@DU?$char_traits@D@std@@V?$allocator@D@2@@std@@V?$weak_ptr@VRawImageData@@@2@@std@@@std@@@std@@U_Iterator_base0@2@@std@@QAE@PAU?$_Tree_node@U?$pair@$$CBV?$basic_string@DU?$char_traits@D@std@@V?$allocator@D@2@@std@@V?$weak_ptr@VRawImageData@@@2@@std@@PAX@1@PBV?$_Tree_val@U?$_Tree_simple_types@U?$pair@$$CBV?$basic_string@DU?$char_traits@D@std@@V?$allocator@D@2@@std@@V?$weak_ptr@VRawImageData@@@2@@std@@@std@@@1@@Z 0040ce20 f i LoseGameState.obj
 0001:0000be50       ??0?$_Tree_unchecked_const_iterator@V?$_Tree_val@U?$_Tree_simple_types@U?$pair@$$CBV?$basic_string@DU?$char_traits@D@std@@V?$allocator@D@2@@std@@V?$weak_ptr@VRawImageData@@@2@@std@@@std@@@std@@U_Iterator_base12@2@@std@@QAE@$$QAV01@@Z 0040ce50 f i LoseGameState.obj
 0001:0000be90       ??0?$_Tree_unchecked_const_iterator@V?$_Tree_val@U?$_Tree_simple_types@U?$pair@$$CBV?$basic_string@DU?$char_traits@D@std@@V?$allocator@D@2@@std@@V?$weak_ptr@VRawImageData@@@2@@std@@@std@@@std@@U_Iterator_base12@2@@std@@QAE@ABV01@@Z 0040ce90 f i LoseGameState.obj
 0001:0000bed0       ??0?$_Tree_unchecked_const_iterator@V?$_Tree_val@U?$_Tree_simple_types@U?$pair@$$CBV?$basic_string@DU?$char_traits@D@std@@V?$allocator@D@2@@std@@V?$weak_ptr@VRawImageData@@@2@@std@@@std@@@std@@U_Iterator_base12@2@@std@@QAE@PAU?$_Tree_node@U?$pair@$$CBV?$basic_string@DU?$char_traits@D@std@@V?$allocator@D@2@@std@@V?$weak_ptr@VRawImageData@@@2@@std@@PAX@1@PBV?$_Tree_val@U?$_Tree_simple_types@U?$pair@$$CBV?$basic_string@DU?$char_traits@D@std@@V?$allocator@D@2@@std@@V?$weak_ptr@VRawImageData@@@2@@std@@@std@@@1@@Z 0040ced0 f i LoseGameState.obj
 0001:0000bf10       ??0?$_Tree_unchecked_iterator@V?$_Tree_val@U?$_Tree_simple_types@U?$pair@$$CBV?$basic_string@DU?$char_traits@D@std@@V?$allocator@D@2@@std@@V?$weak_ptr@VRawImageData@@@2@@std@@@std@@@std@@@std@@QAE@PAU?$_Tree_node@U?$pair@$$CBV?$basic_string@DU?$char_traits@D@std@@V?$allocator@D@2@@std@@V?$weak_ptr@VRawImageData@@@2@@std@@PAX@1@PBV?$_Tree_val@U?$_Tree_simple_types@U?$pair@$$CBV?$basic_string@DU?$char_traits@D@std@@V?$allocator@D@2@@std@@V?$weak_ptr@VRawImageData@@@2@@std@@@std@@@1@@Z 0040cf10 f i LoseGameState.obj
 0001:0000bf40       ??0?$_Tree_val@U?$_Tree_simple_types@U?$pair@$$CBV?$basic_string@DU?$char_traits@D@std@@V?$allocator@D@2@@std@@V?$shared_ptr@VRawImageData@@@2@@std@@@std@@@std@@QAE@XZ 0040cf40 f i LoseGameState.obj
 0001:0000bf80       ??0?$_Tree_val@U?$_Tree_simple_types@U?$pair@$$CBV?$basic_string@DU?$char_traits@D@std@@V?$allocator@D@2@@std@@V?$weak_ptr@VRawImageData@@@2@@std@@@std@@@std@@QAE@XZ 0040cf80 f i LoseGameState.obj
 0001:0000bfc0       ??0?$allocator@D@std@@QAE@XZ 0040cfc0 f i LoseGameState.obj
 0001:0000bfe0       ??0?$allocator@U?$_Tree_node@U?$pair@$$CBV?$basic_string@DU?$char_traits@D@std@@V?$allocator@D@2@@std@@V?$shared_ptr@VRawImageData@@@2@@std@@PAX@std@@@std@@QAE@XZ 0040cfe0 f i LoseGameState.obj
 0001:0000c000       ??0?$allocator@U?$_Tree_node@U?$pair@$$CBV?$basic_string@DU?$char_traits@D@std@@V?$allocator@D@2@@std@@V?$weak_ptr@VRawImageData@@@2@@std@@PAX@std@@@std@@QAE@XZ 0040d000 f i LoseGameState.obj
 0001:0000c020       ??0?$basic_string@DU?$char_traits@D@std@@V?$allocator@D@2@@std@@QAE@$$QAV01@@Z 0040d020 f i LoseGameState.obj
 0001:0000c0d0       ??0?$basic_string@DU?$char_traits@D@std@@V?$allocator@D@2@@std@@QAE@ABV01@@Z 0040d0d0 f i LoseGameState.obj
 0001:0000c1c0       ??0?$basic_string@DU?$char_traits@D@std@@V?$allocator@D@2@@std@@QAE@QBD@Z 0040d1c0 f i LoseGameState.obj
 0001:0000c2a0       ??0?$map@V?$basic_string@DU?$char_traits@D@std@@V?$allocator@D@2@@std@@V?$shared_ptr@VRawImageData@@@2@U?$less@V?$basic_string@DU?$char_traits@D@std@@V?$allocator@D@2@@std@@@2@V?$allocator@U?$pair@$$CBV?$basic_string@DU?$char_traits@D@std@@V?$allocator@D@2@@std@@V?$shared_ptr@VRawImageData@@@2@@std@@@2@@std@@QAE@XZ 0040d2a0 f i LoseGameState.obj
 0001:0000c2d0       ??0?$map@V?$basic_string@DU?$char_traits@D@std@@V?$allocator@D@2@@std@@V?$weak_ptr@VRawImageData@@@2@U?$less@V?$basic_string@DU?$char_traits@D@std@@V?$allocator@D@2@@std@@@2@V?$allocator@U?$pair@$$CBV?$basic_string@DU?$char_traits@D@std@@V?$allocator@D@2@@std@@V?$weak_ptr@VRawImageData@@@2@@std@@@2@@std@@QAE@XZ 0040d2d0 f i LoseGameState.obj
 0001:0000c300       ??0?$shared_ptr@VRawImageData@@@std@@QAE@$$QAV01@@Z 0040d300 f i LoseGameState.obj
 0001:0000c340       ??0?$shared_ptr@VRawImageData@@@std@@QAE@$$T@Z 0040d340 f i LoseGameState.obj
 0001:0000c360       ??0?$shared_ptr@VRawImageData@@@std@@QAE@ABV01@@Z 0040d360 f i LoseGameState.obj
 0001:0000c390       ??0?$shared_ptr@VRawImageData@@@std@@QAE@XZ 0040d390 f i LoseGameState.obj
 0001:0000c3b0       ??0?$weak_ptr@VRawImageData@@@std@@QAE@$$QAV01@@Z 0040d3b0 f i LoseGameState.obj
 0001:0000c3f0       ??0?$weak_ptr@VRawImageData@@@std@@QAE@ABV01@@Z 0040d3f0 f i LoseGameState.obj
 0001:0000c420       ??0CoordinateMapping@@QAE@XZ 0040d420 f i LoseGameState.obj
 0001:0000c440       ??0CoordinateMappingRotate@@QAE@N@Z 0040d440 f i LoseGameState.obj
 0001:0000c480       ??0DragableBaseClassObject@@QAE@HHPAVBaseEngine@@HH_N@Z 0040d480 f i LoseGameState.obj
 0001:0000c4e0       ??0DragableImageObject@@QAE@HHPAVBaseEngine@@V?$basic_string@DU?$char_traits@D@std@@V?$allocator@D@2@@std@@_N2@Z 0040d4e0 f i LoseGameState.obj
 0001:0000c680       ??0GameImageObject@@QAE@PAVBaseEngine@@ABV?$basic_string@DU?$char_traits@D@std@@V?$allocator@D@2@@std@@HH_NH222@Z 0040d680 f i LoseGameState.obj
 0001:0000c7d0       ??0ImageManager@@QAE@XZ    0040d7d0 f i LoseGameState.obj
 0001:0000c850       ??0MappableImageObject@@QAE@PAVCoordinateMapping@@HHPAVBaseEngine@@V?$basic_string@DU?$char_traits@D@std@@V?$allocator@D@2@@std@@_N3@Z 0040d850 f i LoseGameState.obj
 0001:0000c910       ??0RawImageData@@QAE@V?$basic_string@DU?$char_traits@D@std@@V?$allocator@D@2@@std@@@Z 0040d910 f i LoseGameState.obj
 0001:0000c9c0       ??0ScrollingTextObject@@QAE@PAVBaseEngine@@HHPBDHHHH@Z 0040d9c0 f i LoseGameState.obj
 0001:0000ca90       ??0SimpleTextObject@@QAE@PAVBaseEngine@@HHPBDH@Z 0040da90 f i LoseGameState.obj
 0001:0000cb60       ??0Sound@@QAE@XZ           0040db60 f i LoseGameState.obj
 0001:0000cb80       ??0_Bxty@?$_String_val@U?$_Simple_types@D@std@@@std@@QAE@XZ 0040db80 f i LoseGameState.obj
 0001:0000cba0       ??0_Container_base12@std@@QAE@XZ 0040dba0 f i LoseGameState.obj
 0001:0000cbc0       ??0_Container_proxy@std@@QAE@PAU_Container_base12@1@@Z 0040dbc0 f i LoseGameState.obj
 0001:0000cbf0       ??0_Iterator_base12@std@@QAE@ABU01@@Z 0040dbf0 f i LoseGameState.obj
 0001:0000cc30       ??0_Iterator_base12@std@@QAE@XZ 0040dc30 f i LoseGameState.obj
 0001:0000cc60       ??0_Ref_count_base@std@@IAE@XZ 0040dc60 f i LoseGameState.obj
 0001:0000cc90       ??0_Sentry_base@?$basic_ostream@DU?$char_traits@D@std@@@std@@QAE@AAV12@@Z 0040dc90 f i LoseGameState.obj
 0001:0000ccf0       ??0bad_alloc@std@@AAE@QBD@Z 0040dcf0 f i LoseGameState.obj
 0001:0000cd20       ??0bad_alloc@std@@QAE@ABV01@@Z 0040dd20 f i LoseGameState.obj
 0001:0000cd50       ??0bad_array_new_length@std@@QAE@ABV01@@Z 0040dd50 f i LoseGameState.obj
 0001:0000cd80       ??0bad_array_new_length@std@@QAE@XZ 0040dd80 f i LoseGameState.obj
 0001:0000cdb0       ??0exception@std@@QAE@ABV01@@Z 0040ddb0 f i LoseGameState.obj
 0001:0000ce00       ??0exception@std@@QAE@QBDH@Z 0040de00 f i LoseGameState.obj
 0001:0000ce40       ??0sentry@?$basic_ostream@DU?$char_traits@D@std@@@std@@QAE@AAV12@@Z 0040de40 f i LoseGameState.obj
 0001:0000cf40       ??1?$_Alloc_construct_ptr@V?$allocator@U?$_Tree_node@U?$pair@$$CBV?$basic_string@DU?$char_traits@D@std@@V?$allocator@D@2@@std@@V?$shared_ptr@VRawImageData@@@2@@std@@PAX@std@@@std@@@std@@QAE@XZ 0040df40 f i LoseGameState.obj
 0001:0000cfb0       ??1?$_Alloc_construct_ptr@V?$allocator@U?$_Tree_node@U?$pair@$$CBV?$basic_string@DU?$char_traits@D@std@@V?$allocator@D@2@@std@@V?$weak_ptr@VRawImageData@@@2@@std@@PAX@std@@@std@@@std@@QAE@XZ 0040dfb0 f i LoseGameState.obj
 0001:0000d020       ??1?$_Compressed_pair@V?$allocator@D@std@@V?$_String_val@U?$_Simple_types@D@std@@@2@$00@std@@QAE@XZ 0040e020 f i LoseGameState.obj
 0001:0000d040       ??1?$_Container_proxy_ptr12@V?$allocator@U_Container_proxy@std@@@std@@@std@@QAE@XZ 0040e040 f i LoseGameState.obj
 0001:0000d080       ??1?$_Ref_count@VRawImageData@@@std@@UAE@XZ 0040e080 f i LoseGameState.obj
 0001:0000d0a0       ??1?$_String_val@U?$_Simple_types@D@std@@@std@@QAE@XZ 0040e0a0 f i LoseGameState.obj
 0001:0000d0c0       ??1?$_Temporary_owner@VRawImageData@@@std@@QAE@XZ 0040e0c0 f i LoseGameState.obj
 0001:0000d100       ??1?$_Tree@V?$_Tmap_traits@V?$basic_string@DU?$char_traits@D@std@@V?$allocator@D@2@@std@@V?$shared_ptr@VRawImageData@@@2@U?$less@V?$basic_string@DU?$char_traits@D@std@@V?$allocator@D@2@@std@@@2@V?$allocator@U?$pair@$$CBV?$basic_string@DU?$char_traits@D@std@@V?$allocator@D@2@@std@@V?$shared_ptr@VRawImageData@@@2@@std@@@2@$0A@@std@@@std@@QAE@XZ 0040e100 f i LoseGameState.obj
 0001:0000d170       ??1?$_Tree@V?$_Tmap_traits@V?$basic_string@DU?$char_traits@D@std@@V?$allocator@D@2@@std@@V?$weak_ptr@VRawImageData@@@2@U?$less@V?$basic_string@DU?$char_traits@D@std@@V?$allocator@D@2@@std@@@2@V?$allocator@U?$pair@$$CBV?$basic_string@DU?$char_traits@D@std@@V?$allocator@D@2@@std@@V?$weak_ptr@VRawImageData@@@2@@std@@@2@$0A@@std@@@std@@QAE@XZ 0040e170 f i LoseGameState.obj
 0001:0000d1e0       ??1?$_Tree_const_iterator@V?$_Tree_val@U?$_Tree_simple_types@U?$pair@$$CBV?$basic_string@DU?$char_traits@D@std@@V?$allocator@D@2@@std@@V?$shared_ptr@VRawImageData@@@2@@std@@@std@@@std@@@std@@QAE@XZ 0040e1e0 f i LoseGameState.obj
 0001:0000d200       ??1?$_Tree_const_iterator@V?$_Tree_val@U?$_Tree_simple_types@U?$pair@$$CBV?$basic_string@DU?$char_traits@D@std@@V?$allocator@D@2@@std@@V?$weak_ptr@VRawImageData@@@2@@std@@@std@@@std@@@std@@QAE@XZ 0040e200 f i LoseGameState.obj
 0001:0000d220       ??1?$_Tree_iterator@V?$_Tree_val@U?$_Tree_simple_types@U?$pair@$$CBV?$basic_string@DU?$char_traits@D@std@@V?$allocator@D@2@@std@@V?$shared_ptr@VRawImageData@@@2@@std@@@std@@@std@@@std@@QAE@XZ 0040e220 f i LoseGameState.obj
 0001:0000d240       ??1?$_Tree_iterator@V?$_Tree_val@U?$_Tree_simple_types@U?$pair@$$CBV?$basic_string@DU?$char_traits@D@std@@V?$allocator@D@2@@std@@V?$weak_ptr@VRawImageData@@@2@@std@@@std@@@std@@@std@@QAE@XZ 0040e240 f i LoseGameState.obj
 0001:0000d260       ??1?$_Tree_temp_node@V?$allocator@U?$_Tree_node@U?$pair@$$CBV?$basic_string@DU?$char_traits@D@std@@V?$allocator@D@2@@std@@V?$shared_ptr@VRawImageData@@@2@@std@@PAX@std@@@std@@@std@@QAE@XZ 0040e260 f i LoseGameState.obj
 0001:0000d320       ??1?$_Tree_temp_node@V?$allocator@U?$_Tree_node@U?$pair@$$CBV?$basic_string@DU?$char_traits@D@std@@V?$allocator@D@2@@std@@V?$weak_ptr@VRawImageData@@@2@@std@@PAX@std@@@std@@@std@@QAE@XZ 0040e320 f i LoseGameState.obj
 0001:0000d3e0       ??1?$_Tree_temp_node_alloc@V?$allocator@U?$_Tree_node@U?$pair@$$CBV?$basic_string@DU?$char_traits@D@std@@V?$allocator@D@2@@std@@V?$shared_ptr@VRawImageData@@@2@@std@@PAX@std@@@std@@@std@@QAE@XZ 0040e3e0 f i LoseGameState.obj
 0001:0000d400       ??1?$_Tree_temp_node_alloc@V?$allocator@U?$_Tree_node@U?$pair@$$CBV?$basic_string@DU?$char_traits@D@std@@V?$allocator@D@2@@std@@V?$weak_ptr@VRawImageData@@@2@@std@@PAX@std@@@std@@@std@@QAE@XZ 0040e400 f i LoseGameState.obj
 0001:0000d420       ??1?$_Tree_unchecked_const_iterator@V?$_Tree_val@U?$_Tree_simple_types@U?$pair@$$CBV?$basic_string@DU?$char_traits@D@std@@V?$allocator@D@2@@std@@V?$shared_ptr@VRawImageData@@@2@@std@@@std@@@std@@U_Iterator_base12@2@@std@@QAE@XZ 0040e420 f i LoseGameState.obj
 0001:0000d440       ??1?$_Tree_unchecked_const_iterator@V?$_Tree_val@U?$_Tree_simple_types@U?$pair@$$CBV?$basic_string@DU?$char_traits@D@std@@V?$allocator@D@2@@std@@V?$weak_ptr@VRawImageData@@@2@@std@@@std@@@std@@U_Iterator_base12@2@@std@@QAE@XZ 0040e440 f i LoseGameState.obj
 0001:0000d460       ??1?$basic_string@DU?$char_traits@D@std@@V?$allocator@D@2@@std@@QAE@XZ 0040e460 f i LoseGameState.obj
 0001:0000d4d0       ??1?$map@V?$basic_string@DU?$char_traits@D@std@@V?$allocator@D@2@@std@@V?$shared_ptr@VRawImageData@@@2@U?$less@V?$basic_string@DU?$char_traits@D@std@@V?$allocator@D@2@@std@@@2@V?$allocator@U?$pair@$$CBV?$basic_string@DU?$char_traits@D@std@@V?$allocator@D@2@@std@@V?$shared_ptr@VRawImageData@@@2@@std@@@2@@std@@QAE@XZ 0040e4d0 f i LoseGameState.obj
 0001:0000d4f0       ??1?$map@V?$basic_string@DU?$char_traits@D@std@@V?$allocator@D@2@@std@@V?$weak_ptr@VRawImageData@@@2@U?$less@V?$basic_string@DU?$char_traits@D@std@@V?$allocator@D@2@@std@@@2@V?$allocator@U?$pair@$$CBV?$basic_string@DU?$char_traits@D@std@@V?$allocator@D@2@@std@@V?$weak_ptr@VRawImageData@@@2@@std@@@2@@std@@QAE@XZ 0040e4f0 f i LoseGameState.obj
 0001:0000d510       ??1?$pair@$$CBV?$basic_string@DU?$char_traits@D@std@@V?$allocator@D@2@@std@@V?$shared_ptr@VRawImageData@@@2@@std@@QAE@XZ 0040e510 f i LoseGameState.obj
 0001:0000d540       ??1?$pair@$$CBV?$basic_string@DU?$char_traits@D@std@@V?$allocator@D@2@@std@@V?$weak_ptr@VRawImageData@@@2@@std@@QAE@XZ 0040e540 f i LoseGameState.obj
 0001:0000d570       ??1?$pair@V?$_Tree_iterator@V?$_Tree_val@U?$_Tree_simple_types@U?$pair@$$CBV?$basic_string@DU?$char_traits@D@std@@V?$allocator@D@2@@std@@V?$shared_ptr@VRawImageData@@@2@@std@@@std@@@std@@@std@@_N@std@@QAE@XZ 0040e570 f i LoseGameState.obj
 0001:0000d590       ??1?$pair@V?$_Tree_iterator@V?$_Tree_val@U?$_Tree_simple_types@U?$pair@$$CBV?$basic_string@DU?$char_traits@D@std@@V?$allocator@D@2@@std@@V?$weak_ptr@VRawImageData@@@2@@std@@@std@@@std@@@std@@_N@std@@QAE@XZ 0040e590 f i LoseGameState.obj
 0001:0000d5b0       ??1?$pair@V?$basic_string@DU?$char_traits@D@std@@V?$allocator@D@2@@std@@V?$shared_ptr@VRawImageData@@@2@@std@@QAE@XZ 0040e5b0 f i LoseGameState.obj
 0001:0000d5e0       ??1?$pair@V?$basic_string@DU?$char_traits@D@std@@V?$allocator@D@2@@std@@V?$weak_ptr@VRawImageData@@@2@@std@@QAE@XZ 0040e5e0 f i LoseGameState.obj
 0001:0000d610       ??1?$shared_ptr@VRawImageData@@@std@@QAE@XZ 0040e610 f i LoseGameState.obj
 0001:0000d630       ??1?$weak_ptr@VRawImageData@@@std@@QAE@XZ 0040e630 f i LoseGameState.obj
 0001:0000d650       ??1DragableBaseClassObject@@UAE@XZ 0040e650 f i LoseGameState.obj
 0001:0000d670       ??1DragableImageObject@@UAE@XZ 0040e670 f i LoseGameState.obj
 0001:0000d6a0       ??1GameImageObject@@UAE@XZ 0040e6a0 f i LoseGameState.obj
 0001:0000d6d0       ??1MappableImageObject@@UAE@XZ 0040e6d0 f i LoseGameState.obj
 0001:0000d6f0       ??1RawImageData@@QAE@XZ    0040e6f0 f i LoseGameState.obj
 0001:0000d750       ??1ScrollingTextObject@@UAE@XZ 0040e750 f i LoseGameState.obj
 0001:0000d770       ??1SimpleImage@@QAE@XZ     0040e770 f i LoseGameState.obj
 0001:0000d7c0       ??1SimpleTextObject@@UAE@XZ 0040e7c0 f i LoseGameState.obj
 0001:0000d7f0       ??1Sound@@QAE@XZ           0040e7f0 f i LoseGameState.obj
 0001:0000d830       ??1_Bxty@?$_String_val@U?$_Simple_types@D@std@@@std@@QAE@XZ 0040e830 f i LoseGameState.obj
 0001:0000d840       ??1_Iterator_base12@std@@QAE@XZ 0040e840 f i LoseGameState.obj
 0001:0000d880       ??1_Ref_count_base@std@@UAE@XZ 0040e880 f i LoseGameState.obj
 0001:0000d890       ??1_Sentry_base@?$basic_ostream@DU?$char_traits@D@std@@@std@@QAE@XZ 0040e890 f i LoseGameState.obj
 0001:0000d910       ??1bad_alloc@std@@UAE@XZ   0040e910 f i LoseGameState.obj
 0001:0000d930       ??1bad_array_new_length@std@@UAE@XZ 0040e930 f i LoseGameState.obj
 0001:0000d950       ??1exception@std@@UAE@XZ   0040e950 f i LoseGameState.obj
 0001:0000d980       ??1sentry@?$basic_ostream@DU?$char_traits@D@std@@@std@@QAE@XZ 0040e980 f i LoseGameState.obj
 0001:0000d9f0       ??2@YAPAXIPAX@Z            0040e9f0 f i LoseGameState.obj
 0001:0000da00       ??4_Iterator_base12@std@@QAEAAU01@ABU01@@Z 0040ea00 f i LoseGameState.obj
 0001:0000da70       ??8?$_Tree_const_iterator@V?$_Tree_val@U?$_Tree_simple_types@U?$pair@$$CBV?$basic_string@DU?$char_traits@D@std@@V?$allocator@D@2@@std@@V?$weak_ptr@VRawImageData@@@2@@std@@@std@@@std@@@std@@QBE_NABV01@@Z 0040ea70 f i LoseGameState.obj
 0001:0000db30       ??9?$_Tree_const_iterator@V?$_Tree_val@U?$_Tree_simple_types@U?$pair@$$CBV?$basic_string@DU?$char_traits@D@std@@V?$allocator@D@2@@std@@V?$weak_ptr@VRawImageData@@@2@@std@@@std@@@std@@@std@@QBE_NABV01@@Z 0040eb30 f i LoseGameState.obj
 0001:0000db80       ??A?$vector@PAVDisplayableObject@@V?$allocator@PAVDisplayableObject@@@std@@@std@@QAEAAPAVDisplayableObject@@I@Z 0040eb80 f i LoseGameState.obj
 0001:0000dc30       ??A?$vector@V?$basic_string@DU?$char_traits@D@std@@V?$allocator@D@2@@std@@V?$allocator@V?$basic_string@DU?$char_traits@D@std@@V?$allocator@D@2@@std@@@2@@std@@QBEABV?$basic_string@DU?$char_traits@D@std@@V?$allocator@D@2@@1@I@Z 0040ec30 f i LoseGameState.obj
 0001:0000dce0       ??Bsentry@?$basic_ostream@DU?$char_traits@D@std@@@std@@QBE_NXZ 0040ece0 f i LoseGameState.obj
 0001:0000dd00       ??C?$_Tree_iterator@V?$_Tree_val@U?$_Tree_simple_types@U?$pair@$$CBV?$basic_string@DU?$char_traits@D@std@@V?$allocator@D@2@@std@@V?$weak_ptr@VRawImageData@@@2@@std@@@std@@@std@@@std@@QBEPAU?$pair@$$CBV?$basic_string@DU?$char_traits@D@std@@V?$allocator@D@2@@std@@V?$weak_ptr@VRawImageData@@@2@@1@XZ 0040ed00 f i LoseGameState.obj
 0001:0000dd30       ??D?$_Tree_const_iterator@V?$_Tree_val@U?$_Tree_simple_types@U?$pair@$$CBV?$basic_string@DU?$char_traits@D@std@@V?$allocator@D@2@@std@@V?$weak_ptr@VRawImageData@@@2@@std@@@std@@@std@@@std@@QBEABU?$pair@$$CBV?$basic_string@DU?$char_traits@D@std@@V?$allocator@D@2@@std@@V?$weak_ptr@VRawImageData@@@2@@1@XZ 0040ed30 f i LoseGameState.obj
 0001:0000de40       ??D?$_Tree_iterator@V?$_Tree_val@U?$_Tree_simple_types@U?$pair@$$CBV?$basic_string@DU?$char_traits@D@std@@V?$allocator@D@2@@std@@V?$weak_ptr@VRawImageData@@@2@@std@@@std@@@std@@@std@@QBEAAU?$pair@$$CBV?$basic_string@DU?$char_traits@D@std@@V?$allocator@D@2@@std@@V?$weak_ptr@VRawImageData@@@2@@1@XZ 0040ee40 f i LoseGameState.obj
 0001:0000de60       ??E?$_Tree_unchecked_const_iterator@V?$_Tree_val@U?$_Tree_simple_types@U?$pair@$$CBV?$basic_string@DU?$char_traits@D@std@@V?$allocator@D@2@@std@@V?$weak_ptr@VRawImageData@@@2@@std@@@std@@@std@@U_Iterator_base0@2@@std@@QAEAAV01@XZ 0040ee60 f i LoseGameState.obj
 0001:0000def0       ??R<lambda_9366063389c5f42a00a5088cf24e69de>@@QBE@QADIQBD@Z 0040eef0 f i LoseGameState.obj
 0001:0000df40       ??R?$less@V?$basic_string@DU?$char_traits@D@std@@V?$allocator@D@2@@std@@@std@@QBE_NABV?$basic_string@DU?$char_traits@D@std@@V?$allocator@D@2@@1@0@Z 0040ef40 f i LoseGameState.obj
 0001:0000df70       ??_E?$_Ref_count@VRawImageData@@@std@@UAEPAXI@Z 0040ef70 f i LoseGameState.obj
 0001:0000df70       ??_G?$_Ref_count@VRawImageData@@@std@@UAEPAXI@Z 0040ef70 f i LoseGameState.obj
 0001:0000dfb0       ??_G?$pair@$$CBV?$basic_string@DU?$char_traits@D@std@@V?$allocator@D@2@@std@@V?$shared_ptr@VRawImageData@@@2@@std@@QAEPAXI@Z 0040efb0 f i LoseGameState.obj
 0001:0000dff0       ??_G?$pair@$$CBV?$basic_string@DU?$char_traits@D@std@@V?$allocator@D@2@@std@@V?$weak_ptr@VRawImageData@@@2@@std@@QAEPAXI@Z 0040eff0 f i LoseGameState.obj
 0001:0000e030       ??_EDragableBaseClassObject@@UAEPAXI@Z 0040f030 f i LoseGameState.obj
 0001:0000e030       ??_GDragableBaseClassObject@@UAEPAXI@Z 0040f030 f i LoseGameState.obj
 0001:0000e070       ??_GDragableImageObject@@UAEPAXI@Z 0040f070 f i LoseGameState.obj
 0001:0000e070       ??_EDragableImageObject@@UAEPAXI@Z 0040f070 f i LoseGameState.obj
 0001:0000e0b0       ??_EGameImageObject@@UAEPAXI@Z 0040f0b0 f i LoseGameState.obj
 0001:0000e0b0       ??_GGameImageObject@@UAEPAXI@Z 0040f0b0 f i LoseGameState.obj
 0001:0000e0f0       ??_ELoseGameState@@UAEPAXI@Z 0040f0f0 f i LoseGameState.obj
 0001:0000e0f0       ??_GLoseGameState@@UAEPAXI@Z 0040f0f0 f i LoseGameState.obj
 0001:0000e130       ??_GMappableImageObject@@UAEPAXI@Z 0040f130 f i LoseGameState.obj
 0001:0000e130       ??_EMappableImageObject@@UAEPAXI@Z 0040f130 f i LoseGameState.obj
 0001:0000e170       ??_GRawImageData@@QAEPAXI@Z 0040f170 f i LoseGameState.obj
 0001:0000e1b0       ??_EScrollingTextObject@@UAEPAXI@Z 0040f1b0 f i LoseGameState.obj
 0001:0000e1b0       ??_GScrollingTextObject@@UAEPAXI@Z 0040f1b0 f i LoseGameState.obj
 0001:0000e1f0       ??_ESimpleTextObject@@UAEPAXI@Z 0040f1f0 f i LoseGameState.obj
 0001:0000e1f0       ??_GSimpleTextObject@@UAEPAXI@Z 0040f1f0 f i LoseGameState.obj
 0001:0000e230       ??_Gbad_alloc@std@@UAEPAXI@Z 0040f230 f i LoseGameState.obj
 0001:0000e230       ??_Ebad_alloc@std@@UAEPAXI@Z 0040f230 f i LoseGameState.obj
 0001:0000e270       ??_Ebad_array_new_length@std@@UAEPAXI@Z 0040f270 f i LoseGameState.obj
 0001:0000e270       ??_Gbad_array_new_length@std@@UAEPAXI@Z 0040f270 f i LoseGameState.obj
 0001:0000e2b0       ??_Gexception@std@@UAEPAXI@Z 0040f2b0 f i LoseGameState.obj
 0001:0000e2b0       ??_Eexception@std@@UAEPAXI@Z 0040f2b0 f i LoseGameState.obj
 0001:0000e2f0       ?_Adjust_manually_vector_aligned@std@@YAXAAPAXAAI@Z 0040f2f0 f i LoseGameState.obj
 0001:0000e430       ?_Adopt@_Iterator_base0@std@@QAEXPBX@Z 0040f430 f i LoseGameState.obj
 0001:0000e440       ?_Adopt@_Iterator_base12@std@@QAEXPBU_Container_base12@2@@Z 0040f440 f i LoseGameState.obj
 0001:0000e4e0       ?_Alloc_sentinel_and_proxy@?$_Tree@V?$_Tmap_traits@V?$basic_string@DU?$char_traits@D@std@@V?$allocator@D@2@@std@@V?$shared_ptr@VRawImageData@@@2@U?$less@V?$basic_string@DU?$char_traits@D@std@@V?$allocator@D@2@@std@@@2@V?$allocator@U?$pair@$$CBV?$basic_string@DU?$char_traits@D@std@@V?$allocator@D@2@@std@@V?$shared_ptr@VRawImageData@@@2@@std@@@2@$0A@@std@@@std@@IAEXXZ 0040f4e0 f i LoseGameState.obj
 0001:0000e5b0       ?_Alloc_sentinel_and_proxy@?$_Tree@V?$_Tmap_traits@V?$basic_string@DU?$char_traits@D@std@@V?$allocator@D@2@@std@@V?$weak_ptr@VRawImageData@@@2@U?$less@V?$basic_string@DU?$char_traits@D@std@@V?$allocator@D@2@@std@@@2@V?$allocator@U?$pair@$$CBV?$basic_string@DU?$char_traits@D@std@@V?$allocator@D@2@@std@@V?$weak_ptr@VRawImageData@@@2@@std@@@2@$0A@@std@@@std@@IAEXXZ 0040f5b0 f i LoseGameState.obj
 0001:0000e680       ?_Allocate@?$_Alloc_construct_ptr@V?$allocator@U?$_Tree_node@U?$pair@$$CBV?$basic_string@DU?$char_traits@D@std@@V?$allocator@D@2@@std@@V?$shared_ptr@VRawImageData@@@2@@std@@PAX@std@@@std@@@std@@QAEXXZ 0040f680 f i LoseGameState.obj
 0001:0000e6b0       ?_Allocate@?$_Alloc_construct_ptr@V?$allocator@U?$_Tree_node@U?$pair@$$CBV?$basic_string@DU?$char_traits@D@std@@V?$allocator@D@2@@std@@V?$weak_ptr@VRawImageData@@@2@@std@@PAX@std@@@std@@@std@@QAEXXZ 0040f6b0 f i LoseGameState.obj
 0001:0000e6e0       ?_Allocate@_Default_allocate_traits@std@@SAPAXI@Z 0040f6e0 f i LoseGameState.obj
 0001:0000e700       ?_Calculate_growth@?$basic_string@DU?$char_traits@D@std@@V?$allocator@D@2@@std@@ABEII@Z 0040f700 f i LoseGameState.obj
 0001:0000e740       ?_Calculate_growth@?$basic_string@DU?$char_traits@D@std@@V?$allocator@D@2@@std@@CAIIII@Z 0040f740 f i LoseGameState.obj
 0001:0000e7b0       ?_Calculate_growth@?$vector@PAVDisplayableObject@@V?$allocator@PAVDisplayableObject@@@std@@@std@@ABEII@Z 0040f7b0 f i LoseGameState.obj
 0001:0000e820       ?_Change_array@?$vector@PAVDisplayableObject@@V?$allocator@PAVDisplayableObject@@@std@@@std@@AAEXQAPAVDisplayableObject@@II@Z 0040f820 f i LoseGameState.obj
 0001:0000e8f0       ?_Check_grow_by_1@?$_Tree@V?$_Tmap_traits@V?$basic_string@DU?$char_traits@D@std@@V?$allocator@D@2@@std@@V?$shared_ptr@VRawImageData@@@2@U?$less@V?$basic_string@DU?$char_traits@D@std@@V?$allocator@D@2@@std@@@2@V?$allocator@U?$pair@$$CBV?$basic_string@DU?$char_traits@D@std@@V?$allocator@D@2@@std@@V?$shared_ptr@VRawImageData@@@2@@std@@@2@$0A@@std@@@std@@IAEXXZ 0040f8f0 f i LoseGameState.obj
 0001:0000e930       ?_Check_grow_by_1@?$_Tree@V?$_Tmap_traits@V?$basic_string@DU?$char_traits@D@std@@V?$allocator@D@2@@std@@V?$weak_ptr@VRawImageData@@@2@U?$less@V?$basic_string@DU?$char_traits@D@std@@V?$allocator@D@2@@std@@@2@V?$allocator@U?$pair@$$CBV?$basic_string@DU?$char_traits@D@std@@V?$allocator@D@2@@std@@V?$weak_ptr@VRawImageData@@@2@@std@@@2@$0A@@std@@@std@@IAEXXZ 0040f930 f i LoseGameState.obj
 0001:0000e970       ?_Construct_lv_contents@?$basic_string@DU?$char_traits@D@std@@V?$allocator@D@2@@std@@AAEXABV12@@Z 0040f970 f i LoseGameState.obj
 0001:0000eaa0       ?_Decref@?$_Ptr_base@VRawImageData@@@std@@IAEXXZ 0040faa0 f i LoseGameState.obj
 0001:0000ead0       ?_Decref@_Ref_count_base@std@@QAEXXZ 0040fad0 f i LoseGameState.obj
 0001:0000eb10       ?_Decwref@?$_Ptr_base@VRawImageData@@@std@@IAEXXZ 0040fb10 f i LoseGameState.obj
 0001:0000eb40       ?_Decwref@_Ref_count_base@std@@QAEXXZ 0040fb40 f i LoseGameState.obj
 0001:0000eb80       ?_Delete_this@?$_Ref_count@VRawImageData@@@std@@EAEXXZ 0040fb80 f i LoseGameState.obj
 0001:0000ebd0       ?_Destroy@?$_Ref_count@VRawImageData@@@std@@EAEXXZ 0040fbd0 f i LoseGameState.obj
 0001:0000ec10       ?_Destroy@?$vector@PAVDisplayableObject@@V?$allocator@PAVDisplayableObject@@@std@@@std@@AAEXPAPAVDisplayableObject@@0@Z 0040fc10 f i LoseGameState.obj
 0001:0000ec40       ?_Erase_unchecked@?$_Tree@V?$_Tmap_traits@V?$basic_string@DU?$char_traits@D@std@@V?$allocator@D@2@@std@@V?$weak_ptr@VRawImageData@@@2@U?$less@V?$basic_string@DU?$char_traits@D@std@@V?$allocator@D@2@@std@@@2@V?$allocator@U?$pair@$$CBV?$basic_string@DU?$char_traits@D@std@@V?$allocator@D@2@@std@@V?$weak_ptr@VRawImageData@@@2@@std@@@2@$0A@@std@@@std@@AAEPAU?$_Tree_node@U?$pair@$$CBV?$basic_string@DU?$char_traits@D@std@@V?$allocator@D@2@@std@@V?$weak_ptr@VRawImageData@@@2@@std@@PAX@2@V?$_Tree_unchecked_const_iterator@V?$_Tree_val@U?$_Tree_simple_types@U?$pair@$$CBV?$basic_string@DU?$char_traits@D@std@@V?$allocator@D@2@@std@@V?$weak_ptr@VRawImageData@@@2@@std@@@std@@@std@@U_Iterator_base0@2@@2@@Z 0040fc40 f i LoseGameState.obj
 0001:0000ecf0       ?_Extract@?$_In_place_key_extract_map@V?$basic_string@DU?$char_traits@D@std@@V?$allocator@D@2@@std@@U?$pair@V?$basic_string@DU?$char_traits@D@std@@V?$allocator@D@2@@std@@V?$shared_ptr@VRawImageData@@@2@@2@@std@@SAABV?$basic_string@DU?$char_traits@D@std@@V?$allocator@D@2@@2@ABU?$pair@V?$basic_string@DU?$char_traits@D@std@@V?$allocator@D@2@@std@@V?$shared_ptr@VRawImageData@@@2@@2@@Z 0040fcf0 f i LoseGameState.obj
 0001:0000ed00       ?_Extract@?$_In_place_key_extract_map@V?$basic_string@DU?$char_traits@D@std@@V?$allocator@D@2@@std@@U?$pair@V?$basic_string@DU?$char_traits@D@std@@V?$allocator@D@2@@std@@V?$weak_ptr@VRawImageData@@@2@@2@@std@@SAABV?$basic_string@DU?$char_traits@D@std@@V?$allocator@D@2@@2@ABU?$pair@V?$basic_string@DU?$char_traits@D@std@@V?$allocator@D@2@@std@@V?$weak_ptr@VRawImageData@@@2@@2@@Z 0040fd00 f i LoseGameState.obj
 0001:0000ed10       ?_Extract@?$_Tree_val@U?$_Tree_simple_types@U?$pair@$$CBV?$basic_string@DU?$char_traits@D@std@@V?$allocator@D@2@@std@@V?$weak_ptr@VRawImageData@@@2@@std@@@std@@@std@@QAEPAU?$_Tree_node@U?$pair@$$CBV?$basic_string@DU?$char_traits@D@std@@V?$allocator@D@2@@std@@V?$weak_ptr@VRawImageData@@@2@@std@@PAX@2@V?$_Tree_unchecked_const_iterator@V?$_Tree_val@U?$_Tree_simple_types@U?$pair@$$CBV?$basic_string@DU?$char_traits@D@std@@V?$allocator@D@2@@std@@V?$weak_ptr@VRawImageData@@@2@@std@@@std@@@std@@U_Iterator_base0@2@@2@@Z 0040fd10 f i LoseGameState.obj
 0001:0000f280       ?_Get_deleter@_Ref_count_base@std@@UBEPAXABVtype_info@@@Z 00410280 f i LoseGameState.obj
 0001:0000f2a0       ?_Get_first@?$_Compressed_pair@U?$less@V?$basic_string@DU?$char_traits@D@std@@V?$allocator@D@2@@std@@@std@@V?$_Compressed_pair@V?$allocator@U?$_Tree_node@U?$pair@$$CBV?$basic_string@DU?$char_traits@D@std@@V?$allocator@D@2@@std@@V?$shared_ptr@VRawImageData@@@2@@std@@PAX@std@@@std@@V?$_Tree_val@U?$_Tree_simple_types@U?$pair@$$CBV?$basic_string@DU?$char_traits@D@std@@V?$allocator@D@2@@std@@V?$shared_ptr@VRawImageData@@@2@@std@@@std@@@2@$00@2@$00@std@@QBEABU?$less@V?$basic_string@DU?$char_traits@D@std@@V?$allocator@D@2@@std@@@2@XZ 004102a0 f i LoseGameState.obj
 0001:0000f2c0       ?_Get_first@?$_Compressed_pair@U?$less@V?$basic_string@DU?$char_traits@D@std@@V?$allocator@D@2@@std@@@std@@V?$_Compressed_pair@V?$allocator@U?$_Tree_node@U?$pair@$$CBV?$basic_string@DU?$char_traits@D@std@@V?$allocator@D@2@@std@@V?$weak_ptr@VRawImageData@@@2@@std@@PAX@std@@@std@@V?$_Tree_val@U?$_Tree_simple_types@U?$pair@$$CBV?$basic_string@DU?$char_traits@D@std@@V?$allocator@D@2@@std@@V?$weak_ptr@VRawImageData@@@2@@std@@@std@@@2@$00@2@$00@std@@QBEABU?$less@V?$basic_string@DU?$char_traits@D@std@@V?$allocator@D@2@@std@@@2@XZ 004102c0 f i LoseGameState.obj
 0001:0000f2e0       ?_Get_first@?$_Compressed_pair@V?$allocator@D@std@@V?$_String_val@U?$_Simple_types@D@std@@@2@$00@std@@QAEAAV?$allocator@D@2@XZ 004102e0 f i LoseGameState.obj
 0001:0000f300       ?_Get_first@?$_Compressed_pair@V?$allocator@D@std@@V?$_String_val@U?$_Simple_types@D@std@@@2@$00@std@@QBEABV?$allocator@D@2@XZ 00410300 f i LoseGameState.obj
 0001:0000f320       ?_Get_first@?$_Compressed_pair@V?$allocator@PAVDisplayableObject@@@std@@V?$_Vector_val@U?$_Simple_types@PAVDisplayableObject@@@std@@@2@$00@std@@QAEAAV?$allocator@PAVDisplayableObject@@@2@XZ 00410320 f i LoseGameState.obj
 0001:0000f340       ?_Get_first@?$_Compressed_pair@V?$allocator@PAVDisplayableObject@@@std@@V?$_Vector_val@U?$_Simple_types@PAVDisplayableObject@@@std@@@2@$00@std@@QBEABV?$allocator@PAVDisplayableObject@@@2@XZ 00410340 f i LoseGameState.obj
 0001:0000f360       ?_Get_first@?$_Compressed_pair@V?$allocator@U?$_Tree_node@U?$pair@$$CBV?$basic_string@DU?$char_traits@D@std@@V?$allocator@D@2@@std@@V?$shared_ptr@VRawImageData@@@2@@std@@PAX@std@@@std@@V?$_Tree_val@U?$_Tree_simple_types@U?$pair@$$CBV?$basic_string@DU?$char_traits@D@std@@V?$allocator@D@2@@std@@V?$shared_ptr@VRawImageData@@@2@@std@@@std@@@2@$00@std@@QAEAAV?$allocator@U?$_Tree_node@U?$pair@$$CBV?$basic_string@DU?$char_traits@D@std@@V?$allocator@D@2@@std@@V?$shared_ptr@VRawImageData@@@2@@std@@PAX@std@@@2@XZ 00410360 f i LoseGameState.obj
 0001:0000f380       ?_Get_first@?$_Compressed_pair@V?$allocator@U?$_Tree_node@U?$pair@$$CBV?$basic_string@DU?$char_traits@D@std@@V?$allocator@D@2@@std@@V?$shared_ptr@VRawImageData@@@2@@std@@PAX@std@@@std@@V?$_Tree_val@U?$_Tree_simple_types@U?$pair@$$CBV?$basic_string@DU?$char_traits@D@std@@V?$allocator@D@2@@std@@V?$shared_ptr@VRawImageData@@@2@@std@@@std@@@2@$00@std@@QBEABV?$allocator@U?$_Tree_node@U?$pair@$$CBV?$basic_string@DU?$char_traits@D@std@@V?$allocator@D@2@@std@@V?$shared_ptr@VRawImageData@@@2@@std@@PAX@std@@@2@XZ 00410380 f i LoseGameState.obj
 0001:0000f3a0       ?_Get_first@?$_Compressed_pair@V?$allocator@U?$_Tree_node@U?$pair@$$CBV?$basic_string@DU?$char_traits@D@std@@V?$allocator@D@2@@std@@V?$weak_ptr@VRawImageData@@@2@@std@@PAX@std@@@std@@V?$_Tree_val@U?$_Tree_simple_types@U?$pair@$$CBV?$basic_string@DU?$char_traits@D@std@@V?$allocator@D@2@@std@@V?$weak_ptr@VRawImageData@@@2@@std@@@std@@@2@$00@std@@QAEAAV?$allocator@U?$_Tree_node@U?$pair@$$CBV?$basic_string@DU?$char_traits@D@std@@V?$allocator@D@2@@std@@V?$weak_ptr@VRawImageData@@@2@@std@@PAX@std@@@2@XZ 004103a0 f i LoseGameState.obj
 0001:0000f3c0       ?_Get_first@?$_Compressed_pair@V?$allocator@U?$_Tree_node@U?$pair@$$CBV?$basic_string@DU?$char_traits@D@std@@V?$allocator@D@2@@std@@V?$weak_ptr@VRawImageData@@@2@@std@@PAX@std@@@std@@V?$_Tree_val@U?$_Tree_simple_types@U?$pair@$$CBV?$basic_string@DU?$char_traits@D@std@@V?$allocator@D@2@@std@@V?$weak_ptr@VRawImageData@@@2@@std@@@std@@@2@$00@std@@QBEABV?$allocator@U?$_Tree_node@U?$pair@$$CBV?$basic_string@DU?$char_traits@D@std@@V?$allocator@D@2@@std@@V?$weak_ptr@VRawImageData@@@2@@std@@PAX@std@@@2@XZ 004103c0 f i LoseGameState.obj
 0001:0000f3e0       ?_Get_scary@?$_Tree@V?$_Tmap_traits@V?$basic_string@DU?$char_traits@D@std@@V?$allocator@D@2@@std@@V?$shared_ptr@VRawImageData@@@2@U?$less@V?$basic_string@DU?$char_traits@D@std@@V?$allocator@D@2@@std@@@2@V?$allocator@U?$pair@$$CBV?$basic_string@DU?$char_traits@D@std@@V?$allocator@D@2@@std@@V?$shared_ptr@VRawImageData@@@2@@std@@@2@$0A@@std@@@std@@IAEPAV?$_Tree_val@U?$_Tree_simple_types@U?$pair@$$CBV?$basic_string@DU?$char_traits@D@std@@V?$allocator@D@2@@std@@V?$shared_ptr@VRawImageData@@@2@@std@@@std@@@2@XZ 004103e0 f i LoseGameState.obj
 0001:0000f400       ?_Get_scary@?$_Tree@V?$_Tmap_traits@V?$basic_string@DU?$char_traits@D@std@@V?$allocator@D@2@@std@@V?$shared_ptr@VRawImageData@@@2@U?$less@V?$basic_string@DU?$char_traits@D@std@@V?$allocator@D@2@@std@@@2@V?$allocator@U?$pair@$$CBV?$basic_string@DU?$char_traits@D@std@@V?$allocator@D@2@@std@@V?$shared_ptr@VRawImageData@@@2@@std@@@2@$0A@@std@@@std@@IBEPBV?$_Tree_val@U?$_Tree_simple_types@U?$pair@$$CBV?$basic_string@DU?$char_traits@D@std@@V?$allocator@D@2@@std@@V?$shared_ptr@VRawImageData@@@2@@std@@@std@@@2@XZ 00410400 f i LoseGameState.obj
 0001:0000f420       ?_Get_scary@?$_Tree@V?$_Tmap_traits@V?$basic_string@DU?$char_traits@D@std@@V?$allocator@D@2@@std@@V?$weak_ptr@VRawImageData@@@2@U?$less@V?$basic_string@DU?$char_traits@D@std@@V?$allocator@D@2@@std@@@2@V?$allocator@U?$pair@$$CBV?$basic_string@DU?$char_traits@D@std@@V?$allocator@D@2@@std@@V?$weak_ptr@VRawImageData@@@2@@std@@@2@$0A@@std@@@std@@IAEPAV?$_Tree_val@U?$_Tree_simple_types@U?$pair@$$CBV?$basic_string@DU?$char_traits@D@std@@V?$allocator@D@2@@std@@V?$weak_ptr@VRawImageData@@@2@@std@@@std@@@2@XZ 00410420 f i LoseGameState.obj
 0001:0000f440       ?_Get_scary@?$_Tree@V?$_Tmap_traits@V?$basic_string@DU?$char_traits@D@std@@V?$allocator@D@2@@std@@V?$weak_ptr@VRawImageData@@@2@U?$less@V?$basic_string@DU?$char_traits@D@std@@V?$allocator@D@2@@std@@@2@V?$allocator@U?$pair@$$CBV?$basic_string@DU?$char_traits@D@std@@V?$allocator@D@2@@std@@V?$weak_ptr@VRawImageData@@@2@@std@@@2@$0A@@std@@@std@@IBEPBV?$_Tree_val@U?$_Tree_simple_types@U?$pair@$$CBV?$basic_string@DU?$char_traits@D@std@@V?$allocator@D@2@@std@@V?$weak_ptr@VRawImageData@@@2@@std@@@std@@@2@XZ 00410440 f i LoseGameState.obj
 0001:0000f460       ?_Getal@?$_Tree@V?$_Tmap_traits@V?$basic_string@DU?$char_traits@D@std@@V?$allocator@D@2@@std@@V?$shared_ptr@VRawImageData@@@2@U?$less@V?$basic_string@DU?$char_traits@D@std@@V?$allocator@D@2@@std@@@2@V?$allocator@U?$pair@$$CBV?$basic_string@DU?$char_traits@D@std@@V?$allocator@D@2@@std@@V?$shared_ptr@VRawImageData@@@2@@std@@@2@$0A@@std@@@std@@IAEAAV?$allocator@U?$_Tree_node@U?$pair@$$CBV?$basic_string@DU?$char_traits@D@std@@V?$allocator@D@2@@std@@V?$shared_ptr@VRawImageData@@@2@@std@@PAX@std@@@2@XZ 00410460 f i LoseGameState.obj
 0001:0000f480       ?_Getal@?$_Tree@V?$_Tmap_traits@V?$basic_string@DU?$char_traits@D@std@@V?$allocator@D@2@@std@@V?$shared_ptr@VRawImageData@@@2@U?$less@V?$basic_string@DU?$char_traits@D@std@@V?$allocator@D@2@@std@@@2@V?$allocator@U?$pair@$$CBV?$basic_string@DU?$char_traits@D@std@@V?$allocator@D@2@@std@@V?$shared_ptr@VRawImageData@@@2@@std@@@2@$0A@@std@@@std@@IBEABV?$allocator@U?$_Tree_node@U?$pair@$$CBV?$basic_string@DU?$char_traits@D@std@@V?$allocator@D@2@@std@@V?$shared_ptr@VRawImageData@@@2@@std@@PAX@std@@@2@XZ 00410480 f i LoseGameState.obj
 0001:0000f4a0       ?_Getal@?$_Tree@V?$_Tmap_traits@V?$basic_string@DU?$char_traits@D@std@@V?$allocator@D@2@@std@@V?$weak_ptr@VRawImageData@@@2@U?$less@V?$basic_string@DU?$char_traits@D@std@@V?$allocator@D@2@@std@@@2@V?$allocator@U?$pair@$$CBV?$basic_string@DU?$char_traits@D@std@@V?$allocator@D@2@@std@@V?$weak_ptr@VRawImageData@@@2@@std@@@2@$0A@@std@@@std@@IAEAAV?$allocator@U?$_Tree_node@U?$pair@$$CBV?$basic_string@DU?$char_traits@D@std@@V?$allocator@D@2@@std@@V?$weak_ptr@VRawImageData@@@2@@std@@PAX@std@@@2@XZ 004104a0 f i LoseGameState.obj
 0001:0000f4c0       ?_Getal@?$_Tree@V?$_Tmap_traits@V?$basic_string@DU?$char_traits@D@std@@V?$allocator@D@2@@std@@V?$weak_ptr@VRawImageData@@@2@U?$less@V?$basic_string@DU?$char_traits@D@std@@V?$allocator@D@2@@std@@@2@V?$allocator@U?$pair@$$CBV?$basic_string@DU?$char_traits@D@std@@V?$allocator@D@2@@std@@V?$weak_ptr@VRawImageData@@@2@@std@@@2@$0A@@std@@@std@@IBEABV?$allocator@U?$_Tree_node@U?$pair@$$CBV?$basic_string@DU?$char_traits@D@std@@V?$allocator@D@2@@std@@V?$weak_ptr@VRawImageData@@@2@@std@@PAX@std@@@2@XZ 004104c0 f i LoseGameState.obj
 0001:0000f4e0       ?_Getal@?$basic_string@DU?$char_traits@D@std@@V?$allocator@D@2@@std@@AAEAAV?$allocator@D@2@XZ 004104e0 f i LoseGameState.obj
 0001:0000f500       ?_Getal@?$basic_string@DU?$char_traits@D@std@@V?$allocator@D@2@@std@@ABEABV?$allocator@D@2@XZ 00410500 f i LoseGameState.obj
 0001:0000f520       ?_Getal@?$vector@PAVDisplayableObject@@V?$allocator@PAVDisplayableObject@@@std@@@std@@AAEAAV?$allocator@PAVDisplayableObject@@@2@XZ 00410520 f i LoseGameState.obj
 0001:0000f540       ?_Getal@?$vector@PAVDisplayableObject@@V?$allocator@PAVDisplayableObject@@@std@@@std@@ABEABV?$allocator@PAVDisplayableObject@@@2@XZ 00410540 f i LoseGameState.obj
 0001:0000f560       ?_Getcomp@?$_Tree@V?$_Tmap_traits@V?$basic_string@DU?$char_traits@D@std@@V?$allocator@D@2@@std@@V?$shared_ptr@VRawImageData@@@2@U?$less@V?$basic_string@DU?$char_traits@D@std@@V?$allocator@D@2@@std@@@2@V?$allocator@U?$pair@$$CBV?$basic_string@DU?$char_traits@D@std@@V?$allocator@D@2@@std@@V?$shared_ptr@VRawImageData@@@2@@std@@@2@$0A@@std@@@std@@IBEABU?$less@V?$basic_string@DU?$char_traits@D@std@@V?$allocator@D@2@@std@@@2@XZ 00410560 f i LoseGameState.obj
 0001:0000f580       ?_Getcomp@?$_Tree@V?$_Tmap_traits@V?$basic_string@DU?$char_traits@D@std@@V?$allocator@D@2@@std@@V?$weak_ptr@VRawImageData@@@2@U?$less@V?$basic_string@DU?$char_traits@D@std@@V?$allocator@D@2@@std@@@2@V?$allocator@U?$pair@$$CBV?$basic_string@DU?$char_traits@D@std@@V?$allocator@D@2@@std@@V?$weak_ptr@VRawImageData@@@2@@std@@@2@$0A@@std@@@std@@IBEABU?$less@V?$basic_string@DU?$char_traits@D@std@@V?$allocator@D@2@@std@@@2@XZ 00410580 f i LoseGameState.obj
 0001:0000f5a0       ?_Getcont@_Iterator_base12@std@@QBEPBU_Container_base12@2@XZ 004105a0 f i LoseGameState.obj
 0001:0000f5e0       ?_Incref@_Ref_count_base@std@@QAEXXZ 004105e0 f i LoseGameState.obj
 0001:0000f600       ?_Incref_nz@_Ref_count_base@std@@QAE_NXZ 00410600 f i LoseGameState.obj
 0001:0000f670       ?_Incwref@_Ref_count_base@std@@QAEXXZ 00410670 f i LoseGameState.obj
 0001:0000f690       ?_Insert_node@?$_Tree_val@U?$_Tree_simple_types@U?$pair@$$CBV?$basic_string@DU?$char_traits@D@std@@V?$allocator@D@2@@std@@V?$shared_ptr@VRawImageData@@@2@@std@@@std@@@std@@QAEPAU?$_Tree_node@U?$pair@$$CBV?$basic_string@DU?$char_traits@D@std@@V?$allocator@D@2@@std@@V?$shared_ptr@VRawImageData@@@2@@std@@PAX@2@U?$_Tree_id@PAU?$_Tree_node@U?$pair@$$CBV?$basic_string@DU?$char_traits@D@std@@V?$allocator@D@2@@std@@V?$shared_ptr@VRawImageData@@@2@@std@@PAX@std@@@2@QAU32@@Z 00410690 f i LoseGameState.obj
 0001:0000f920       ?_Insert_node@?$_Tree_val@U?$_Tree_simple_types@U?$pair@$$CBV?$basic_string@DU?$char_traits@D@std@@V?$allocator@D@2@@std@@V?$weak_ptr@VRawImageData@@@2@@std@@@std@@@std@@QAEPAU?$_Tree_node@U?$pair@$$CBV?$basic_string@DU?$char_traits@D@std@@V?$allocator@D@2@@std@@V?$weak_ptr@VRawImageData@@@2@@std@@PAX@2@U?$_Tree_id@PAU?$_Tree_node@U?$pair@$$CBV?$basic_string@DU?$char_traits@D@std@@V?$allocator@D@2@@std@@V?$weak_ptr@VRawImageData@@@2@@std@@PAX@std@@@2@QAU32@@Z 00410920 f i LoseGameState.obj
 0001:0000fbb0       ?_Large_string_engaged@?$_String_val@U?$_Simple_types@D@std@@@std@@QBE_NXZ 00410bb0 f i LoseGameState.obj
 0001:0000fbf0       ?_Lrotate@?$_Tree_val@U?$_Tree_simple_types@U?$pair@$$CBV?$basic_string@DU?$char_traits@D@std@@V?$allocator@D@2@@std@@V?$shared_ptr@VRawImageData@@@2@@std@@@std@@@std@@QAEXPAU?$_Tree_node@U?$pair@$$CBV?$basic_string@DU?$char_traits@D@std@@V?$allocator@D@2@@std@@V?$shared_ptr@VRawImageData@@@2@@std@@PAX@2@@Z 00410bf0 f i LoseGameState.obj
 0001:0000fcb0       ?_Lrotate@?$_Tree_val@U?$_Tree_simple_types@U?$pair@$$CBV?$basic_string@DU?$char_traits@D@std@@V?$allocator@D@2@@std@@V?$weak_ptr@VRawImageData@@@2@@std@@@std@@@std@@QAEXPAU?$_Tree_node@U?$pair@$$CBV?$basic_string@DU?$char_traits@D@std@@V?$allocator@D@2@@std@@V?$weak_ptr@VRawImageData@@@2@@std@@PAX@2@@Z 00410cb0 f i LoseGameState.obj
 0001:0000fd70       ?_Max@?$_Tree_val@U?$_Tree_simple_types@U?$pair@$$CBV?$basic_string@DU?$char_traits@D@std@@V?$allocator@D@2@@std@@V?$weak_ptr@VRawImageData@@@2@@std@@@std@@@std@@SAPAU?$_Tree_node@U?$pair@$$CBV?$basic_string@DU?$char_traits@D@std@@V?$allocator@D@2@@std@@V?$weak_ptr@VRawImageData@@@2@@std@@PAX@2@PAU32@@Z 00410d70 f i LoseGameState.obj
 0001:0000fda0       ?_Memcpy_val_from@?$basic_string@DU?$char_traits@D@std@@V?$allocator@D@2@@std@@AAEXABV12@@Z 00410da0 f i LoseGameState.obj
 0001:0000fe00       ?_Min@?$_Tree_val@U?$_Tree_simple_types@U?$pair@$$CBV?$basic_string@DU?$char_traits@D@std@@V?$allocator@D@2@@std@@V?$weak_ptr@VRawImageData@@@2@@std@@@std@@@std@@SAPAU?$_Tree_node@U?$pair@$$CBV?$basic_string@DU?$char_traits@D@std@@V?$allocator@D@2@@std@@V?$weak_ptr@VRawImageData@@@2@@std@@PAX@2@PAU32@@Z 00410e00 f i LoseGameState.obj
 0001:0000fe30       ?_Myptr@?$_String_val@U?$_Simple_types@D@std@@@std@@QAEPADXZ 00410e30 f i LoseGameState.obj
 0001:0000fe80       ?_Myptr@?$_String_val@U?$_Simple_types@D@std@@@std@@QBEPBDXZ 00410e80 f i LoseGameState.obj
 0001:0000fed0       ?_Orphan_all@_Container_base12@std@@QAEXXZ 00410ed0 f i LoseGameState.obj
 0001:0000ff50       ?_Orphan_me@_Iterator_base12@std@@QAEXXZ 00410f50 f i LoseGameState.obj
 0001:00010030       ?_Orphan_ptr@?$_Tree_val@U?$_Tree_simple_types@U?$pair@$$CBV?$basic_string@DU?$char_traits@D@std@@V?$allocator@D@2@@std@@V?$weak_ptr@VRawImageData@@@2@@std@@@std@@@std@@QAEXQAU?$_Tree_node@U?$pair@$$CBV?$basic_string@DU?$char_traits@D@std@@V?$allocator@D@2@@std@@V?$weak_ptr@VRawImageData@@@2@@std@@PAX@2@@Z 00411030 f i LoseGameState.obj
 0001:000100e0       ?_Orphan_range@?$vector@PAVDisplayableObject@@V?$allocator@PAVDisplayableObject@@@std@@@std@@ABEXPAPAVDisplayableObject@@0@Z 004110e0 f i LoseGameState.obj
 0001:00010180       ?_Release@?$_Alloc_construct_ptr@V?$allocator@U?$_Tree_node@U?$pair@$$CBV?$basic_string@DU?$char_traits@D@std@@V?$allocator@D@2@@std@@V?$shared_ptr@VRawImageData@@@2@@std@@PAX@std@@@std@@@std@@QAEPAU?$_Tree_node@U?$pair@$$CBV?$basic_string@DU?$char_traits@D@std@@V?$allocator@D@2@@std@@V?$shared_ptr@VRawImageData@@@2@@std@@PAX@2@XZ 00411180 f i LoseGameState.obj
 0001:000101b0       ?_Release@?$_Alloc_construct_ptr@V?$allocator@U?$_Tree_node@U?$pair@$$CBV?$basic_string@DU?$char_traits@D@std@@V?$allocator@D@2@@std@@V?$weak_ptr@VRawImageData@@@2@@std@@PAX@std@@@std@@@std@@QAEPAU?$_Tree_node@U?$pair@$$CBV?$basic_string@DU?$char_traits@D@std@@V?$allocator@D@2@@std@@V?$weak_ptr@VRawImageData@@@2@@std@@PAX@2@XZ 004111b0 f i LoseGameState.obj
 0001:000101e0       ?_Release@_Basic_container_proxy_ptr12@std@@QAEXXZ 004111e0 f i LoseGameState.obj
 0001:00010200       ?_Rrotate@?$_Tree_val@U?$_Tree_simple_types@U?$pair@$$CBV?$basic_string@DU?$char_traits@D@std@@V?$allocator@D@2@@std@@V?$shared_ptr@VRawImageData@@@2@@std@@@std@@@std@@QAEXPAU?$_Tree_node@U?$pair@$$CBV?$basic_string@DU?$char_traits@D@std@@V?$allocator@D@2@@std@@V?$shared_ptr@VRawImageData@@@2@@std@@PAX@2@@Z 00411200 f i LoseGameState.obj
 0001:000102d0       ?_Rrotate@?$_Tree_val@U?$_Tree_simple_types@U?$pair@$$CBV?$basic_string@DU?$char_traits@D@std@@V?$allocator@D@2@@std@@V?$weak_ptr@VRawImageData@@@2@@std@@@std@@@std@@QAEXPAU?$_Tree_node@U?$pair@$$CBV?$basic_string@DU?$char_traits@D@std@@V?$allocator@D@2@@std@@V?$weak_ptr@VRawImageData@@@2@@std@@PAX@2@@Z 004112d0 f i LoseGameState.obj
 0001:000103a0       ?_Swap_proxy_and_iterators@?$basic_string@DU?$char_traits@D@std@@V?$allocator@D@2@@std@@AAEXAAV12@@Z 004113a0 f i LoseGameState.obj
 0001:000103c0       ?_Swap_proxy_and_iterators@_Container_base12@std@@QAEXAAU12@@Z 004113c0 f i LoseGameState.obj
 0001:00010440       ?_Take_contents@?$basic_string@DU?$char_traits@D@std@@V?$allocator@D@2@@std@@AAEXAAV12@U?$integral_constant@_N$00@2@@Z 00411440 f i LoseGameState.obj
 0001:000104d0       ?_Throw_bad_array_new_length@std@@YAXXZ 004114d0 f i LoseGameState.obj
 0001:00010500       ?_Throw_tree_length_error@std@@YAXXZ 00411500 f i LoseGameState.obj
 0001:00010520       ?_Tidy_deallocate@?$basic_string@DU?$char_traits@D@std@@V?$allocator@D@2@@std@@AAEXXZ 00411520 f i LoseGameState.obj
 0001:00010610       ?_Tidy_init@?$basic_string@DU?$char_traits@D@std@@V?$allocator@D@2@@std@@AAEXXZ 00411610 f i LoseGameState.obj
 0001:00010670       ?_Ufill@?$vector@PAVDisplayableObject@@V?$allocator@PAVDisplayableObject@@@std@@@std@@AAEPAPAVDisplayableObject@@PAPAV3@IU_Value_init_tag@2@@Z 00411670 f i LoseGameState.obj
 0001:000106a0       ?_Umove_if_noexcept1@?$vector@PAVDisplayableObject@@V?$allocator@PAVDisplayableObject@@@std@@@std@@AAEXPAPAVDisplayableObject@@00U?$integral_constant@_N$00@2@@Z 004116a0 f i LoseGameState.obj
 0001:000106e0       ?_Umove_if_noexcept@?$vector@PAVDisplayableObject@@V?$allocator@PAVDisplayableObject@@@std@@@std@@AAEXPAPAVDisplayableObject@@00@Z 004116e0 f i LoseGameState.obj
 0001:00010720       ?_Unwrapped@?$_Tree_iterator@V?$_Tree_val@U?$_Tree_simple_types@U?$pair@$$CBV?$basic_string@DU?$char_traits@D@std@@V?$allocator@D@2@@std@@V?$weak_ptr@VRawImageData@@@2@@std@@@std@@@std@@@std@@QBE?AV?$_Tree_unchecked_iterator@V?$_Tree_val@U?$_Tree_simple_types@U?$pair@$$CBV?$basic_string@DU?$char_traits@D@std@@V?$allocator@D@2@@std@@V?$weak_ptr@VRawImageData@@@2@@std@@@std@@@std@@@2@XZ 00411720 f i LoseGameState.obj
 0001:00010760       ?_Use_count@_Ref_count_base@std@@QBEJXZ 00411760 f i LoseGameState.obj
 0001:00010780       ?_Xlen@?$basic_string@DU?$char_traits@D@std@@V?$allocator@D@2@@std@@CAXXZ 00411780 f i LoseGameState.obj
 0001:000107a0       ?_Xlength@?$vector@PAVDisplayableObject@@V?$allocator@PAVDisplayableObject@@@std@@@std@@CAXXZ 004117a0 f i LoseGameState.obj
 0001:000107c0       ?__empty_global_delete@@YAXPAX@Z 004117c0 f i LoseGameState.obj
 0001:000107d0       ?__empty_global_delete@@YAXPAXI@Z 004117d0 f i LoseGameState.obj
 0001:000107d0       ?__global_delete@@YAXPAXI@Z 004117d0 f i LoseGameState.obj
 0001:000107e0       ?allocate@?$allocator@D@std@@QAEPADI@Z 004117e0 f i LoseGameState.obj
 0001:00010810       ?allocate@?$allocator@PAVDisplayableObject@@@std@@QAEPAPAVDisplayableObject@@I@Z 00411810 f i LoseGameState.obj
 0001:00010840       ?allocate@?$allocator@U?$_Tree_node@U?$pair@$$CBV?$basic_string@DU?$char_traits@D@std@@V?$allocator@D@2@@std@@V?$shared_ptr@VRawImageData@@@2@@std@@PAX@std@@@std@@QAEPAU?$_Tree_node@U?$pair@$$CBV?$basic_string@DU?$char_traits@D@std@@V?$allocator@D@2@@std@@V?$shared_ptr@VRawImageData@@@2@@std@@PAX@2@I@Z 00411840 f i LoseGameState.obj
 0001:00010870       ?allocate@?$allocator@U?$_Tree_node@U?$pair@$$CBV?$basic_string@DU?$char_traits@D@std@@V?$allocator@D@2@@std@@V?$weak_ptr@VRawImageData@@@2@@std@@PAX@std@@@std@@QAEPAU?$_Tree_node@U?$pair@$$CBV?$basic_string@DU?$char_traits@D@std@@V?$allocator@D@2@@std@@V?$weak_ptr@VRawImageData@@@2@@std@@PAX@2@I@Z 00411870 f i LoseGameState.obj
 0001:000108a0       ?allocate@?$allocator@U_Container_proxy@std@@@std@@QAEPAU_Container_proxy@2@I@Z 004118a0 f i LoseGameState.obj
 0001:000108d0       ?assign@?$_Narrow_char_traits@DH@std@@SAXAADABD@Z 004118d0 f i LoseGameState.obj
 0001:000108f0       ?assign@?$basic_string@DU?$char_traits@D@std@@V?$allocator@D@2@@std@@QAEAAV12@QBD@Z 004118f0 f i LoseGameState.obj
 0001:00010930       ?assign@?$basic_string@DU?$char_traits@D@std@@V?$allocator@D@2@@std@@QAEAAV12@QBDI@Z 00411930 f i LoseGameState.obj
 0001:000109d0       ?c_str@?$basic_string@DU?$char_traits@D@std@@V?$allocator@D@2@@std@@QBEPBDXZ 004119d0 f i LoseGameState.obj
 0001:00010a20       ?capacity@?$vector@PAVDisplayableObject@@V?$allocator@PAVDisplayableObject@@@std@@@std@@QBEIXZ 00411a20 f i LoseGameState.obj
 0001:00010a50       ?changePixelColour@CoordinateMapping@@UAE_NHHAAHPAVDrawingSurface@@@Z 00411a50 f i LoseGameState.obj
 0001:00010a70       ?changePixelColour@GameImageObject@@UAE_NHHAAHPAVDrawingSurface@@@Z 00411a70 f i LoseGameState.obj
 0001:00010ac0       ?checkDoDrag@DragableBaseClassObject@@UAEXHH@Z 00411ac0 f i LoseGameState.obj
 0001:00010b40       ?checkFinishDrag@DragableBaseClassObject@@UAEXHH@Z 00411b40 f i LoseGameState.obj
 0001:00010b80       ?checkStartDrag@DragableBaseClassObject@@UAEXHH@Z 00411b80 f i LoseGameState.obj
 0001:00010c00       ?clear@?$vector@PAVDisplayableObject@@V?$allocator@PAVDisplayableObject@@@std@@@std@@QAEXXZ 00411c00 f i LoseGameState.obj
 0001:00010ca0       ?clearContents@DisplayableObjectContainer@@QAEXXZ 00411ca0 f i LoseGameState.obj
 0001:00010ce0       ?closeDevice@Sound@@QAEXXZ 00411ce0 f i LoseGameState.obj
 0001:00010d00       ?compare@?$_Narrow_char_traits@DH@std@@SAHQBD0I@Z 00411d00 f i LoseGameState.obj
 0001:00010d20       ?compare@?$basic_string@DU?$char_traits@D@std@@V?$allocator@D@2@@std@@QBEHABV12@@Z 00411d20 f i LoseGameState.obj
 0001:00010da0       ?copy@?$_Narrow_char_traits@DH@std@@SAPADQADQBDI@Z 00411da0 f i LoseGameState.obj
 0001:00010dc0       ?createObjectArray@DisplayableObjectContainer@@QAEXH@Z 00411dc0 f i LoseGameState.obj
 0001:00010e10       ?data@?$basic_string@DU?$char_traits@D@std@@V?$allocator@D@2@@std@@QBEPBDXZ 00411e10 f i LoseGameState.obj
 0001:00010e60       ?deallocate@?$_Default_allocator_traits@V?$allocator@U?$_Tree_node@U?$pair@$$CBV?$basic_string@DU?$char_traits@D@std@@V?$allocator@D@2@@std@@V?$shared_ptr@VRawImageData@@@2@@std@@PAX@std@@@std@@@std@@SAXAAV?$allocator@U?$_Tree_node@U?$pair@$$CBV?$basic_string@DU?$char_traits@D@std@@V?$allocator@D@2@@std@@V?$shared_ptr@VRawImageData@@@2@@std@@PAX@std@@@2@QAU?$_Tree_node@U?$pair@$$CBV?$basic_string@DU?$char_traits@D@std@@V?$allocator@D@2@@std@@V?$shared_ptr@VRawImageData@@@2@@std@@PAX@2@I@Z 00411e60 f i LoseGameState.obj
 0001:00010e80       ?deallocate@?$_Default_allocator_traits@V?$allocator@U?$_Tree_node@U?$pair@$$CBV?$basic_string@DU?$char_traits@D@std@@V?$allocator@D@2@@std@@V?$weak_ptr@VRawImageData@@@2@@std@@PAX@std@@@std@@@std@@SAXAAV?$allocator@U?$_Tree_node@U?$pair@$$CBV?$basic_string@DU?$char_traits@D@std@@V?$allocator@D@2@@std@@V?$weak_ptr@VRawImageData@@@2@@std@@PAX@std@@@2@QAU?$_Tree_node@U?$pair@$$CBV?$basic_string@DU?$char_traits@D@std@@V?$allocator@D@2@@std@@V?$weak_ptr@VRawImageData@@@2@@std@@PAX@2@I@Z 00411e80 f i LoseGameState.obj
 0001:00010ea0       ?deallocate@?$_Default_allocator_traits@V?$allocator@U_Container_proxy@std@@@std@@@std@@SAXAAV?$allocator@U_Container_proxy@std@@@2@QAU_Container_proxy@2@I@Z 00411ea0 f i LoseGameState.obj
 0001:00010ec0       ?deallocate@?$allocator@D@std@@QAEXQADI@Z 00411ec0 f i LoseGameState.obj
 0001:00010ef0       ?deallocate@?$allocator@PAVDisplayableObject@@@std@@QAEXQAPAVDisplayableObject@@I@Z 00411ef0 f i LoseGameState.obj
 0001:00010f20       ?deallocate@?$allocator@U?$_Tree_node@U?$pair@$$CBV?$basic_string@DU?$char_traits@D@std@@V?$allocator@D@2@@std@@V?$shared_ptr@VRawImageData@@@2@@std@@PAX@std@@@std@@QAEXQAU?$_Tree_node@U?$pair@$$CBV?$basic_string@DU?$char_traits@D@std@@V?$allocator@D@2@@std@@V?$shared_ptr@VRawImageData@@@2@@std@@PAX@2@I@Z 00411f20 f i LoseGameState.obj
 0001:00010f50       ?deallocate@?$allocator@U?$_Tree_node@U?$pair@$$CBV?$basic_string@DU?$char_traits@D@std@@V?$allocator@D@2@@std@@V?$weak_ptr@VRawImageData@@@2@@std@@PAX@std@@@std@@QAEXQAU?$_Tree_node@U?$pair@$$CBV?$basic_string@DU?$char_traits@D@std@@V?$allocator@D@2@@std@@V?$weak_ptr@VRawImageData@@@2@@std@@PAX@2@I@Z 00411f50 f i LoseGameState.obj
 0001:00010f80       ?deleteOnRemoval@DisplayableObject@@UBE_NXZ 00411f80 f i LoseGameState.obj
 0001:00010fa0       ?doDragRedraw@DragableBaseClassObject@@UAEXXZ 00411fa0 f i LoseGameState.obj
 0001:00010fc0       ?drawForegroundString@BaseEngine@@QAEXHHPBDIPAVFont@@@Z 00411fc0 f i LoseGameState.obj
 0001:00011000       ?drawStringsOnTop@EngineState@@UAEXXZ 00412000 f i LoseGameState.obj
 0001:00011010       ?drawableObjectsChanged@DisplayableObjectContainer@@QAEXXZ 00412010 f i LoseGameState.obj
 0001:00011030       ?empty@?$basic_string@DU?$char_traits@D@std@@V?$allocator@D@2@@std@@QBE_NXZ 00412030 f i LoseGameState.obj
 0001:00011070       ?end@?$_Tree@V?$_Tmap_traits@V?$basic_string@DU?$char_traits@D@std@@V?$allocator@D@2@@std@@V?$weak_ptr@VRawImageData@@@2@U?$less@V?$basic_string@DU?$char_traits@D@std@@V?$allocator@D@2@@std@@@2@V?$allocator@U?$pair@$$CBV?$basic_string@DU?$char_traits@D@std@@V?$allocator@D@2@@std@@V?$weak_ptr@VRawImageData@@@2@@std@@@2@$0A@@std@@@std@@QAE?AV?$_Tree_iterator@V?$_Tree_val@U?$_Tree_simple_types@U?$pair@$$CBV?$basic_string@DU?$char_traits@D@std@@V?$allocator@D@2@@std@@V?$weak_ptr@VRawImageData@@@2@@std@@@std@@@std@@@2@XZ 00412070 f i LoseGameState.obj
 0001:000110b0       ?eof@?$_Narrow_char_traits@DH@std@@SAHXZ 004120b0 f i LoseGameState.obj
 0001:000110c0       ?eq_int_type@?$_Narrow_char_traits@DH@std@@SA_NABH0@Z 004120c0 f i LoseGameState.obj
 0001:000110f0       ?expired@?$weak_ptr@VRawImageData@@@std@@QBE_NXZ 004120f0 f i LoseGameState.obj
 0001:00011130       ?find@?$_Tree@V?$_Tmap_traits@V?$basic_string@DU?$char_traits@D@std@@V?$allocator@D@2@@std@@V?$weak_ptr@VRawImageData@@@2@U?$less@V?$basic_string@DU?$char_traits@D@std@@V?$allocator@D@2@@std@@@2@V?$allocator@U?$pair@$$CBV?$basic_string@DU?$char_traits@D@std@@V?$allocator@D@2@@std@@V?$weak_ptr@VRawImageData@@@2@@std@@@2@$0A@@std@@@std@@QAE?AV?$_Tree_iterator@V?$_Tree_val@U?$_Tree_simple_types@U?$pair@$$CBV?$basic_string@DU?$char_traits@D@std@@V?$allocator@D@2@@std@@V?$weak_ptr@VRawImageData@@@2@@std@@@std@@@std@@@2@ABV?$basic_string@DU?$char_traits@D@std@@V?$allocator@D@2@@2@@Z 00412130 f i LoseGameState.obj
 0001:00011180       ?freeSurface@RawImageData@@QAEXXZ 00412180 f i LoseGameState.obj
 0001:000111c0       ?get@?$_Ptr_base@VRawImageData@@@std@@IBEPAVRawImageData@@XZ 004121c0 f i LoseGameState.obj
 0001:000111e0       ?get@ImageManager@@SAPAV1@XZ 004121e0 f i LoseGameState.obj
 0001:00011290       ?getEngine@DisplayableObject@@QBEPAVBaseEngine@@XZ 00412290 f i LoseGameState.obj
 0001:000112b0       ?getEngine@EngineState@@QAEPAVBaseEngine@@XZ 004122b0 f i LoseGameState.obj
 0001:000112d0       ?getForegroundSurface@BaseEngine@@QAEPAVDrawingSurface@@XZ 004122d0 f i LoseGameState.obj
 0001:000112f0       ?getHeight@RawImageData@@QBEHXZ 004122f0 f i LoseGameState.obj
 0001:00011310       ?getHeight@SimpleImage@@QBEHXZ 00412310 f i LoseGameState.obj
 0001:00011340       ?getImagePtrbyURL@ImageManager@@QAE?AV?$shared_ptr@VRawImageData@@@std@@V?$basic_string@DU?$char_traits@D@std@@V?$allocator@D@2@@3@_N1@Z 00412340 f i LoseGameState.obj
 0001:00011790       ?getImagebyURL@ImageManager@@QAE?AVSimpleImage@@V?$basic_string@DU?$char_traits@D@std@@V?$allocator@D@2@@std@@_N1@Z 00412790 f i LoseGameState.obj
 0001:00011860       ?getLoseGameText@EzyjddEngineCW4@@QBEABV?$vector@V?$basic_string@DU?$char_traits@D@std@@V?$allocator@D@2@@std@@V?$allocator@V?$basic_string@DU?$char_traits@D@std@@V?$allocator@D@2@@std@@@2@@std@@XZ 00412860 f i LoseGameState.obj
 0001:00011880       ?getRotation@CoordinateMappingRotate@@QAENXZ 00412880 f i LoseGameState.obj
 0001:000118a0       ?getWidth@RawImageData@@QBEHXZ 004128a0 f i LoseGameState.obj
 0001:000118c0       ?getWidth@SimpleImage@@QBEHXZ 004128c0 f i LoseGameState.obj
 0001:000118f0       ?getWindowHeight@BaseEngine@@QBEHXZ 004128f0 f i LoseGameState.obj
 0001:00011910       ?getXForRotationAndCrop@RawImageData@@SAHHHHHHH@Z 00412910 f i LoseGameState.obj
 0001:00011980       ?getYForRotationAndCrop@RawImageData@@SAHHHHHHH@Z 00412980 f i LoseGameState.obj
 0001:000119f0       ?isVisible@DisplayableObject@@QBE_NXZ 004129f0 f i LoseGameState.obj
 0001:00011a10       ?length@?$_Narrow_char_traits@DH@std@@SAIQBD@Z 00412a10 f i LoseGameState.obj
 0001:00011a30       ?load@Sound@@QAEXABV?$basic_string@DU?$char_traits@D@std@@V?$allocator@D@2@@std@@@Z 00412a30 f i LoseGameState.obj
 0001:00011a80       ?loadAsNew@ImageManager@@QAE?AV?$shared_ptr@VRawImageData@@@std@@V?$basic_string@DU?$char_traits@D@std@@V?$allocator@D@2@@3@@Z 00412a80 f i LoseGameState.obj
 0001:00011c40       ?loadImage@RawImageData@@QAE_NV?$basic_string@DU?$char_traits@D@std@@V?$allocator@D@2@@std@@HHHHH_N@Z 00412c40 f i LoseGameState.obj
 0001:00011f50       ?lock@?$weak_ptr@VRawImageData@@@std@@QBE?AV?$shared_ptr@VRawImageData@@@2@XZ 00412f50 f i LoseGameState.obj
 0001:00011fa0       ?mainLoopPostUpdate@EngineState@@UAEXXZ 00412fa0 f i LoseGameState.obj
 0001:00011fb0       ?mapCoordinates@CoordinateMappingRotate@@UAE_NAAN0ABVSimpleImage@@@Z 00412fb0 f i LoseGameState.obj
 0001:000122a0       ?mapCoordinates@GameImageObject@@UAE_NAAN0ABVSimpleImage@@@Z 004132a0 f i LoseGameState.obj
 0001:00012590       ?max@?$numeric_limits@H@std@@SAHXZ 00413590 f i LoseGameState.obj
 0001:000125a0       ?max_size@?$_Default_allocator_traits@V?$allocator@D@std@@@std@@SAIABV?$allocator@D@2@@Z 004135a0 f i LoseGameState.obj
 0001:000125b0       ?max_size@?$_Default_allocator_traits@V?$allocator@PAVDisplayableObject@@@std@@@std@@SAIABV?$allocator@PAVDisplayableObject@@@2@@Z 004135b0 f i LoseGameState.obj
 0001:000125c0       ?max_size@?$_Default_allocator_traits@V?$allocator@U?$_Tree_node@U?$pair@$$CBV?$basic_string@DU?$char_traits@D@std@@V?$allocator@D@2@@std@@V?$shared_ptr@VRawImageData@@@2@@std@@PAX@std@@@std@@@std@@SAIABV?$allocator@U?$_Tree_node@U?$pair@$$CBV?$basic_string@DU?$char_traits@D@std@@V?$allocator@D@2@@std@@V?$shared_ptr@VRawImageData@@@2@@std@@PAX@std@@@2@@Z 004135c0 f i LoseGameState.obj
 0001:000125d0       ?max_size@?$_Default_allocator_traits@V?$allocator@U?$_Tree_node@U?$pair@$$CBV?$basic_string@DU?$char_traits@D@std@@V?$allocator@D@2@@std@@V?$weak_ptr@VRawImageData@@@2@@std@@PAX@std@@@std@@@std@@SAIABV?$allocator@U?$_Tree_node@U?$pair@$$CBV?$basic_string@DU?$char_traits@D@std@@V?$allocator@D@2@@std@@V?$weak_ptr@VRawImageData@@@2@@std@@PAX@std@@@2@@Z 004135d0 f i LoseGameState.obj
 0001:000125e0       ?max_size@?$_Tree@V?$_Tmap_traits@V?$basic_string@DU?$char_traits@D@std@@V?$allocator@D@2@@std@@V?$shared_ptr@VRawImageData@@@2@U?$less@V?$basic_string@DU?$char_traits@D@std@@V?$allocator@D@2@@std@@@2@V?$allocator@U?$pair@$$CBV?$basic_string@DU?$char_traits@D@std@@V?$allocator@D@2@@std@@V?$shared_ptr@VRawImageData@@@2@@std@@@2@$0A@@std@@@std@@QBEIXZ 004135e0 f i LoseGameState.obj
 0001:00012630       ?max_size@?$_Tree@V?$_Tmap_traits@V?$basic_string@DU?$char_traits@D@std@@V?$allocator@D@2@@std@@V?$weak_ptr@VRawImageData@@@2@U?$less@V?$basic_string@DU?$char_traits@D@std@@V?$allocator@D@2@@std@@@2@V?$allocator@U?$pair@$$CBV?$basic_string@DU?$char_traits@D@std@@V?$allocator@D@2@@std@@V?$weak_ptr@VRawImageData@@@2@@std@@@2@$0A@@std@@@std@@QBEIXZ 00413630 f i LoseGameState.obj
 0001:00012680       ?max_size@?$basic_string@DU?$char_traits@D@std@@V?$allocator@D@2@@std@@QBEIXZ 00413680 f i LoseGameState.obj
 0001:00012700       ?max_size@?$vector@PAVDisplayableObject@@V?$allocator@PAVDisplayableObject@@@std@@@std@@QBEIXZ 00413700 f i LoseGameState.obj
 0001:00012750       ?move@?$_Narrow_char_traits@DH@std@@SAPADQADQBDI@Z 00413750 f i LoseGameState.obj
 0001:00012770       ?notifyObjectsAboutKeys@BaseEngine@@QAEX_N@Z 00413770 f i LoseGameState.obj
 0001:00012790       ?notifyObjectsAboutMouse@BaseEngine@@QAEX_N@Z 00413790 f i LoseGameState.obj
 0001:000127b0       ?openDevice@Sound@@QAEXXZ  004137b0 f i LoseGameState.obj
 0001:000127e0       ?play@Sound@@QAEXXZ        004137e0 f i LoseGameState.obj
 0001:00012830       ?pointer_to@?$pointer_traits@PAU?$pair@$$CBV?$basic_string@DU?$char_traits@D@std@@V?$allocator@D@2@@std@@V?$weak_ptr@VRawImageData@@@2@@std@@@std@@SAPAU?$pair@$$CBV?$basic_string@DU?$char_traits@D@std@@V?$allocator@D@2@@std@@V?$weak_ptr@VRawImageData@@@2@@2@AAU32@@Z 00413830 f i LoseGameState.obj
 0001:00012850       ?prepareState@EngineState@@UAEXXZ 00413850 f i LoseGameState.obj
 0001:00012860       ?resetOptions@ImageManager@@QAEXXZ 00413860 f i LoseGameState.obj
 0001:000128a0       ?resize@?$vector@PAVDisplayableObject@@V?$allocator@PAVDisplayableObject@@@std@@@std@@QAEXI@Z 004138a0 f i LoseGameState.obj
 0001:000128d0       ?select_on_container_copy_construction@?$_Default_allocator_traits@V?$allocator@D@std@@@std@@SA?AV?$allocator@D@2@ABV32@@Z 004138d0 f i LoseGameState.obj
 0001:000128e0       ?setPosition@DisplayableObject@@UAEXHH@Z 004138e0 f i LoseGameState.obj
 0001:00012920       ?setPosition@GameImageObject@@EAEXHH@Z 00413920 f i LoseGameState.obj
 0001:00012950       ?setVisible@DisplayableObject@@QAEX_N@Z 00413950 f i LoseGameState.obj
 0001:00012970       ?size@?$basic_string@DU?$char_traits@D@std@@V?$allocator@D@2@@std@@QBEIXZ 00413970 f i LoseGameState.obj
 0001:00012990       ?size@?$vector@V?$basic_string@DU?$char_traits@D@std@@V?$allocator@D@2@@std@@V?$allocator@V?$basic_string@DU?$char_traits@D@std@@V?$allocator@D@2@@std@@@2@@std@@QBEIXZ 00413990 f i LoseGameState.obj
 0001:000129c0       ?stop@Sound@@QAEXXZ        004139c0 f i LoseGameState.obj
 0001:000129e0       ?storeObjectInArray@DisplayableObjectContainer@@QAEXHPAVDisplayableObject@@@Z 004139e0 f i LoseGameState.obj
 0001:00012a20       ?use_count@?$_Ptr_base@VRawImageData@@@std@@QBEJXZ 00413a20 f i LoseGameState.obj
 0001:00012a60       ?virtDoUpdate@ScrollingTextObject@@UAEXH@Z 00413a60 f i LoseGameState.obj
 0001:00012af0       ?virtDoUpdate@SimpleTextObject@@UAEXH@Z 00413af0 f i LoseGameState.obj
 0001:00012b10       ?virtDraw@DragableImageObject@@UAEXXZ 00413b10 f i LoseGameState.obj
 0001:00012b90       ?virtDraw@MappableImageObject@@UAEXXZ 00413b90 f i LoseGameState.obj
 0001:00012c20       ?virtDraw@ScrollingTextObject@@UAEXXZ 00413c20 f i LoseGameState.obj
 0001:00012c90       ?virtDraw@SimpleTextObject@@UAEXXZ 00413c90 f i LoseGameState.obj
 0001:00012d00       ?virtIsPositionWithinObject@DisplayableObject@@UAE_NHH@Z 00413d00 f i LoseGameState.obj
 0001:00012d90       ?virtKeyDown@DisplayableObject@@UAEXH@Z 00413d90 f i LoseGameState.obj
 0001:00012da0       ?virtKeyUp@DisplayableObject@@UAEXH@Z 00413da0 f i LoseGameState.obj
 0001:00012db0       ?virtMouseDown@DisplayableObject@@UAEXHHH@Z 00413db0 f i LoseGameState.obj
 0001:00012dc0       ?virtMouseDown@DragableImageObject@@UAEXHHH@Z 00413dc0 f i LoseGameState.obj
 0001:00012df0       ?virtMouseDown@GameImageObject@@UAEXHHH@Z 00413df0 f i LoseGameState.obj
 0001:00012e30       ?virtMouseMoved@DisplayableObject@@UAEXHH@Z 00413e30 f i LoseGameState.obj
 0001:00012e40       ?virtMouseMoved@DragableImageObject@@UAEXHH@Z 00413e40 f i LoseGameState.obj
 0001:00012e70       ?virtMouseUp@DisplayableObject@@UAEXHHH@Z 00413e70 f i LoseGameState.obj
 0001:00012e80       ?virtMouseUp@DragableImageObject@@UAEXHHH@Z 00413e80 f i LoseGameState.obj
 0001:00012eb0       ?virtNotify@DisplayableObject@@UAEJHHH@Z 00413eb0 f i LoseGameState.obj
 0001:00012ed0       ?virtSingleItemMouseDown@DisplayableObject@@UAE_NHHH@Z 00413ed0 f i LoseGameState.obj
 0001:00012ef0       ?what@exception@std@@UBEPBDXZ 00413ef0 f i LoseGameState.obj
 0001:00012f30       ___local_stdio_printf_options 00413f30 f i LoseGameState.obj
 0001:00012f40       __vfprintf_l               00413f40 f i LoseGameState.obj
 0001:00012f80       _printf                    00413f80 f i LoseGameState.obj
 0001:00012fd0       ??0ZoomInFirstState@@QAE@PAVBaseEngine@@@Z 00413fd0 f   ZoomInFirstState.obj
 0001:000130d0       ??1ZoomInFirstState@@UAE@XZ 004140d0 f   ZoomInFirstState.obj
 0001:00013100       ?prepareState@ZoomInFirstState@@UAEXXZ 00414100 f   ZoomInFirstState.obj
 0001:00013120       ?initialiseObjects@ZoomInFirstState@@UAEHXZ 00414120 f   ZoomInFirstState.obj
 0001:00013360       ?updateAllObjects@ZoomInFirstState@@UAEXH@Z 00414360 f   ZoomInFirstState.obj
 0001:00013530       ?setupBackgroundBuffer@ZoomInFirstState@@UAEXXZ 00414530 f   ZoomInFirstState.obj
 0001:000136c0       ??0FilterPoints@@QAE@XZ    004146c0 f i ZoomInFirstState.obj
 0001:000136e0       ??0FilterPointsScaling@@QAE@HHPAVFilterPoints@@@Z 004146e0 f i ZoomInFirstState.obj
 0001:00013760       ??0FilterPointsTranslation@@QAE@HHPAVFilterPoints@@@Z 00414760 f i ZoomInFirstState.obj
 0001:000137b0       ??_GZoomInFirstState@@UAEPAXI@Z 004147b0 f i ZoomInFirstState.obj
 0001:000137b0       ??_EZoomInFirstState@@UAEPAXI@Z 004147b0 f i ZoomInFirstState.obj
 0001:000137f0       ?changeOffset@FilterPointsTranslation@@QAEXHH@Z 004147f0 f i ZoomInFirstState.obj
 0001:00013830       ?checkWritable@DrawingSurface@@QAEXXZ 00414830 f i ZoomInFirstState.obj
 0001:00013880       ?compress@FilterPointsScaling@@QAEXXZ 00414880 f i ZoomInFirstState.obj
 0001:000138b0       ?compressX@FilterPointsScaling@@QAEXXZ 004148b0 f i ZoomInFirstState.obj
 0001:00013900       ?compressY@FilterPointsScaling@@QAEXXZ 00414900 f i ZoomInFirstState.obj
 0001:00013950       ?convertClickedToVirtualPixelXPosition@BaseEngine@@QAEHH@Z 00414950 f i ZoomInFirstState.obj
 0001:00013980       ?convertClickedToVirtualPixelYPosition@BaseEngine@@QAEHH@Z 00414980 f i ZoomInFirstState.obj
 0001:000139b0       ?convertRealToVirtualXPosition@DrawingSurface@@QAEHH@Z 004149b0 f i ZoomInFirstState.obj
 0001:000139f0       ?convertRealToVirtualYPosition@DrawingSurface@@QAEHH@Z 004149f0 f i ZoomInFirstState.obj
 0001:00013a30       ?filter@FilterPointsScaling@@UAE_NPAVDrawingSurface@@AAH1AAI@Z 00414a30 f i ZoomInFirstState.obj
 0001:00013a70       ?filter@FilterPointsTranslation@@UAE_NPAVDrawingSurface@@AAH1AAI@Z 00414a70 f i ZoomInFirstState.obj
 0001:00013b10       ?filterConvertRealToVirtualXPosition@FilterPoints@@UAEHH@Z 00414b10 f i ZoomInFirstState.obj
 0001:00013b30       ?filterConvertRealToVirtualXPosition@FilterPointsScaling@@UAEHH@Z 00414b30 f i ZoomInFirstState.obj
 0001:00013ba0       ?filterConvertRealToVirtualXPosition@FilterPointsTranslation@@UAEHH@Z 00414ba0 f i ZoomInFirstState.obj
 0001:00013bf0       ?filterConvertRealToVirtualYPosition@FilterPoints@@UAEHH@Z 00414bf0 f i ZoomInFirstState.obj
 0001:00013c10       ?filterConvertRealToVirtualYPosition@FilterPointsScaling@@UAEHH@Z 00414c10 f i ZoomInFirstState.obj
 0001:00013c80       ?filterConvertRealToVirtualYPosition@FilterPointsTranslation@@UAEHH@Z 00414c80 f i ZoomInFirstState.obj
 0001:00013cd0       ?filterConvertVirtualToRealXPosition@FilterPoints@@UAEHH@Z 00414cd0 f i ZoomInFirstState.obj
 0001:00013cf0       ?filterConvertVirtualToRealXPosition@FilterPointsScaling@@UAEHH@Z 00414cf0 f i ZoomInFirstState.obj
 0001:00013da0       ?filterConvertVirtualToRealXPosition@FilterPointsTranslation@@UAEHH@Z 00414da0 f i ZoomInFirstState.obj
 0001:00013df0       ?filterConvertVirtualToRealYPosition@FilterPoints@@UAEHH@Z 00414df0 f i ZoomInFirstState.obj
 0001:00013e10       ?filterConvertVirtualToRealYPosition@FilterPointsScaling@@UAEHH@Z 00414e10 f i ZoomInFirstState.obj
 0001:00013ec0       ?filterConvertVirtualToRealYPosition@FilterPointsTranslation@@UAEHH@Z 00414ec0 f i ZoomInFirstState.obj
 0001:00013f10       ?getBackgroundSurface@BaseEngine@@QAEPAVDrawingSurface@@XZ 00414f10 f i ZoomInFirstState.obj
 0001:00013f30       ?getIntsPerWindowRow@DrawingSurface@@QBEIXZ 00414f30 f i ZoomInFirstState.obj
 0001:00013f50       ?getSurfaceHeight@DrawingSurface@@QBEHXZ 00414f50 f i ZoomInFirstState.obj
 0001:00013f70       ?getSurfaceWidth@DrawingSurface@@QBEHXZ 00414f70 f i ZoomInFirstState.obj
 0001:00013f90       ?getWindowWidth@BaseEngine@@QBEHXZ 00414f90 f i ZoomInFirstState.obj
 0001:00013fb0       ?handleXthenY@FilterPointsScaling@@AAEXPAVDrawingSurface@@HHAAI@Z 00414fb0 f i ZoomInFirstState.obj
 0001:00014060       ?handleY@FilterPointsScaling@@AAEXPAVDrawingSurface@@HHAAI@Z 00415060 f i ZoomInFirstState.obj
 0001:00014190       ?keyDown@EngineState@@UAEXH@Z 00415190 f i ZoomInFirstState.obj
 0001:000141a0       ?rawSetPixel@DrawingSurface@@QAEXHHI@Z 004151a0 f i ZoomInFirstState.obj
 0001:00014250       ?redrawDisplay@BaseEngine@@QAEXXZ 00415250 f i ZoomInFirstState.obj
 0001:00014270       ?setDrawPointsFilter@DrawingSurface@@QAEXPAVFilterPoints@@@Z 00415270 f i ZoomInFirstState.obj
 0001:00014290       ?setStretch@FilterPointsScaling@@QAEXHH@Z 00415290 f i ZoomInFirstState.obj
 0001:00014380       ?stretch@FilterPointsScaling@@QAEXXZ 00415380 f i ZoomInFirstState.obj
 0001:000143b0       ?stretchX@FilterPointsScaling@@QAEXXZ 004153b0 f i ZoomInFirstState.obj
 0001:00014400       ?stretchY@FilterPointsScaling@@QAEXXZ 00415400 f i ZoomInFirstState.obj
 0001:00014450       ??0ZoomInState@@QAE@PAVBaseEngine@@@Z 00415450 f   ZoomInState.obj
 0001:00014560       ??1ZoomInState@@UAE@XZ     00415560 f   ZoomInState.obj
 0001:00014590       ?initialiseObjects@ZoomInState@@UAEHXZ 00415590 f   ZoomInState.obj
 0001:00014740       ?updateAllObjects@ZoomInState@@UAEXH@Z 00415740 f   ZoomInState.obj
 0001:00014a30       ?prepareState@ZoomInState@@QAEXH@Z 00415a30 f   ZoomInState.obj
 0001:00014be0       ??$?0ABV?$allocator@D@std@@$$V@?$_Compressed_pair@V?$allocator@D@std@@V?$_String_val@U?$_Simple_types@D@std@@@2@$00@std@@QAE@U_One_then_variadic_args_t@1@ABV?$allocator@D@1@@Z 00415be0 f i ZoomInState.obj
 0001:00014c10       ??$?0PAD$0A@@?$basic_string@DU?$char_traits@D@std@@V?$allocator@D@2@@std@@QAE@PAD0ABV?$allocator@D@1@@Z 00415c10 f i ZoomInState.obj
 0001:00014d20       ??$?HDU?$char_traits@D@std@@V?$allocator@D@1@@std@@YA?AV?$basic_string@DU?$char_traits@D@std@@V?$allocator@D@2@@0@$$QAV10@QBD@Z 00415d20 f i ZoomInState.obj
 0001:00014d70       ??$?HDU?$char_traits@D@std@@V?$allocator@D@1@@std@@YA?AV?$basic_string@DU?$char_traits@D@std@@V?$allocator@D@2@@0@QBD$$QAV10@@Z 00415d70 f i ZoomInState.obj
 0001:00014dc0       ??$_Adl_verify_range@PADPAD@std@@YAXABQAD0@Z 00415dc0 f i ZoomInState.obj
 0001:00014de0       ??$_Get_unwrapped@AAPAD@std@@YA@AAPAD@Z 00415de0 f i ZoomInState.obj
 0001:00014df0       ??$_Integral_to_string@DH@std@@YA?AV?$basic_string@DU?$char_traits@D@std@@V?$allocator@D@2@@0@H@Z 00415df0 f i ZoomInState.obj
 0001:00014ec0       ??$_Reallocate_grow_by@V<lambda_4d79bb85f269e6e8002a4599002d832c>@@IPBDI@?$basic_string@DU?$char_traits@D@std@@V?$allocator@D@2@@std@@AAEAAV01@IV<lambda_4d79bb85f269e6e8002a4599002d832c>@@IPBDI@Z 00415ec0 f i ZoomInState.obj
 0001:00015040       ??$_Reallocate_grow_by@V<lambda_ab246b20b9526e2ef7792587e4298a77>@@PBDI@?$basic_string@DU?$char_traits@D@std@@V?$allocator@D@2@@std@@AAEAAV01@IV<lambda_ab246b20b9526e2ef7792587e4298a77>@@PBDI@Z 00416040 f i ZoomInState.obj
 0001:000151b0       ??$_UIntegral_to_buff@DI@std@@YAPADPADI@Z 004161b0 f i ZoomInState.obj
 0001:00015210       ??$_Verify_range@D@std@@YAXQBD0@Z 00416210 f i ZoomInState.obj
 0001:00015290       ??$end@D$0BF@@std@@YAPADAAY0BF@D@Z 00416290 f i ZoomInState.obj
 0001:000152a0       ??$forward@ABV?$allocator@D@std@@@std@@YAABV?$allocator@D@0@ABV10@@Z 004162a0 f i ZoomInState.obj
 0001:000152b0       ??$move@AAV?$basic_string@DU?$char_traits@D@std@@V?$allocator@D@2@@std@@@std@@YA$$QAV?$basic_string@DU?$char_traits@D@std@@V?$allocator@D@2@@0@AAV10@@Z 004162b0 f i ZoomInState.obj
 0001:000152c0       ??R<lambda_4d79bb85f269e6e8002a4599002d832c>@@QBE@QADQBDII1I@Z 004162c0 f i ZoomInState.obj
 0001:00015340       ??R<lambda_ab246b20b9526e2ef7792587e4298a77>@@QBE@QADQBDI1I@Z 00416340 f i ZoomInState.obj
 0001:000153b0       ??_EZoomInState@@UAEPAXI@Z 004163b0 f i ZoomInState.obj
 0001:000153b0       ??_GZoomInState@@UAEPAXI@Z 004163b0 f i ZoomInState.obj
 0001:000153f0       ?_Check_offset@?$_String_val@U?$_Simple_types@D@std@@@std@@QBEXI@Z 004163f0 f i ZoomInState.obj
 0001:00015420       ?_Construct@?$basic_string@DU?$char_traits@D@std@@V?$allocator@D@2@@std@@QAEXQAD0Urandom_access_iterator_tag@2@@Z 00416420 f i ZoomInState.obj
 0001:00015460       ?_Xran@?$_String_val@U?$_Simple_types@D@std@@@std@@SAXXZ 00416460 f i ZoomInState.obj
 0001:00015480       ?append@?$basic_string@DU?$char_traits@D@std@@V?$allocator@D@2@@std@@QAEAAV12@QBD@Z 00416480 f i ZoomInState.obj
 0001:000154c0       ?append@?$basic_string@DU?$char_traits@D@std@@V?$allocator@D@2@@std@@QAEAAV12@QBDI@Z 004164c0 f i ZoomInState.obj
 0001:00015580       ?insert@?$basic_string@DU?$char_traits@D@std@@V?$allocator@D@2@@std@@QAEAAV12@IQBD@Z 00416580 f i ZoomInState.obj
 0001:000155c0       ?insert@?$basic_string@DU?$char_traits@D@std@@V?$allocator@D@2@@std@@QAEAAV12@IQBDI@Z 004165c0 f i ZoomInState.obj
 0001:00015710       ?setupBackgroundBuffer@EngineState@@UAEXXZ 00416710 f i ZoomInState.obj
 0001:00015720       ?to_string@std@@YA?AV?$basic_string@DU?$char_traits@D@std@@V?$allocator@D@2@@1@H@Z 00416720 f i ZoomInState.obj
 0001:00015760       ??0ZoomOutState@@QAE@PAVBaseEngine@@@Z 00416760 f   ZoomOutState.obj
 0001:00015870       ??1ZoomOutState@@UAE@XZ    00416870 f   ZoomOutState.obj
 0001:000158a0       ?initialiseObjects@ZoomOutState@@UAEHXZ 004168a0 f   ZoomOutState.obj
 0001:00015b60       ?updateAllObjects@ZoomOutState@@UAEXH@Z 00416b60 f   ZoomOutState.obj
 0001:00015d30       ?prepareState@ZoomOutState@@QAEXH@Z 00416d30 f   ZoomOutState.obj
 0001:00015ee0       ??_GZoomOutState@@UAEPAXI@Z 00416ee0 f i ZoomOutState.obj
 0001:00015ee0       ??_EZoomOutState@@UAEPAXI@Z 00416ee0 f i ZoomOutState.obj
 0001:00015f20       ??0ControlsState@@QAE@PAVBaseEngine@@@Z 00416f20 f   ControlsState.obj
 0001:00015fd0       ??1ControlsState@@UAE@XZ   00416fd0 f   ControlsState.obj
 0001:00016000       ?setupBackgroundBuffer@ControlsState@@UAEXXZ 00417000 f   ControlsState.obj
 0001:00016170       ?keyDown@ControlsState@@UAEXH@Z 00417170 f   ControlsState.obj
 0001:00016270       ??$move@AAPAVRawImageData@@@std@@YA$$QAPAVRawImageData@@AAPAV1@@Z 00417270 f i ControlsState.obj
 0001:00016280       ??$move@AAPAV_Ref_count_base@std@@@std@@YA$$QAPAV_Ref_count_base@0@AAPAV10@@Z 00417280 f i ControlsState.obj
 0001:00016290       ??$swap@PAVRawImageData@@$0A@@std@@YAXAAPAVRawImageData@@0@Z 00417290 f i ControlsState.obj
 0001:000162e0       ??$swap@PAV_Ref_count_base@std@@$0A@@std@@YAXAAPAV_Ref_count_base@0@0@Z 004172e0 f i ControlsState.obj
 0001:00016330       ??4?$shared_ptr@VRawImageData@@@std@@QAEAAV01@ABV01@@Z 00417330 f i ControlsState.obj
 0001:00016370       ??4SimpleImage@@QAEAAV0@ABV0@@Z 00417370 f i ControlsState.obj
 0001:000163c0       ??_EControlsState@@UAEPAXI@Z 004173c0 f i ControlsState.obj
 0001:000163c0       ??_GControlsState@@UAEPAXI@Z 004173c0 f i ControlsState.obj
 0001:00016400       ?_Swap@?$_Ptr_base@VRawImageData@@@std@@IAEXAAV12@@Z 00417400 f i ControlsState.obj
 0001:00016440       ?drawBackgroundString@BaseEngine@@QAEXHHPBDIPAVFont@@@Z 00417440 f i ControlsState.obj
 0001:00016480       ?initialiseObjects@EngineState@@UAEHXZ 00417480 f i ControlsState.obj
 0001:00016490       ?loadImage@ImageManager@@SA?AVSimpleImage@@V?$basic_string@DU?$char_traits@D@std@@V?$allocator@D@2@@std@@_N@Z 00417490 f i ControlsState.obj
 0001:00016550       ?swap@?$shared_ptr@VRawImageData@@@std@@QAEXAAV12@@Z 00417550 f i ControlsState.obj
 0001:00016570       ?updateAllObjects@EngineState@@UAEXH@Z 00417570 f i ControlsState.obj
 0001:00016580       ??0WinGameState@@QAE@PAVBaseEngine@@@Z 00417580 f   WinGameState.obj
 0001:00016640       ??1WinGameState@@UAE@XZ    00417640 f   WinGameState.obj
 0001:00016670       ?initialiseObjects@WinGameState@@UAEHXZ 00417670 f   WinGameState.obj
 0001:000168a0       ?setupBackgroundBuffer@WinGameState@@UAEXXZ 004178a0 f   WinGameState.obj
 0001:000168d0       ?keyDown@WinGameState@@UAEXH@Z 004178d0 f   WinGameState.obj
 0001:00016940       ?updateAllObjects@WinGameState@@UAEXH@Z 00417940 f   WinGameState.obj
 0001:000169c0       ?prepareState@WinGameState@@QAEXH@Z 004179c0 f   WinGameState.obj
 0001:00016af0       ??_GWinGameState@@UAEPAXI@Z 00417af0 f i WinGameState.obj
 0001:00016af0       ??_EWinGameState@@UAEPAXI@Z 00417af0 f i WinGameState.obj
 0001:00016b30       ?getWinGameText@EzyjddEngineCW4@@QBEABV?$vector@V?$basic_string@DU?$char_traits@D@std@@V?$allocator@D@2@@std@@V?$allocator@V?$basic_string@DU?$char_traits@D@std@@V?$allocator@D@2@@std@@@2@@std@@XZ 00417b30 f i WinGameState.obj
 0001:00016b70       ??0EzyjddEngineCW4@@QAE@XZ 00417b70 f   EzyjddEngineCW4.obj
 0001:00016cb0       ??1EzyjddEngineCW4@@UAE@XZ 00417cb0 f   EzyjddEngineCW4.obj
 0001:00016dd0       ?doStartup@EzyjddEngineCW4@@QAEXXZ 00417dd0 f   EzyjddEngineCW4.obj
 0001:00016e50       ?doInstructions@EzyjddEngineCW4@@QAEXXZ 00417e50 f   EzyjddEngineCW4.obj
 0001:00016ec0       ?doControls@EzyjddEngineCW4@@QAEXXZ 00417ec0 f   EzyjddEngineCW4.obj
 0001:00016f10       ?doHighScores@EzyjddEngineCW4@@QAEXXZ 00417f10 f   EzyjddEngineCW4.obj
 0001:00016f60       ?doLevelInstructions@EzyjddEngineCW4@@QAEXH@Z 00417f60 f   EzyjddEngineCW4.obj
 0001:00017020       ?doRunning@EzyjddEngineCW4@@QAEXH@Z 00418020 f   EzyjddEngineCW4.obj
 0001:000170e0       ?doZoomIn@EzyjddEngineCW4@@QAEXH@Z 004180e0 f   EzyjddEngineCW4.obj
 0001:000171a0       ?doZoomInFirst@EzyjddEngineCW4@@QAEXXZ 004181a0 f   EzyjddEngineCW4.obj
 0001:00017210       ?doZoomOut@EzyjddEngineCW4@@QAEXH@Z 00418210 f   EzyjddEngineCW4.obj
 0001:000172d0       ?doPause@EzyjddEngineCW4@@QAEXXZ 004182d0 f   EzyjddEngineCW4.obj
 0001:00017300       ?doUnpause@EzyjddEngineCW4@@QAEXXZ 00418300 f   EzyjddEngineCW4.obj
 0001:00017330       ?doWinGame@EzyjddEngineCW4@@QAEXXZ 00418330 f   EzyjddEngineCW4.obj
 0001:000173a0       ?doLoseGame@EzyjddEngineCW4@@QAEXXZ 004183a0 f   EzyjddEngineCW4.obj
 0001:00017410       ?loadGame@EzyjddEngineCW4@@QAE_NXZ 00418410 f   EzyjddEngineCW4.obj
 0001:000174d0       ?saveHighScores@EzyjddEngineCW4@@QAEXXZ 004184d0 f   EzyjddEngineCW4.obj
 0001:000175e0       ?setHighScore@EzyjddEngineCW4@@QAEXABV?$basic_string@DU?$char_traits@D@std@@V?$allocator@D@2@@std@@@Z 004185e0 f   EzyjddEngineCW4.obj
 0001:00017870       ?virtInitialise@EzyjddEngineCW4@@EAEHXZ 00418870 f   EzyjddEngineCW4.obj
 0001:00017b90       ?virtSetupBackgroundBuffer@EzyjddEngineCW4@@EAEXXZ 00418b90 f   EzyjddEngineCW4.obj
 0001:00017bc0       ?virtInitialiseObjects@EzyjddEngineCW4@@EAEHXZ 00418bc0 f   EzyjddEngineCW4.obj
 0001:00017c10       ?virtKeyDown@EzyjddEngineCW4@@EAEXH@Z 00418c10 f   EzyjddEngineCW4.obj
 0001:00017c50       ?virtDrawStringsOnTop@EzyjddEngineCW4@@EAEXXZ 00418c50 f   EzyjddEngineCW4.obj
 0001:00017cc0       ?updateAllObjects@EzyjddEngineCW4@@EAEXH@Z 00418cc0 f   EzyjddEngineCW4.obj
 0001:00017d00       ?virtMainLoopPostUpdate@EzyjddEngineCW4@@EAEXXZ 00418d00 f   EzyjddEngineCW4.obj
 0001:00017d40       ?loadHighScores@EzyjddEngineCW4@@AAEXXZ 00418d40 f   EzyjddEngineCW4.obj
 0001:00017ec0       ?loadInstructionsText@EzyjddEngineCW4@@AAEHXZ 00418ec0 f   EzyjddEngineCW4.obj
 0001:00018010       ?loadWinGameText@EzyjddEngineCW4@@AAEHXZ 00419010 f   EzyjddEngineCW4.obj
 0001:00018160       ?loadLoseGameText@EzyjddEngineCW4@@AAEHXZ 00419160 f   EzyjddEngineCW4.obj
 0001:000182b0       ?isHighScore@EzyjddEngineCW4@@AAE_NXZ 004192b0 f   EzyjddEngineCW4.obj
 0001:000188f0       ??$?0$$V@?$_Compressed_pair@V?$allocator@V?$basic_string@DU?$char_traits@D@std@@V?$allocator@D@2@@std@@@std@@V?$_Vector_val@U?$_Simple_types@V?$basic_string@DU?$char_traits@D@std@@V?$allocator@D@2@@std@@@std@@@2@$00@std@@QAE@U_Zero_then_variadic_args_t@1@@Z 004198f0 f i EzyjddEngineCW4.obj
 0001:00018920       ??$?0$$V@?$_Compressed_pair@V?$allocator@VHighScore@@@std@@V?$_Vector_val@U?$_Simple_types@VHighScore@@@std@@@2@$00@std@@QAE@U_Zero_then_variadic_args_t@1@@Z 00419920 f i EzyjddEngineCW4.obj
 0001:00018950       ??$?0AAPAV_Facet_base@std@@@?$_Compressed_pair@U?$default_delete@V_Facet_base@std@@@std@@PAV_Facet_base@2@$00@std@@QAE@U_Zero_then_variadic_args_t@1@AAPAV_Facet_base@1@@Z 00419950 f i EzyjddEngineCW4.obj
 0001:00018980       ??$?0PAVEzyjddEngineCW4@@@?$_Ref_count_obj2@VControlsState@@@std@@QAE@$$QAPAVEzyjddEngineCW4@@@Z 00419980 f i EzyjddEngineCW4.obj
 0001:00018a30       ??$?0PAVEzyjddEngineCW4@@@?$_Ref_count_obj2@VHighScoresState@@@std@@QAE@$$QAPAVEzyjddEngineCW4@@@Z 00419a30 f i EzyjddEngineCW4.obj
 0001:00018ae0       ??$?0PAVEzyjddEngineCW4@@@?$_Ref_count_obj2@VInstructionsState@@@std@@QAE@$$QAPAVEzyjddEngineCW4@@@Z 00419ae0 f i EzyjddEngineCW4.obj
 0001:00018b90       ??$?0PAVEzyjddEngineCW4@@@?$_Ref_count_obj2@VLevelInstructionsState@@@std@@QAE@$$QAPAVEzyjddEngineCW4@@@Z 00419b90 f i EzyjddEngineCW4.obj
 0001:00018c40       ??$?0PAVEzyjddEngineCW4@@@?$_Ref_count_obj2@VLoseGameState@@@std@@QAE@$$QAPAVEzyjddEngineCW4@@@Z 00419c40 f i EzyjddEngineCW4.obj
 0001:00018cf0       ??$?0PAVEzyjddEngineCW4@@@?$_Ref_count_obj2@VPausedState@@@std@@QAE@$$QAPAVEzyjddEngineCW4@@@Z 00419cf0 f i EzyjddEngineCW4.obj
 0001:00018da0       ??$?0PAVEzyjddEngineCW4@@@?$_Ref_count_obj2@VRunningState@@@std@@QAE@$$QAPAVEzyjddEngineCW4@@@Z 00419da0 f i EzyjddEngineCW4.obj
 0001:00018e50       ??$?0PAVEzyjddEngineCW4@@@?$_Ref_count_obj2@VStartupState@@@std@@QAE@$$QAPAVEzyjddEngineCW4@@@Z 00419e50 f i EzyjddEngineCW4.obj
 0001:00018f00       ??$?0PAVEzyjddEngineCW4@@@?$_Ref_count_obj2@VWinGameState@@@std@@QAE@$$QAPAVEzyjddEngineCW4@@@Z 00419f00 f i EzyjddEngineCW4.obj
 0001:00018fb0       ??$?0PAVEzyjddEngineCW4@@@?$_Ref_count_obj2@VZoomInFirstState@@@std@@QAE@$$QAPAVEzyjddEngineCW4@@@Z 00419fb0 f i EzyjddEngineCW4.obj
 0001:00019060       ??$?0PAVEzyjddEngineCW4@@@?$_Ref_count_obj2@VZoomInState@@@std@@QAE@$$QAPAVEzyjddEngineCW4@@@Z 0041a060 f i EzyjddEngineCW4.obj
 0001:00019110       ??$?0PAVEzyjddEngineCW4@@@?$_Ref_count_obj2@VZoomOutState@@@std@@QAE@$$QAPAVEzyjddEngineCW4@@@Z 0041a110 f i EzyjddEngineCW4.obj
 0001:000191c0       ??$?0U?$default_delete@V_Facet_base@std@@@std@@$0A@@?$unique_ptr@V_Facet_base@std@@U?$default_delete@V_Facet_base@std@@@2@@std@@QAE@PAV_Facet_base@1@@Z 0041a1c0 f i EzyjddEngineCW4.obj
 0001:000191f0       ??$?0V?$basic_string@DU?$char_traits@D@std@@V?$allocator@D@2@@std@@@?$allocator@U_Container_proxy@std@@@std@@QAE@ABV?$allocator@V?$basic_string@DU?$char_traits@D@std@@V?$allocator@D@2@@std@@@1@@Z 0041a1f0 f i EzyjddEngineCW4.obj
 0001:00019210       ??$?0VControlsState@@$0A@@?$shared_ptr@VEngineState@@@std@@QAE@$$QAV?$shared_ptr@VControlsState@@@1@@Z 0041a210 f i EzyjddEngineCW4.obj
 0001:00019250       ??$?0VEngineState@@@?$shared_ptr@VLevelInstructionsState@@@std@@QAE@ABV?$shared_ptr@VEngineState@@@1@PAVLevelInstructionsState@@@Z 0041a250 f i EzyjddEngineCW4.obj
 0001:00019290       ??$?0VEngineState@@@?$shared_ptr@VRunningState@@@std@@QAE@ABV?$shared_ptr@VEngineState@@@1@PAVRunningState@@@Z 0041a290 f i EzyjddEngineCW4.obj
 0001:000192d0       ??$?0VEngineState@@@?$shared_ptr@VZoomInState@@@std@@QAE@ABV?$shared_ptr@VEngineState@@@1@PAVZoomInState@@@Z 0041a2d0 f i EzyjddEngineCW4.obj
 0001:00019310       ??$?0VEngineState@@@?$shared_ptr@VZoomOutState@@@std@@QAE@ABV?$shared_ptr@VEngineState@@@1@PAVZoomOutState@@@Z 0041a310 f i EzyjddEngineCW4.obj
 0001:00019350       ??$?0VHighScore@@@?$_Alloc_temporary@V?$allocator@VHighScore@@@std@@@std@@QAE@AAV?$allocator@VHighScore@@@1@$$QAVHighScore@@@Z 0041a350 f i EzyjddEngineCW4.obj
 0001:000193b0       ??$?0VHighScore@@@?$allocator@U_Container_proxy@std@@@std@@QAE@ABV?$allocator@VHighScore@@@1@@Z 0041a3b0 f i EzyjddEngineCW4.obj
 0001:000193d0       ??$?0VHighScoresState@@$0A@@?$shared_ptr@VEngineState@@@std@@QAE@$$QAV?$shared_ptr@VHighScoresState@@@1@@Z 0041a3d0 f i EzyjddEngineCW4.obj
 0001:00019410       ??$?0VInstructionsState@@$0A@@?$shared_ptr@VEngineState@@@std@@QAE@$$QAV?$shared_ptr@VInstructionsState@@@1@@Z 0041a410 f i EzyjddEngineCW4.obj
 0001:00019450       ??$?0VLevelInstructionsState@@$0A@@?$shared_ptr@VEngineState@@@std@@QAE@$$QAV?$shared_ptr@VLevelInstructionsState@@@1@@Z 0041a450 f i EzyjddEngineCW4.obj
 0001:00019490       ??$?0VLoseGameState@@$0A@@?$shared_ptr@VEngineState@@@std@@QAE@$$QAV?$shared_ptr@VLoseGameState@@@1@@Z 0041a490 f i EzyjddEngineCW4.obj
 0001:000194d0       ??$?0VPausedState@@$0A@@?$shared_ptr@VEngineState@@@std@@QAE@$$QAV?$shared_ptr@VPausedState@@@1@@Z 0041a4d0 f i EzyjddEngineCW4.obj
 0001:00019510       ??$?0VRunningState@@$0A@@?$shared_ptr@VEngineState@@@std@@QAE@$$QAV?$shared_ptr@VRunningState@@@1@@Z 0041a510 f i EzyjddEngineCW4.obj
 0001:00019550       ??$?0VStartupState@@$0A@@?$shared_ptr@VEngineState@@@std@@QAE@$$QAV?$shared_ptr@VStartupState@@@1@@Z 0041a550 f i EzyjddEngineCW4.obj
 0001:00019590       ??$?0VWinGameState@@$0A@@?$shared_ptr@VEngineState@@@std@@QAE@$$QAV?$shared_ptr@VWinGameState@@@1@@Z 0041a590 f i EzyjddEngineCW4.obj
 0001:000195d0       ??$?0VZoomInFirstState@@$0A@@?$shared_ptr@VEngineState@@@std@@QAE@$$QAV?$shared_ptr@VZoomInFirstState@@@1@@Z 0041a5d0 f i EzyjddEngineCW4.obj
 0001:00019610       ??$?0VZoomInState@@$0A@@?$shared_ptr@VEngineState@@@std@@QAE@$$QAV?$shared_ptr@VZoomInState@@@1@@Z 0041a610 f i EzyjddEngineCW4.obj
 0001:00019650       ??$?0VZoomOutState@@$0A@@?$shared_ptr@VEngineState@@@std@@QAE@$$QAV?$shared_ptr@VZoomOutState@@@1@@Z 0041a650 f i EzyjddEngineCW4.obj
 0001:00019690       ??$?4VControlsState@@@?$shared_ptr@VEngineState@@@std@@QAEAAV01@$$QAV?$shared_ptr@VControlsState@@@1@@Z 0041a690 f i EzyjddEngineCW4.obj
 0001:000196e0       ??$?4VHighScoresState@@@?$shared_ptr@VEngineState@@@std@@QAEAAV01@$$QAV?$shared_ptr@VHighScoresState@@@1@@Z 0041a6e0 f i EzyjddEngineCW4.obj
 0001:00019730       ??$?4VInstructionsState@@@?$shared_ptr@VEngineState@@@std@@QAEAAV01@$$QAV?$shared_ptr@VInstructionsState@@@1@@Z 0041a730 f i EzyjddEngineCW4.obj
 0001:00019780       ??$?4VLevelInstructionsState@@@?$shared_ptr@VEngineState@@@std@@QAEAAV01@$$QAV?$shared_ptr@VLevelInstructionsState@@@1@@Z 0041a780 f i EzyjddEngineCW4.obj
 0001:000197d0       ??$?4VLoseGameState@@@?$shared_ptr@VEngineState@@@std@@QAEAAV01@$$QAV?$shared_ptr@VLoseGameState@@@1@@Z 0041a7d0 f i EzyjddEngineCW4.obj
 0001:00019820       ??$?4VPausedState@@@?$shared_ptr@VEngineState@@@std@@QAEAAV01@$$QAV?$shared_ptr@VPausedState@@@1@@Z 0041a820 f i EzyjddEngineCW4.obj
 0001:00019870       ??$?4VRunningState@@@?$shared_ptr@VEngineState@@@std@@QAEAAV01@$$QAV?$shared_ptr@VRunningState@@@1@@Z 0041a870 f i EzyjddEngineCW4.obj
 0001:000198c0       ??$?4VStartupState@@@?$shared_ptr@VEngineState@@@std@@QAEAAV01@$$QAV?$shared_ptr@VStartupState@@@1@@Z 0041a8c0 f i EzyjddEngineCW4.obj
 0001:00019910       ??$?4VWinGameState@@@?$shared_ptr@VEngineState@@@std@@QAEAAV01@$$QAV?$shared_ptr@VWinGameState@@@1@@Z 0041a910 f i EzyjddEngineCW4.obj
 0001:00019960       ??$?4VZoomInFirstState@@@?$shared_ptr@VEngineState@@@std@@QAEAAV01@$$QAV?$shared_ptr@VZoomInFirstState@@@1@@Z 0041a960 f i EzyjddEngineCW4.obj
 0001:000199b0       ??$?4VZoomInState@@@?$shared_ptr@VEngineState@@@std@@QAEAAV01@$$QAV?$shared_ptr@VZoomInState@@@1@@Z 0041a9b0 f i EzyjddEngineCW4.obj
 0001:00019a00       ??$?4VZoomOutState@@@?$shared_ptr@VEngineState@@@std@@QAEAAV01@$$QAV?$shared_ptr@VZoomOutState@@@1@@Z 0041aa00 f i EzyjddEngineCW4.obj
 0001:00019a50       ??$?5DU?$char_traits@D@std@@V?$allocator@D@1@@std@@YAAAV?$basic_istream@DU?$char_traits@D@std@@@0@$$QAV10@AAV?$basic_string@DU?$char_traits@D@std@@V?$allocator@D@2@@0@@Z 0041aa50 f i EzyjddEngineCW4.obj
 0001:00019d80       ??$?5DU?$char_traits@D@std@@V?$allocator@D@1@@std@@YAAAV?$basic_istream@DU?$char_traits@D@std@@@0@AAV10@AAV?$basic_string@DU?$char_traits@D@std@@V?$allocator@D@2@@0@@Z 0041ad80 f i EzyjddEngineCW4.obj
 0001:00019db0       ??$?8VEngineState@@V0@@std@@YA_NABV?$shared_ptr@VEngineState@@@0@0@Z 0041adb0 f i EzyjddEngineCW4.obj
 0001:00019df0       ??$?CVEngineState@@$0A@@?$shared_ptr@VEngineState@@@std@@QBEPAVEngineState@@XZ 0041adf0 f i EzyjddEngineCW4.obj
 0001:00019e10       ??$?CVLevelInstructionsState@@$0A@@?$shared_ptr@VLevelInstructionsState@@@std@@QBEPAVLevelInstructionsState@@XZ 0041ae10 f i EzyjddEngineCW4.obj
 0001:00019e30       ??$?CVRunningState@@$0A@@?$shared_ptr@VRunningState@@@std@@QBEPAVRunningState@@XZ 0041ae30 f i EzyjddEngineCW4.obj
 0001:00019e50       ??$?CVZoomInState@@$0A@@?$shared_ptr@VZoomInState@@@std@@QBEPAVZoomInState@@XZ 0041ae50 f i EzyjddEngineCW4.obj
 0001:00019e70       ??$?CVZoomOutState@@$0A@@?$shared_ptr@VZoomOutState@@@std@@QBEPAVZoomOutState@@XZ 0041ae70 f i EzyjddEngineCW4.obj
 0001:00019e90       ??$_Alias_construct_from@VEngineState@@@?$_Ptr_base@VLevelInstructionsState@@@std@@IAEXABV?$shared_ptr@VEngineState@@@1@PAVLevelInstructionsState@@@Z 0041ae90 f i EzyjddEngineCW4.obj
 0001:00019ee0       ??$_Alias_construct_from@VEngineState@@@?$_Ptr_base@VRunningState@@@std@@IAEXABV?$shared_ptr@VEngineState@@@1@PAVRunningState@@@Z 0041aee0 f i EzyjddEngineCW4.obj
 0001:00019f30       ??$_Alias_construct_from@VEngineState@@@?$_Ptr_base@VZoomInState@@@std@@IAEXABV?$shared_ptr@VEngineState@@@1@PAVZoomInState@@@Z 0041af30 f i EzyjddEngineCW4.obj
 0001:00019f80       ??$_Alias_construct_from@VEngineState@@@?$_Ptr_base@VZoomOutState@@@std@@IAEXABV?$shared_ptr@VEngineState@@@1@PAVZoomOutState@@@Z 0041af80 f i EzyjddEngineCW4.obj
 0001:00019fd0       ??$_Construct_in_place@VControlsState@@PAVEzyjddEngineCW4@@@std@@YAXAAVControlsState@@$$QAPAVEzyjddEngineCW4@@@Z 0041afd0 f i EzyjddEngineCW4.obj
 0001:0001a020       ??$_Construct_in_place@VHighScoresState@@PAVEzyjddEngineCW4@@@std@@YAXAAVHighScoresState@@$$QAPAVEzyjddEngineCW4@@@Z 0041b020 f i EzyjddEngineCW4.obj
 0001:0001a070       ??$_Construct_in_place@VInstructionsState@@PAVEzyjddEngineCW4@@@std@@YAXAAVInstructionsState@@$$QAPAVEzyjddEngineCW4@@@Z 0041b070 f i EzyjddEngineCW4.obj
 0001:0001a0c0       ??$_Construct_in_place@VLevelInstructionsState@@PAVEzyjddEngineCW4@@@std@@YAXAAVLevelInstructionsState@@$$QAPAVEzyjddEngineCW4@@@Z 0041b0c0 f i EzyjddEngineCW4.obj
 0001:0001a110       ??$_Construct_in_place@VLoseGameState@@PAVEzyjddEngineCW4@@@std@@YAXAAVLoseGameState@@$$QAPAVEzyjddEngineCW4@@@Z 0041b110 f i EzyjddEngineCW4.obj
 0001:0001a160       ??$_Construct_in_place@VPausedState@@PAVEzyjddEngineCW4@@@std@@YAXAAVPausedState@@$$QAPAVEzyjddEngineCW4@@@Z 0041b160 f i EzyjddEngineCW4.obj
 0001:0001a1b0       ??$_Construct_in_place@VRunningState@@PAVEzyjddEngineCW4@@@std@@YAXAAVRunningState@@$$QAPAVEzyjddEngineCW4@@@Z 0041b1b0 f i EzyjddEngineCW4.obj
 0001:0001a200       ??$_Construct_in_place@VStartupState@@PAVEzyjddEngineCW4@@@std@@YAXAAVStartupState@@$$QAPAVEzyjddEngineCW4@@@Z 0041b200 f i EzyjddEngineCW4.obj
 0001:0001a250       ??$_Construct_in_place@VWinGameState@@PAVEzyjddEngineCW4@@@std@@YAXAAVWinGameState@@$$QAPAVEzyjddEngineCW4@@@Z 0041b250 f i EzyjddEngineCW4.obj
 0001:0001a2a0       ??$_Construct_in_place@VZoomInFirstState@@PAVEzyjddEngineCW4@@@std@@YAXAAVZoomInFirstState@@$$QAPAVEzyjddEngineCW4@@@Z 0041b2a0 f i EzyjddEngineCW4.obj
 0001:0001a2f0       ??$_Construct_in_place@VZoomInState@@PAVEzyjddEngineCW4@@@std@@YAXAAVZoomInState@@$$QAPAVEzyjddEngineCW4@@@Z 0041b2f0 f i EzyjddEngineCW4.obj
 0001:0001a340       ??$_Construct_in_place@VZoomOutState@@PAVEzyjddEngineCW4@@@std@@YAXAAVZoomOutState@@$$QAPAVEzyjddEngineCW4@@@Z 0041b340 f i EzyjddEngineCW4.obj
 0001:0001a390       ??$_Copy_construct_from@VEngineState@@@?$_Ptr_base@VEngineState@@@std@@IAEXABV?$shared_ptr@VEngineState@@@1@@Z 0041b390 f i EzyjddEngineCW4.obj
 0001:0001a3e0       ??$_Destroy_in_place@VControlsState@@@std@@YAXAAVControlsState@@@Z 0041b3e0 f i EzyjddEngineCW4.obj
 0001:0001a400       ??$_Destroy_in_place@VHighScoresState@@@std@@YAXAAVHighScoresState@@@Z 0041b400 f i EzyjddEngineCW4.obj
 0001:0001a420       ??$_Destroy_in_place@VInstructionsState@@@std@@YAXAAVInstructionsState@@@Z 0041b420 f i EzyjddEngineCW4.obj
 0001:0001a440       ??$_Destroy_in_place@VLevelInstructionsState@@@std@@YAXAAVLevelInstructionsState@@@Z 0041b440 f i EzyjddEngineCW4.obj
 0001:0001a460       ??$_Destroy_in_place@VLoseGameState@@@std@@YAXAAVLoseGameState@@@Z 0041b460 f i EzyjddEngineCW4.obj
 0001:0001a480       ??$_Destroy_in_place@VPausedState@@@std@@YAXAAVPausedState@@@Z 0041b480 f i EzyjddEngineCW4.obj
 0001:0001a4a0       ??$_Destroy_in_place@VRunningState@@@std@@YAXAAVRunningState@@@Z 0041b4a0 f i EzyjddEngineCW4.obj
 0001:0001a4c0       ??$_Destroy_in_place@VStartupState@@@std@@YAXAAVStartupState@@@Z 0041b4c0 f i EzyjddEngineCW4.obj
 0001:0001a4e0       ??$_Destroy_in_place@VWinGameState@@@std@@YAXAAVWinGameState@@@Z 0041b4e0 f i EzyjddEngineCW4.obj
 0001:0001a500       ??$_Destroy_in_place@VZoomInFirstState@@@std@@YAXAAVZoomInFirstState@@@Z 0041b500 f i EzyjddEngineCW4.obj
 0001:0001a520       ??$_Destroy_in_place@VZoomInState@@@std@@YAXAAVZoomInState@@@Z 0041b520 f i EzyjddEngineCW4.obj
 0001:0001a540       ??$_Destroy_in_place@VZoomOutState@@@std@@YAXAAVZoomOutState@@@Z 0041b540 f i EzyjddEngineCW4.obj
 0001:0001a560       ??$_Destroy_range@V?$allocator@V?$basic_string@DU?$char_traits@D@std@@V?$allocator@D@2@@std@@@std@@@std@@YAXPAV?$basic_string@DU?$char_traits@D@std@@V?$allocator@D@2@@0@QAV10@AAV?$allocator@V?$basic_string@DU?$char_traits@D@std@@V?$allocator@D@2@@std@@@0@@Z 0041b560 f i EzyjddEngineCW4.obj
 0001:0001a5e0       ??$_Destroy_range@V?$allocator@VHighScore@@@std@@@std@@YAXPAVHighScore@@QAV1@AAV?$allocator@VHighScore@@@0@@Z 0041b5e0 f i EzyjddEngineCW4.obj
 0001:0001a660       ??$_Emplace_back@V?$basic_string@DU?$char_traits@D@std@@V?$allocator@D@2@@std@@@?$_Uninitialized_backout_al@V?$allocator@V?$basic_string@DU?$char_traits@D@std@@V?$allocator@D@2@@std@@@std@@@std@@QAEX$$QAV?$basic_string@DU?$char_traits@D@std@@V?$allocator@D@2@@1@@Z 0041b660 f i EzyjddEngineCW4.obj
 0001:0001a6c0       ??$_Emplace_back@VHighScore@@@?$_Uninitialized_backout_al@V?$allocator@VHighScore@@@std@@@std@@QAEX$$QAVHighScore@@@Z 0041b6c0 f i EzyjddEngineCW4.obj
 0001:0001a720       ??$_Emplace_back_with_unused_capacity@ABV?$basic_string@DU?$char_traits@D@std@@V?$allocator@D@2@@std@@@?$vector@V?$basic_string@DU?$char_traits@D@std@@V?$allocator@D@2@@std@@V?$allocator@V?$basic_string@DU?$char_traits@D@std@@V?$allocator@D@2@@std@@@2@@std@@AAE@ABV?$basic_string@DU?$char_traits@D@std@@V?$allocator@D@2@@1@@Z 0041b720 f i EzyjddEngineCW4.obj
 0001:0001a7c0       ??$_Emplace_back_with_unused_capacity@VHighScore@@@?$vector@VHighScore@@V?$allocator@VHighScore@@@std@@@std@@AAE@$$QAVHighScore@@@Z 0041b7c0 f i EzyjddEngineCW4.obj
 0001:0001a860       ??$_Emplace_reallocate@ABV?$basic_string@DU?$char_traits@D@std@@V?$allocator@D@2@@std@@@?$vector@V?$basic_string@DU?$char_traits@D@std@@V?$allocator@D@2@@std@@V?$allocator@V?$basic_string@DU?$char_traits@D@std@@V?$allocator@D@2@@std@@@2@@std@@QAEPAV?$basic_string@DU?$char_traits@D@std@@V?$allocator@D@2@@1@QAV21@ABV21@@Z 0041b860 f i EzyjddEngineCW4.obj
 0001:0001aab0       ??$_Emplace_reallocate@VHighScore@@@?$vector@VHighScore@@V?$allocator@VHighScore@@@std@@@std@@QAEPAVHighScore@@QAV2@$$QAV2@@Z 0041bab0 f i EzyjddEngineCW4.obj
 0001:0001ad00       ??$_Fgetc@D@std@@YA_NAADPAU_iobuf@@@Z 0041bd00 f i EzyjddEngineCW4.obj
 0001:0001ad40       ??$_Fputc@D@std@@YA_NDPAU_iobuf@@@Z 0041bd40 f i EzyjddEngineCW4.obj
 0001:0001ad80       ??$_Get_size_of_n@$0BM@@std@@YAII@Z 0041bd80 f i EzyjddEngineCW4.obj
 0001:0001adb0       ??$_Get_size_of_n@$0CA@@std@@YAII@Z 0041bdb0 f i EzyjddEngineCW4.obj
 0001:0001adf0       ??$_Get_unwrapped@ABQAV?$basic_string@DU?$char_traits@D@std@@V?$allocator@D@2@@std@@@std@@YA@ABQAV?$basic_string@DU?$char_traits@D@std@@V?$allocator@D@2@@0@@Z 0041bdf0 f i EzyjddEngineCW4.obj
 0001:0001ae00       ??$_Get_unwrapped@ABQAVHighScore@@@std@@YA@ABQAVHighScore@@@Z 0041be00 f i EzyjddEngineCW4.obj
 0001:0001ae10       ??$_Move_backward_unchecked@PAVHighScore@@PAV1@@std@@YAPAVHighScore@@PAV1@00@Z 0041be10 f i EzyjddEngineCW4.obj
 0001:0001ae60       ??$_Move_construct_from@VControlsState@@@?$_Ptr_base@VControlsState@@@std@@IAEX$$QAV01@@Z 0041be60 f i EzyjddEngineCW4.obj
 0001:0001aeb0       ??$_Move_construct_from@VControlsState@@@?$_Ptr_base@VEngineState@@@std@@IAEX$$QAV?$_Ptr_base@VControlsState@@@1@@Z 0041beb0 f i EzyjddEngineCW4.obj
 0001:0001af00       ??$_Move_construct_from@VHighScoresState@@@?$_Ptr_base@VEngineState@@@std@@IAEX$$QAV?$_Ptr_base@VHighScoresState@@@1@@Z 0041bf00 f i EzyjddEngineCW4.obj
 0001:0001af50       ??$_Move_construct_from@VHighScoresState@@@?$_Ptr_base@VHighScoresState@@@std@@IAEX$$QAV01@@Z 0041bf50 f i EzyjddEngineCW4.obj
 0001:0001afa0       ??$_Move_construct_from@VInstructionsState@@@?$_Ptr_base@VEngineState@@@std@@IAEX$$QAV?$_Ptr_base@VInstructionsState@@@1@@Z 0041bfa0 f i EzyjddEngineCW4.obj
 0001:0001aff0       ??$_Move_construct_from@VInstructionsState@@@?$_Ptr_base@VInstructionsState@@@std@@IAEX$$QAV01@@Z 0041bff0 f i EzyjddEngineCW4.obj
 0001:0001b040       ??$_Move_construct_from@VLevelInstructionsState@@@?$_Ptr_base@VEngineState@@@std@@IAEX$$QAV?$_Ptr_base@VLevelInstructionsState@@@1@@Z 0041c040 f i EzyjddEngineCW4.obj
 0001:0001b090       ??$_Move_construct_from@VLevelInstructionsState@@@?$_Ptr_base@VLevelInstructionsState@@@std@@IAEX$$QAV01@@Z 0041c090 f i EzyjddEngineCW4.obj
 0001:0001b0e0       ??$_Move_construct_from@VLoseGameState@@@?$_Ptr_base@VEngineState@@@std@@IAEX$$QAV?$_Ptr_base@VLoseGameState@@@1@@Z 0041c0e0 f i EzyjddEngineCW4.obj
 0001:0001b130       ??$_Move_construct_from@VLoseGameState@@@?$_Ptr_base@VLoseGameState@@@std@@IAEX$$QAV01@@Z 0041c130 f i EzyjddEngineCW4.obj
 0001:0001b180       ??$_Move_construct_from@VPausedState@@@?$_Ptr_base@VEngineState@@@std@@IAEX$$QAV?$_Ptr_base@VPausedState@@@1@@Z 0041c180 f i EzyjddEngineCW4.obj
 0001:0001b1d0       ??$_Move_construct_from@VPausedState@@@?$_Ptr_base@VPausedState@@@std@@IAEX$$QAV01@@Z 0041c1d0 f i EzyjddEngineCW4.obj
 0001:0001b220       ??$_Move_construct_from@VRunningState@@@?$_Ptr_base@VEngineState@@@std@@IAEX$$QAV?$_Ptr_base@VRunningState@@@1@@Z 0041c220 f i EzyjddEngineCW4.obj
 0001:0001b270       ??$_Move_construct_from@VRunningState@@@?$_Ptr_base@VRunningState@@@std@@IAEX$$QAV01@@Z 0041c270 f i EzyjddEngineCW4.obj
 0001:0001b2c0       ??$_Move_construct_from@VStartupState@@@?$_Ptr_base@VEngineState@@@std@@IAEX$$QAV?$_Ptr_base@VStartupState@@@1@@Z 0041c2c0 f i EzyjddEngineCW4.obj
 0001:0001b310       ??$_Move_construct_from@VStartupState@@@?$_Ptr_base@VStartupState@@@std@@IAEX$$QAV01@@Z 0041c310 f i EzyjddEngineCW4.obj
 0001:0001b360       ??$_Move_construct_from@VWinGameState@@@?$_Ptr_base@VEngineState@@@std@@IAEX$$QAV?$_Ptr_base@VWinGameState@@@1@@Z 0041c360 f i EzyjddEngineCW4.obj
 0001:0001b3b0       ??$_Move_construct_from@VWinGameState@@@?$_Ptr_base@VWinGameState@@@std@@IAEX$$QAV01@@Z 0041c3b0 f i EzyjddEngineCW4.obj
 0001:0001b400       ??$_Move_construct_from@VZoomInFirstState@@@?$_Ptr_base@VEngineState@@@std@@IAEX$$QAV?$_Ptr_base@VZoomInFirstState@@@1@@Z 0041c400 f i EzyjddEngineCW4.obj
 0001:0001b450       ??$_Move_construct_from@VZoomInFirstState@@@?$_Ptr_base@VZoomInFirstState@@@std@@IAEX$$QAV01@@Z 0041c450 f i EzyjddEngineCW4.obj
 0001:0001b4a0       ??$_Move_construct_from@VZoomInState@@@?$_Ptr_base@VEngineState@@@std@@IAEX$$QAV?$_Ptr_base@VZoomInState@@@1@@Z 0041c4a0 f i EzyjddEngineCW4.obj
 0001:0001b4f0       ??$_Move_construct_from@VZoomInState@@@?$_Ptr_base@VZoomInState@@@std@@IAEX$$QAV01@@Z 0041c4f0 f i EzyjddEngineCW4.obj
 0001:0001b540       ??$_Move_construct_from@VZoomOutState@@@?$_Ptr_base@VEngineState@@@std@@IAEX$$QAV?$_Ptr_base@VZoomOutState@@@1@@Z 0041c540 f i EzyjddEngineCW4.obj
 0001:0001b590       ??$_Move_construct_from@VZoomOutState@@@?$_Ptr_base@VZoomOutState@@@std@@IAEX$$QAV01@@Z 0041c590 f i EzyjddEngineCW4.obj
 0001:0001b5e0       ??$_Pocma@V?$allocator@D@std@@@std@@YAXAAV?$allocator@D@0@0@Z 0041c5e0 f i EzyjddEngineCW4.obj
 0001:0001b600       ??$_Reallocate_grow_by@V<lambda_15711c68e099a15a58f4d77303cb286d>@@D@?$basic_string@DU?$char_traits@D@std@@V?$allocator@D@2@@std@@AAEAAV01@IV<lambda_15711c68e099a15a58f4d77303cb286d>@@D@Z 0041c600 f i EzyjddEngineCW4.obj
 0001:0001b770       ??$_Set_ptr_rep_and_enable_shared@VControlsState@@@?$shared_ptr@VControlsState@@@std@@AAEXQAVControlsState@@QAV_Ref_count_base@1@@Z 0041c770 f i EzyjddEngineCW4.obj
 0001:0001b7a0       ??$_Set_ptr_rep_and_enable_shared@VHighScoresState@@@?$shared_ptr@VHighScoresState@@@std@@AAEXQAVHighScoresState@@QAV_Ref_count_base@1@@Z 0041c7a0 f i EzyjddEngineCW4.obj
 0001:0001b7d0       ??$_Set_ptr_rep_and_enable_shared@VInstructionsState@@@?$shared_ptr@VInstructionsState@@@std@@AAEXQAVInstructionsState@@QAV_Ref_count_base@1@@Z 0041c7d0 f i EzyjddEngineCW4.obj
 0001:0001b800       ??$_Set_ptr_rep_and_enable_shared@VLevelInstructionsState@@@?$shared_ptr@VLevelInstructionsState@@@std@@AAEXQAVLevelInstructionsState@@QAV_Ref_count_base@1@@Z 0041c800 f i EzyjddEngineCW4.obj
 0001:0001b830       ??$_Set_ptr_rep_and_enable_shared@VLoseGameState@@@?$shared_ptr@VLoseGameState@@@std@@AAEXQAVLoseGameState@@QAV_Ref_count_base@1@@Z 0041c830 f i EzyjddEngineCW4.obj
 0001:0001b860       ??$_Set_ptr_rep_and_enable_shared@VPausedState@@@?$shared_ptr@VPausedState@@@std@@AAEXQAVPausedState@@QAV_Ref_count_base@1@@Z 0041c860 f i EzyjddEngineCW4.obj
 0001:0001b890       ??$_Set_ptr_rep_and_enable_shared@VRunningState@@@?$shared_ptr@VRunningState@@@std@@AAEXQAVRunningState@@QAV_Ref_count_base@1@@Z 0041c890 f i EzyjddEngineCW4.obj
 0001:0001b8c0       ??$_Set_ptr_rep_and_enable_shared@VStartupState@@@?$shared_ptr@VStartupState@@@std@@AAEXQAVStartupState@@QAV_Ref_count_base@1@@Z 0041c8c0 f i EzyjddEngineCW4.obj
 0001:0001b8f0       ??$_Set_ptr_rep_and_enable_shared@VWinGameState@@@?$shared_ptr@VWinGameState@@@std@@AAEXQAVWinGameState@@QAV_Ref_count_base@1@@Z 0041c8f0 f i EzyjddEngineCW4.obj
 0001:0001b920       ??$_Set_ptr_rep_and_enable_shared@VZoomInFirstState@@@?$shared_ptr@VZoomInFirstState@@@std@@AAEXQAVZoomInFirstState@@QAV_Ref_count_base@1@@Z 0041c920 f i EzyjddEngineCW4.obj
 0001:0001b950       ??$_Set_ptr_rep_and_enable_shared@VZoomInState@@@?$shared_ptr@VZoomInState@@@std@@AAEXQAVZoomInState@@QAV_Ref_count_base@1@@Z 0041c950 f i EzyjddEngineCW4.obj
 0001:0001b980       ??$_Set_ptr_rep_and_enable_shared@VZoomOutState@@@?$shared_ptr@VZoomOutState@@@std@@AAEXQAVZoomOutState@@QAV_Ref_count_base@1@@Z 0041c980 f i EzyjddEngineCW4.obj
 0001:0001b9b0       ??$_Unfancy@V?$basic_string@DU?$char_traits@D@std@@V?$allocator@D@2@@std@@@std@@YAPAV?$basic_string@DU?$char_traits@D@std@@V?$allocator@D@2@@0@PAV10@@Z 0041c9b0 f i EzyjddEngineCW4.obj
 0001:0001b9c0       ??$_Unfancy@VHighScore@@@std@@YAPAVHighScore@@PAV1@@Z 0041c9c0 f i EzyjddEngineCW4.obj
 0001:0001b9d0       ??$_Ungetc@D@std@@YA_NABDPAU_iobuf@@@Z 0041c9d0 f i EzyjddEngineCW4.obj
 0001:0001ba20       ??$_Uninitialized_move@PAV?$basic_string@DU?$char_traits@D@std@@V?$allocator@D@2@@std@@V?$allocator@V?$basic_string@DU?$char_traits@D@std@@V?$allocator@D@2@@std@@@2@@std@@YAPAV?$basic_string@DU?$char_traits@D@std@@V?$allocator@D@2@@0@QAV10@0PAV10@AAV?$allocator@V?$basic_string@DU?$char_traits@D@std@@V?$allocator@D@2@@std@@@0@@Z 0041ca20 f i EzyjddEngineCW4.obj
 0001:0001bb00       ??$_Uninitialized_move@PAVHighScore@@V?$allocator@VHighScore@@@std@@@std@@YAPAVHighScore@@QAV1@0PAV1@AAV?$allocator@VHighScore@@@0@@Z 0041cb00 f i EzyjddEngineCW4.obj
 0001:0001bbe0       ??$addressof@$$CBV?$codecvt@DDU_Mbstatet@@@std@@@std@@YAPBV?$codecvt@DDU_Mbstatet@@@0@ABV10@@Z 0041cbe0 f i EzyjddEngineCW4.obj
 0001:0001bbf0       ??$addressof@V?$_Vector_val@U?$_Simple_types@VHighScore@@@std@@@std@@@std@@YAPAV?$_Vector_val@U?$_Simple_types@VHighScore@@@std@@@0@AAV10@@Z 0041cbf0 f i EzyjddEngineCW4.obj
 0001:0001bc00       ??$addressof@V?$basic_filebuf@DU?$char_traits@D@std@@@std@@@std@@YAPAV?$basic_filebuf@DU?$char_traits@D@std@@@0@AAV10@@Z 0041cc00 f i EzyjddEngineCW4.obj
 0001:0001bc10       ??$addressof@V?$basic_string@DU?$char_traits@D@std@@V?$allocator@D@2@@std@@@std@@YAPAV?$basic_string@DU?$char_traits@D@std@@V?$allocator@D@2@@0@AAV10@@Z 0041cc10 f i EzyjddEngineCW4.obj
 0001:0001bc20       ??$addressof@VControlsState@@@std@@YAPAVControlsState@@AAV1@@Z 0041cc20 f i EzyjddEngineCW4.obj
 0001:0001bc30       ??$addressof@VHighScore@@@std@@YAPAVHighScore@@AAV1@@Z 0041cc30 f i EzyjddEngineCW4.obj
 0001:0001bc40       ??$addressof@VHighScoresState@@@std@@YAPAVHighScoresState@@AAV1@@Z 0041cc40 f i EzyjddEngineCW4.obj
 0001:0001bc50       ??$addressof@VInstructionsState@@@std@@YAPAVInstructionsState@@AAV1@@Z 0041cc50 f i EzyjddEngineCW4.obj
 0001:0001bc60       ??$addressof@VLevelInstructionsState@@@std@@YAPAVLevelInstructionsState@@AAV1@@Z 0041cc60 f i EzyjddEngineCW4.obj
 0001:0001bc70       ??$addressof@VLoseGameState@@@std@@YAPAVLoseGameState@@AAV1@@Z 0041cc70 f i EzyjddEngineCW4.obj
 0001:0001bc80       ??$addressof@VPausedState@@@std@@YAPAVPausedState@@AAV1@@Z 0041cc80 f i EzyjddEngineCW4.obj
 0001:0001bc90       ??$addressof@VRunningState@@@std@@YAPAVRunningState@@AAV1@@Z 0041cc90 f i EzyjddEngineCW4.obj
 0001:0001bca0       ??$addressof@VStartupState@@@std@@YAPAVStartupState@@AAV1@@Z 0041cca0 f i EzyjddEngineCW4.obj
 0001:0001bcb0       ??$addressof@VWinGameState@@@std@@YAPAVWinGameState@@AAV1@@Z 0041ccb0 f i EzyjddEngineCW4.obj
 0001:0001bcc0       ??$addressof@VZoomInFirstState@@@std@@YAPAVZoomInFirstState@@AAV1@@Z 0041ccc0 f i EzyjddEngineCW4.obj
 0001:0001bcd0       ??$addressof@VZoomInState@@@std@@YAPAVZoomInState@@AAV1@@Z 0041ccd0 f i EzyjddEngineCW4.obj
 0001:0001bce0       ??$addressof@VZoomOutState@@@std@@YAPAVZoomOutState@@AAV1@@Z 0041cce0 f i EzyjddEngineCW4.obj
 0001:0001bcf0       ??$construct@V?$basic_string@DU?$char_traits@D@std@@V?$allocator@D@2@@std@@ABV12@@?$_Default_allocator_traits@V?$allocator@V?$basic_string@DU?$char_traits@D@std@@V?$allocator@D@2@@std@@@std@@@std@@SAXAAV?$allocator@V?$basic_string@DU?$char_traits@D@std@@V?$allocator@D@2@@std@@@1@QAV?$basic_string@DU?$char_traits@D@std@@V?$allocator@D@2@@1@ABV31@@Z 0041ccf0 f i EzyjddEngineCW4.obj
 0001:0001bd30       ??$construct@V?$basic_string@DU?$char_traits@D@std@@V?$allocator@D@2@@std@@V12@@?$_Default_allocator_traits@V?$allocator@V?$basic_string@DU?$char_traits@D@std@@V?$allocator@D@2@@std@@@std@@@std@@SAXAAV?$allocator@V?$basic_string@DU?$char_traits@D@std@@V?$allocator@D@2@@std@@@1@QAV?$basic_string@DU?$char_traits@D@std@@V?$allocator@D@2@@1@$$QAV31@@Z 0041cd30 f i EzyjddEngineCW4.obj
 0001:0001bd70       ??$construct@VHighScore@@V1@@?$_Default_allocator_traits@V?$allocator@VHighScore@@@std@@@std@@SAXAAV?$allocator@VHighScore@@@1@QAVHighScore@@$$QAV3@@Z 0041cd70 f i EzyjddEngineCW4.obj
 0001:0001bdb0       ??$destroy@V?$basic_string@DU?$char_traits@D@std@@V?$allocator@D@2@@std@@@?$_Default_allocator_traits@V?$allocator@V?$basic_string@DU?$char_traits@D@std@@V?$allocator@D@2@@std@@@std@@@std@@SAXAAV?$allocator@V?$basic_string@DU?$char_traits@D@std@@V?$allocator@D@2@@std@@@1@QAV?$basic_string@DU?$char_traits@D@std@@V?$allocator@D@2@@1@@Z 0041cdb0 f i EzyjddEngineCW4.obj
 0001:0001bdd0       ??$destroy@VHighScore@@@?$_Default_allocator_traits@V?$allocator@VHighScore@@@std@@@std@@SAXAAV?$allocator@VHighScore@@@1@QAVHighScore@@@Z 0041cdd0 f i EzyjddEngineCW4.obj
 0001:0001bdf0       ??$emplace@VHighScore@@@?$vector@VHighScore@@V?$allocator@VHighScore@@@std@@@std@@QAE?AV?$_Vector_iterator@V?$_Vector_val@U?$_Simple_types@VHighScore@@@std@@@std@@@1@V?$_Vector_const_iterator@V?$_Vector_val@U?$_Simple_types@VHighScore@@@std@@@std@@@1@$$QAVHighScore@@@Z 0041cdf0 f i EzyjddEngineCW4.obj
 0001:0001c0a0       ??$emplace_back@ABV?$basic_string@DU?$char_traits@D@std@@V?$allocator@D@2@@std@@@?$vector@V?$basic_string@DU?$char_traits@D@std@@V?$allocator@D@2@@std@@V?$allocator@V?$basic_string@DU?$char_traits@D@std@@V?$allocator@D@2@@std@@@2@@std@@QAE@ABV?$basic_string@DU?$char_traits@D@std@@V?$allocator@D@2@@1@@Z 0041d0a0 f i EzyjddEngineCW4.obj
 0001:0001c120       ??$emplace_back@VHighScore@@@?$vector@VHighScore@@V?$allocator@VHighScore@@@std@@@std@@QAE@$$QAVHighScore@@@Z 0041d120 f i EzyjddEngineCW4.obj
 0001:0001c1a0       ??$exchange@PAU_Container_proxy@std@@$$T@std@@YAPAU_Container_proxy@0@AAPAU10@$$QA$$T@Z 0041d1a0 f i EzyjddEngineCW4.obj
 0001:0001c1d0       ??$exchange@PAV_Facet_base@std@@PAV12@@std@@YAPAV_Facet_base@0@AAPAV10@$$QAPAV10@@Z 0041d1d0 f i EzyjddEngineCW4.obj
 0001:0001c200       ??$forward@AAPAV_Facet_base@std@@@std@@YAAAPAV_Facet_base@0@AAPAV10@@Z 0041d200 f i EzyjddEngineCW4.obj
 0001:0001c210       ??$forward@ABV?$basic_string@DU?$char_traits@D@std@@V?$allocator@D@2@@std@@@std@@YAABV?$basic_string@DU?$char_traits@D@std@@V?$allocator@D@2@@0@ABV10@@Z 0041d210 f i EzyjddEngineCW4.obj
 0001:0001c220       ??$forward@PAVEzyjddEngineCW4@@@std@@YA$$QAPAVEzyjddEngineCW4@@AAPAV1@@Z 0041d220 f i EzyjddEngineCW4.obj
 0001:0001c230       ??$forward@VHighScore@@@std@@YA$$QAVHighScore@@AAV1@@Z 0041d230 f i EzyjddEngineCW4.obj
 0001:0001c240       ??$getline@DU?$char_traits@D@std@@V?$allocator@D@2@@std@@YAAAV?$basic_istream@DU?$char_traits@D@std@@@0@$$QAV10@AAV?$basic_string@DU?$char_traits@D@std@@V?$allocator@D@2@@0@D@Z 0041d240 f i EzyjddEngineCW4.obj
 0001:0001c4c0       ??$getline@DU?$char_traits@D@std@@V?$allocator@D@2@@std@@YAAAV?$basic_istream@DU?$char_traits@D@std@@@0@AAV10@AAV?$basic_string@DU?$char_traits@D@std@@V?$allocator@D@2@@0@@Z 0041d4c0 f i EzyjddEngineCW4.obj
 0001:0001c510       ??$make_shared@VControlsState@@PAVEzyjddEngineCW4@@@std@@YA?AV?$shared_ptr@VControlsState@@@0@$$QAPAVEzyjddEngineCW4@@@Z 0041d510 f i EzyjddEngineCW4.obj
 0001:0001c610       ??$make_shared@VHighScoresState@@PAVEzyjddEngineCW4@@@std@@YA?AV?$shared_ptr@VHighScoresState@@@0@$$QAPAVEzyjddEngineCW4@@@Z 0041d610 f i EzyjddEngineCW4.obj
 0001:0001c710       ??$make_shared@VInstructionsState@@PAVEzyjddEngineCW4@@@std@@YA?AV?$shared_ptr@VInstructionsState@@@0@$$QAPAVEzyjddEngineCW4@@@Z 0041d710 f i EzyjddEngineCW4.obj
 0001:0001c810       ??$make_shared@VLevelInstructionsState@@PAVEzyjddEngineCW4@@@std@@YA?AV?$shared_ptr@VLevelInstructionsState@@@0@$$QAPAVEzyjddEngineCW4@@@Z 0041d810 f i EzyjddEngineCW4.obj
 0001:0001c920       ??$make_shared@VLoseGameState@@PAVEzyjddEngineCW4@@@std@@YA?AV?$shared_ptr@VLoseGameState@@@0@$$QAPAVEzyjddEngineCW4@@@Z 0041d920 f i EzyjddEngineCW4.obj
 0001:0001ca20       ??$make_shared@VPausedState@@PAVEzyjddEngineCW4@@@std@@YA?AV?$shared_ptr@VPausedState@@@0@$$QAPAVEzyjddEngineCW4@@@Z 0041da20 f i EzyjddEngineCW4.obj
 0001:0001cb20       ??$make_shared@VRunningState@@PAVEzyjddEngineCW4@@@std@@YA?AV?$shared_ptr@VRunningState@@@0@$$QAPAVEzyjddEngineCW4@@@Z 0041db20 f i EzyjddEngineCW4.obj
 0001:0001cc30       ??$make_shared@VStartupState@@PAVEzyjddEngineCW4@@@std@@YA?AV?$shared_ptr@VStartupState@@@0@$$QAPAVEzyjddEngineCW4@@@Z 0041dc30 f i EzyjddEngineCW4.obj
 0001:0001cd30       ??$make_shared@VWinGameState@@PAVEzyjddEngineCW4@@@std@@YA?AV?$shared_ptr@VWinGameState@@@0@$$QAPAVEzyjddEngineCW4@@@Z 0041dd30 f i EzyjddEngineCW4.obj
 0001:0001ce30       ??$make_shared@VZoomInFirstState@@PAVEzyjddEngineCW4@@@std@@YA?AV?$shared_ptr@VZoomInFirstState@@@0@$$QAPAVEzyjddEngineCW4@@@Z 0041de30 f i EzyjddEngineCW4.obj
 0001:0001cf30       ??$make_shared@VZoomInState@@PAVEzyjddEngineCW4@@@std@@YA?AV?$shared_ptr@VZoomInState@@@0@$$QAPAVEzyjddEngineCW4@@@Z 0041df30 f i EzyjddEngineCW4.obj
 0001:0001d030       ??$make_shared@VZoomOutState@@PAVEzyjddEngineCW4@@@std@@YA?AV?$shared_ptr@VZoomOutState@@@0@$$QAPAVEzyjddEngineCW4@@@Z 0041e030 f i EzyjddEngineCW4.obj
 0001:0001d130       ??$move@AAPAVEngineState@@@std@@YA$$QAPAVEngineState@@AAPAV1@@Z 0041e130 f i EzyjddEngineCW4.obj
 0001:0001d140       ??$move@AAV?$basic_istream@DU?$char_traits@D@std@@@std@@@std@@YA$$QAV?$basic_istream@DU?$char_traits@D@std@@@0@AAV10@@Z 0041e140 f i EzyjddEngineCW4.obj
 0001:0001d150       ??$move@AAV?$shared_ptr@VControlsState@@@std@@@std@@YA$$QAV?$shared_ptr@VControlsState@@@0@AAV10@@Z 0041e150 f i EzyjddEngineCW4.obj
 0001:0001d160       ??$move@AAV?$shared_ptr@VHighScoresState@@@std@@@std@@YA$$QAV?$shared_ptr@VHighScoresState@@@0@AAV10@@Z 0041e160 f i EzyjddEngineCW4.obj
 0001:0001d170       ??$move@AAV?$shared_ptr@VInstructionsState@@@std@@@std@@YA$$QAV?$shared_ptr@VInstructionsState@@@0@AAV10@@Z 0041e170 f i EzyjddEngineCW4.obj
 0001:0001d180       ??$move@AAV?$shared_ptr@VLevelInstructionsState@@@std@@@std@@YA$$QAV?$shared_ptr@VLevelInstructionsState@@@0@AAV10@@Z 0041e180 f i EzyjddEngineCW4.obj
 0001:0001d190       ??$move@AAV?$shared_ptr@VLoseGameState@@@std@@@std@@YA$$QAV?$shared_ptr@VLoseGameState@@@0@AAV10@@Z 0041e190 f i EzyjddEngineCW4.obj
 0001:0001d1a0       ??$move@AAV?$shared_ptr@VPausedState@@@std@@@std@@YA$$QAV?$shared_ptr@VPausedState@@@0@AAV10@@Z 0041e1a0 f i EzyjddEngineCW4.obj
 0001:0001d1b0       ??$move@AAV?$shared_ptr@VRunningState@@@std@@@std@@YA$$QAV?$shared_ptr@VRunningState@@@0@AAV10@@Z 0041e1b0 f i EzyjddEngineCW4.obj
 0001:0001d1c0       ??$move@AAV?$shared_ptr@VStartupState@@@std@@@std@@YA$$QAV?$shared_ptr@VStartupState@@@0@AAV10@@Z 0041e1c0 f i EzyjddEngineCW4.obj
 0001:0001d1d0       ??$move@AAV?$shared_ptr@VWinGameState@@@std@@@std@@YA$$QAV?$shared_ptr@VWinGameState@@@0@AAV10@@Z 0041e1d0 f i EzyjddEngineCW4.obj
 0001:0001d1e0       ??$move@AAV?$shared_ptr@VZoomInFirstState@@@std@@@std@@YA$$QAV?$shared_ptr@VZoomInFirstState@@@0@AAV10@@Z 0041e1e0 f i EzyjddEngineCW4.obj
 0001:0001d1f0       ??$move@AAV?$shared_ptr@VZoomInState@@@std@@@std@@YA$$QAV?$shared_ptr@VZoomInState@@@0@AAV10@@Z 0041e1f0 f i EzyjddEngineCW4.obj
 0001:0001d200       ??$move@AAV?$shared_ptr@VZoomOutState@@@std@@@std@@YA$$QAV?$shared_ptr@VZoomOutState@@@0@AAV10@@Z 0041e200 f i EzyjddEngineCW4.obj
 0001:0001d210       ??$move@AAVHighScore@@@std@@YA$$QAVHighScore@@AAV1@@Z 0041e210 f i EzyjddEngineCW4.obj
 0001:0001d220       ??$static_pointer_cast@VLevelInstructionsState@@VEngineState@@@std@@YA?AV?$shared_ptr@VLevelInstructionsState@@@0@ABV?$shared_ptr@VEngineState@@@0@@Z 0041e220 f i EzyjddEngineCW4.obj
 0001:0001d250       ??$static_pointer_cast@VRunningState@@VEngineState@@@std@@YA?AV?$shared_ptr@VRunningState@@@0@ABV?$shared_ptr@VEngineState@@@0@@Z 0041e250 f i EzyjddEngineCW4.obj
 0001:0001d280       ??$static_pointer_cast@VZoomInState@@VEngineState@@@std@@YA?AV?$shared_ptr@VZoomInState@@@0@ABV?$shared_ptr@VEngineState@@@0@@Z 0041e280 f i EzyjddEngineCW4.obj
 0001:0001d2b0       ??$static_pointer_cast@VZoomOutState@@VEngineState@@@std@@YA?AV?$shared_ptr@VZoomOutState@@@0@ABV?$shared_ptr@VEngineState@@@0@@Z 0041e2b0 f i EzyjddEngineCW4.obj
 0001:0001d2e0       ??$swap@PAVEngineState@@$0A@@std@@YAXAAPAVEngineState@@0@Z 0041e2e0 f i EzyjddEngineCW4.obj
 0001:0001d330       ??$use_facet@V?$codecvt@DDU_Mbstatet@@@std@@@std@@YAABV?$codecvt@DDU_Mbstatet@@@0@ABVlocale@0@@Z 0041e330 f i EzyjddEngineCW4.obj
 0001:0001d480       ??$use_facet@V?$ctype@D@std@@@std@@YAABV?$ctype@D@0@ABVlocale@0@@Z 0041e480 f i EzyjddEngineCW4.obj
 0001:0001d5d0       ??0?$_Ptr_base@VControlsState@@@std@@IAE@XZ 0041e5d0 f i EzyjddEngineCW4.obj
 0001:0001d600       ??0?$_Ptr_base@VEngineState@@@std@@IAE@XZ 0041e600 f i EzyjddEngineCW4.obj
 0001:0001d630       ??0?$_Ptr_base@VHighScoresState@@@std@@IAE@XZ 0041e630 f i EzyjddEngineCW4.obj
 0001:0001d660       ??0?$_Ptr_base@VInstructionsState@@@std@@IAE@XZ 0041e660 f i EzyjddEngineCW4.obj
 0001:0001d690       ??0?$_Ptr_base@VLevelInstructionsState@@@std@@IAE@XZ 0041e690 f i EzyjddEngineCW4.obj
 0001:0001d6c0       ??0?$_Ptr_base@VLoseGameState@@@std@@IAE@XZ 0041e6c0 f i EzyjddEngineCW4.obj
 0001:0001d6f0       ??0?$_Ptr_base@VPausedState@@@std@@IAE@XZ 0041e6f0 f i EzyjddEngineCW4.obj
 0001:0001d720       ??0?$_Ptr_base@VRunningState@@@std@@IAE@XZ 0041e720 f i EzyjddEngineCW4.obj
 0001:0001d750       ??0?$_Ptr_base@VStartupState@@@std@@IAE@XZ 0041e750 f i EzyjddEngineCW4.obj
 0001:0001d780       ??0?$_Ptr_base@VWinGameState@@@std@@IAE@XZ 0041e780 f i EzyjddEngineCW4.obj
 0001:0001d7b0       ??0?$_Ptr_base@VZoomInFirstState@@@std@@IAE@XZ 0041e7b0 f i EzyjddEngineCW4.obj
 0001:0001d7e0       ??0?$_Ptr_base@VZoomInState@@@std@@IAE@XZ 0041e7e0 f i EzyjddEngineCW4.obj
 0001:0001d810       ??0?$_Ptr_base@VZoomOutState@@@std@@IAE@XZ 0041e810 f i EzyjddEngineCW4.obj
 0001:0001d840       ??0?$_Uninitialized_backout_al@V?$allocator@V?$basic_string@DU?$char_traits@D@std@@V?$allocator@D@2@@std@@@std@@@std@@QAE@PAV?$basic_string@DU?$char_traits@D@std@@V?$allocator@D@2@@1@AAV?$allocator@V?$basic_string@DU?$char_traits@D@std@@V?$allocator@D@2@@std@@@1@@Z 0041e840 f i EzyjddEngineCW4.obj
 0001:0001d880       ??0?$_Uninitialized_backout_al@V?$allocator@VHighScore@@@std@@@std@@QAE@PAVHighScore@@AAV?$allocator@VHighScore@@@1@@Z 0041e880 f i EzyjddEngineCW4.obj
 0001:0001d8c0       ??0?$_Vector_const_iterator@V?$_Vector_val@U?$_Simple_types@VHighScore@@@std@@@std@@@std@@QAE@ABV01@@Z 0041e8c0 f i EzyjddEngineCW4.obj
 0001:0001d900       ??0?$_Vector_const_iterator@V?$_Vector_val@U?$_Simple_types@VHighScore@@@std@@@std@@@std@@QAE@PAVHighScore@@PBU_Container_base12@1@@Z 0041e900 f i EzyjddEngineCW4.obj
 0001:0001d940       ??0?$_Vector_iterator@V?$_Vector_val@U?$_Simple_types@VHighScore@@@std@@@std@@@std@@QAE@PAVHighScore@@PBU_Container_base12@1@@Z 0041e940 f i EzyjddEngineCW4.obj
 0001:0001d970       ??0?$_Vector_val@U?$_Simple_types@V?$basic_string@DU?$char_traits@D@std@@V?$allocator@D@2@@std@@@std@@@std@@QAE@XZ 0041e970 f i EzyjddEngineCW4.obj
 0001:0001d9c0       ??0?$_Vector_val@U?$_Simple_types@VHighScore@@@std@@@std@@QAE@XZ 0041e9c0 f i EzyjddEngineCW4.obj
 0001:0001da10       ??0?$allocator@V?$basic_string@DU?$char_traits@D@std@@V?$allocator@D@2@@std@@@std@@QAE@XZ 0041ea10 f i EzyjddEngineCW4.obj
 0001:0001da30       ??0?$allocator@VHighScore@@@std@@QAE@XZ 0041ea30 f i EzyjddEngineCW4.obj
 0001:0001da50       ??0?$basic_filebuf@DU?$char_traits@D@std@@@std@@QAE@XZ 0041ea50 f i EzyjddEngineCW4.obj
 0001:0001dad0       ??0?$basic_fstream@DU?$char_traits@D@std@@@std@@QAE@XZ 0041ead0 f i EzyjddEngineCW4.obj
 0001:0001dbe0       ??0?$basic_string@DU?$char_traits@D@std@@V?$allocator@D@2@@std@@QAE@XZ 0041ebe0 f i EzyjddEngineCW4.obj
 0001:0001dc70       ??0?$fpos@U_Mbstatet@@@std@@QAE@U_Mbstatet@@_J@Z 0041ec70 f i EzyjddEngineCW4.obj
 0001:0001dcc0       ??0?$fpos@U_Mbstatet@@@std@@QAE@_J@Z 0041ecc0 f i EzyjddEngineCW4.obj
 0001:0001dd10       ??0?$shared_ptr@VControlsState@@@std@@QAE@$$QAV01@@Z 0041ed10 f i EzyjddEngineCW4.obj
 0001:0001dd50       ??0?$shared_ptr@VControlsState@@@std@@QAE@XZ 0041ed50 f i EzyjddEngineCW4.obj
 0001:0001dd70       ??0?$shared_ptr@VEngineState@@@std@@QAE@ABV01@@Z 0041ed70 f i EzyjddEngineCW4.obj
 0001:0001dda0       ??0?$shared_ptr@VEngineState@@@std@@QAE@XZ 0041eda0 f i EzyjddEngineCW4.obj
 0001:0001ddc0       ??0?$shared_ptr@VHighScoresState@@@std@@QAE@$$QAV01@@Z 0041edc0 f i EzyjddEngineCW4.obj
 0001:0001de00       ??0?$shared_ptr@VHighScoresState@@@std@@QAE@XZ 0041ee00 f i EzyjddEngineCW4.obj
 0001:0001de20       ??0?$shared_ptr@VInstructionsState@@@std@@QAE@$$QAV01@@Z 0041ee20 f i EzyjddEngineCW4.obj
 0001:0001de60       ??0?$shared_ptr@VInstructionsState@@@std@@QAE@XZ 0041ee60 f i EzyjddEngineCW4.obj
 0001:0001de80       ??0?$shared_ptr@VLevelInstructionsState@@@std@@QAE@$$QAV01@@Z 0041ee80 f i EzyjddEngineCW4.obj
 0001:0001dec0       ??0?$shared_ptr@VLevelInstructionsState@@@std@@QAE@XZ 0041eec0 f i EzyjddEngineCW4.obj
 0001:0001dee0       ??0?$shared_ptr@VLoseGameState@@@std@@QAE@$$QAV01@@Z 0041eee0 f i EzyjddEngineCW4.obj
 0001:0001df20       ??0?$shared_ptr@VLoseGameState@@@std@@QAE@XZ 0041ef20 f i EzyjddEngineCW4.obj
 0001:0001df40       ??0?$shared_ptr@VPausedState@@@std@@QAE@$$QAV01@@Z 0041ef40 f i EzyjddEngineCW4.obj
 0001:0001df80       ??0?$shared_ptr@VPausedState@@@std@@QAE@XZ 0041ef80 f i EzyjddEngineCW4.obj
 0001:0001dfa0       ??0?$shared_ptr@VRunningState@@@std@@QAE@$$QAV01@@Z 0041efa0 f i EzyjddEngineCW4.obj
 0001:0001dfe0       ??0?$shared_ptr@VRunningState@@@std@@QAE@XZ 0041efe0 f i EzyjddEngineCW4.obj
 0001:0001e000       ??0?$shared_ptr@VStartupState@@@std@@QAE@$$QAV01@@Z 0041f000 f i EzyjddEngineCW4.obj
 0001:0001e040       ??0?$shared_ptr@VStartupState@@@std@@QAE@XZ 0041f040 f i EzyjddEngineCW4.obj
 0001:0001e060       ??0?$shared_ptr@VWinGameState@@@std@@QAE@$$QAV01@@Z 0041f060 f i EzyjddEngineCW4.obj
 0001:0001e0a0       ??0?$shared_ptr@VWinGameState@@@std@@QAE@XZ 0041f0a0 f i EzyjddEngineCW4.obj
 0001:0001e0c0       ??0?$shared_ptr@VZoomInFirstState@@@std@@QAE@$$QAV01@@Z 0041f0c0 f i EzyjddEngineCW4.obj
 0001:0001e100       ??0?$shared_ptr@VZoomInFirstState@@@std@@QAE@XZ 0041f100 f i EzyjddEngineCW4.obj
 0001:0001e120       ??0?$shared_ptr@VZoomInState@@@std@@QAE@$$QAV01@@Z 0041f120 f i EzyjddEngineCW4.obj
 0001:0001e160       ??0?$shared_ptr@VZoomInState@@@std@@QAE@XZ 0041f160 f i EzyjddEngineCW4.obj
 0001:0001e180       ??0?$shared_ptr@VZoomOutState@@@std@@QAE@$$QAV01@@Z 0041f180 f i EzyjddEngineCW4.obj
 0001:0001e1c0       ??0?$shared_ptr@VZoomOutState@@@std@@QAE@XZ 0041f1c0 f i EzyjddEngineCW4.obj
 0001:0001e1e0       ??0?$vector@V?$basic_string@DU?$char_traits@D@std@@V?$allocator@D@2@@std@@V?$allocator@V?$basic_string@DU?$char_traits@D@std@@V?$allocator@D@2@@std@@@2@@std@@QAE@XZ 0041f1e0 f i EzyjddEngineCW4.obj
 0001:0001e260       ??0?$vector@VHighScore@@V?$allocator@VHighScore@@@std@@@std@@QAE@XZ 0041f260 f i EzyjddEngineCW4.obj
 0001:0001e2e0       ??0HighScore@@QAE@$$QAV0@@Z 0041f2e0 f i EzyjddEngineCW4.obj
 0001:0001e320       ??0HighScore@@QAE@ABV?$basic_string@DU?$char_traits@D@std@@V?$allocator@D@2@@std@@I@Z 0041f320 f i EzyjddEngineCW4.obj
 0001:0001e350       ??0_Sentry_base@?$basic_istream@DU?$char_traits@D@std@@@std@@QAE@AAV12@@Z 0041f350 f i EzyjddEngineCW4.obj
 0001:0001e3b0       ??0bad_cast@std@@QAE@ABV01@@Z 0041f3b0 f i EzyjddEngineCW4.obj
 0001:0001e3e0       ??0bad_cast@std@@QAE@XZ    0041f3e0 f i EzyjddEngineCW4.obj
 0001:0001e410       ??0sentry@?$basic_istream@DU?$char_traits@D@std@@@std@@QAE@AAV12@_N@Z 0041f410 f i EzyjddEngineCW4.obj
 0001:0001e4a0       ??1?$_Alloc_temporary@V?$allocator@VHighScore@@@std@@@std@@QAE@XZ 0041f4a0 f i EzyjddEngineCW4.obj
 0001:0001e510       ??1?$_Ref_count_obj2@VControlsState@@@std@@UAE@XZ 0041f510 f i EzyjddEngineCW4.obj
 0001:0001e540       ??1?$_Ref_count_obj2@VHighScoresState@@@std@@UAE@XZ 0041f540 f i EzyjddEngineCW4.obj
 0001:0001e570       ??1?$_Ref_count_obj2@VInstructionsState@@@std@@UAE@XZ 0041f570 f i EzyjddEngineCW4.obj
 0001:0001e5a0       ??1?$_Ref_count_obj2@VLevelInstructionsState@@@std@@UAE@XZ 0041f5a0 f i EzyjddEngineCW4.obj
 0001:0001e5d0       ??1?$_Ref_count_obj2@VLoseGameState@@@std@@UAE@XZ 0041f5d0 f i EzyjddEngineCW4.obj
 0001:0001e600       ??1?$_Ref_count_obj2@VPausedState@@@std@@UAE@XZ 0041f600 f i EzyjddEngineCW4.obj
 0001:0001e630       ??1?$_Ref_count_obj2@VRunningState@@@std@@UAE@XZ 0041f630 f i EzyjddEngineCW4.obj
 0001:0001e660       ??1?$_Ref_count_obj2@VStartupState@@@std@@UAE@XZ 0041f660 f i EzyjddEngineCW4.obj
 0001:0001e690       ??1?$_Ref_count_obj2@VWinGameState@@@std@@UAE@XZ 0041f690 f i EzyjddEngineCW4.obj
 0001:0001e6c0       ??1?$_Ref_count_obj2@VZoomInFirstState@@@std@@UAE@XZ 0041f6c0 f i EzyjddEngineCW4.obj
 0001:0001e6f0       ??1?$_Ref_count_obj2@VZoomInState@@@std@@UAE@XZ 0041f6f0 f i EzyjddEngineCW4.obj
 0001:0001e720       ??1?$_Ref_count_obj2@VZoomOutState@@@std@@UAE@XZ 0041f720 f i EzyjddEngineCW4.obj
 0001:0001e750       ??1?$_Uninitialized_backout_al@V?$allocator@V?$basic_string@DU?$char_traits@D@std@@V?$allocator@D@2@@std@@@std@@@std@@QAE@XZ 0041f750 f i EzyjddEngineCW4.obj
 0001:0001e780       ??1?$_Uninitialized_backout_al@V?$allocator@VHighScore@@@std@@@std@@QAE@XZ 0041f780 f i EzyjddEngineCW4.obj
 0001:0001e7b0       ??1?$_Vector_const_iterator@V?$_Vector_val@U?$_Simple_types@VHighScore@@@std@@@std@@@std@@QAE@XZ 0041f7b0 f i EzyjddEngineCW4.obj
 0001:0001e7d0       ??1?$_Vector_iterator@V?$_Vector_val@U?$_Simple_types@VHighScore@@@std@@@std@@@std@@QAE@XZ 0041f7d0 f i EzyjddEngineCW4.obj
 0001:0001e7f0       ??1?$basic_filebuf@DU?$char_traits@D@std@@@std@@UAE@XZ 0041f7f0 f i EzyjddEngineCW4.obj
 0001:0001e880       ??1?$basic_fstream@DU?$char_traits@D@std@@@std@@UAE@XZ 0041f880 f i EzyjddEngineCW4.obj
 0001:0001e8f0       ??1?$shared_ptr@VControlsState@@@std@@QAE@XZ 0041f8f0 f i EzyjddEngineCW4.obj
 0001:0001e910       ??1?$shared_ptr@VEngineState@@@std@@QAE@XZ 0041f910 f i EzyjddEngineCW4.obj
 0001:0001e930       ??1?$shared_ptr@VHighScoresState@@@std@@QAE@XZ 0041f930 f i EzyjddEngineCW4.obj
 0001:0001e950       ??1?$shared_ptr@VInstructionsState@@@std@@QAE@XZ 0041f950 f i EzyjddEngineCW4.obj
 0001:0001e970       ??1?$shared_ptr@VLevelInstructionsState@@@std@@QAE@XZ 0041f970 f i EzyjddEngineCW4.obj
 0001:0001e990       ??1?$shared_ptr@VLoseGameState@@@std@@QAE@XZ 0041f990 f i EzyjddEngineCW4.obj
 0001:0001e9b0       ??1?$shared_ptr@VPausedState@@@std@@QAE@XZ 0041f9b0 f i EzyjddEngineCW4.obj
 0001:0001e9d0       ??1?$shared_ptr@VRunningState@@@std@@QAE@XZ 0041f9d0 f i EzyjddEngineCW4.obj
 0001:0001e9f0       ??1?$shared_ptr@VStartupState@@@std@@QAE@XZ 0041f9f0 f i EzyjddEngineCW4.obj
 0001:0001ea10       ??1?$shared_ptr@VWinGameState@@@std@@QAE@XZ 0041fa10 f i EzyjddEngineCW4.obj
 0001:0001ea30       ??1?$shared_ptr@VZoomInFirstState@@@std@@QAE@XZ 0041fa30 f i EzyjddEngineCW4.obj
 0001:0001ea50       ??1?$shared_ptr@VZoomInState@@@std@@QAE@XZ 0041fa50 f i EzyjddEngineCW4.obj
 0001:0001ea70       ??1?$shared_ptr@VZoomOutState@@@std@@QAE@XZ 0041fa70 f i EzyjddEngineCW4.obj
 0001:0001ea90       ??1?$unique_ptr@V_Facet_base@std@@U?$default_delete@V_Facet_base@std@@@2@@std@@QAE@XZ 0041fa90 f i EzyjddEngineCW4.obj
 0001:0001ead0       ??1?$vector@V?$basic_string@DU?$char_traits@D@std@@V?$allocator@D@2@@std@@V?$allocator@V?$basic_string@DU?$char_traits@D@std@@V?$allocator@D@2@@std@@@2@@std@@QAE@XZ 0041fad0 f i EzyjddEngineCW4.obj
 0001:0001eb40       ??1?$vector@VHighScore@@V?$allocator@VHighScore@@@std@@@std@@QAE@XZ 0041fb40 f i EzyjddEngineCW4.obj
 0001:0001ebb0       ??1HighScore@@QAE@XZ       0041fbb0 f i EzyjddEngineCW4.obj
 0001:0001ebd0       ??1_Sentry_base@?$basic_istream@DU?$char_traits@D@std@@@std@@QAE@XZ 0041fbd0 f i EzyjddEngineCW4.obj
 0001:0001ec50       ??1bad_cast@std@@UAE@XZ    0041fc50 f i EzyjddEngineCW4.obj
 0001:0001ec70       ??1locale@std@@QAE@XZ      0041fc70 f i EzyjddEngineCW4.obj
 0001:0001ecd0       ??1sentry@?$basic_istream@DU?$char_traits@D@std@@@std@@QAE@XZ 0041fcd0 f i EzyjddEngineCW4.obj
 0001:0001ecf0       ??4?$basic_string@DU?$char_traits@D@std@@V?$allocator@D@2@@std@@QAEAAV01@$$QAV01@@Z 0041fcf0 f i EzyjddEngineCW4.obj
 0001:0001ed40       ??4?$shared_ptr@VEngineState@@@std@@QAEAAV01@ABV01@@Z 0041fd40 f i EzyjddEngineCW4.obj
 0001:0001ed80       ??4HighScore@@QAEAAV0@$$QAV0@@Z 0041fd80 f i EzyjddEngineCW4.obj
 0001:0001edc0       ??8?$_Vector_const_iterator@V?$_Vector_val@U?$_Simple_types@VHighScore@@@std@@@std@@@std@@QBE_NABV01@@Z 0041fdc0 f i EzyjddEngineCW4.obj
 0001:0001ee10       ??9?$_Vector_const_iterator@V?$_Vector_val@U?$_Simple_types@VHighScore@@@std@@@std@@@std@@QBE_NABV01@@Z 0041fe10 f i EzyjddEngineCW4.obj
 0001:0001ee60       ??A?$vector@VHighScore@@V?$allocator@VHighScore@@@std@@@std@@QAEAAVHighScore@@I@Z 0041fe60 f i EzyjddEngineCW4.obj
 0001:0001ef10       ??B?$fpos@U_Mbstatet@@@std@@QBE_JXZ 0041ff10 f i EzyjddEngineCW4.obj
 0001:0001ef40       ??Bsentry@?$basic_istream@DU?$char_traits@D@std@@@std@@QBE_NXZ 0041ff40 f i EzyjddEngineCW4.obj
 0001:0001ef60       ??D?$_Vector_const_iterator@V?$_Vector_val@U?$_Simple_types@VHighScore@@@std@@@std@@@std@@QBEABVHighScore@@XZ 0041ff60 f i EzyjddEngineCW4.obj
 0001:0001f070       ??D?$_Vector_iterator@V?$_Vector_val@U?$_Simple_types@VHighScore@@@std@@@std@@@std@@QBEAAVHighScore@@XZ 00420070 f i EzyjddEngineCW4.obj
 0001:0001f090       ??E?$_Vector_const_iterator@V?$_Vector_val@U?$_Simple_types@VHighScore@@@std@@@std@@@std@@QAEAAV01@XZ 00420090 f i EzyjddEngineCW4.obj
 0001:0001f1a0       ??E?$_Vector_iterator@V?$_Vector_val@U?$_Simple_types@VHighScore@@@std@@@std@@@std@@QAEAAV01@XZ 004201a0 f i EzyjddEngineCW4.obj
 0001:0001f1c0       ??R<lambda_15711c68e099a15a58f4d77303cb286d>@@QBE@QADQBDID@Z 004201c0 f i EzyjddEngineCW4.obj
 0001:0001f230       ??R?$default_delete@V_Facet_base@std@@@std@@QBEXPAV_Facet_base@1@@Z 00420230 f i EzyjddEngineCW4.obj
 0001:0001f280       ??Y?$basic_string@DU?$char_traits@D@std@@V?$allocator@D@2@@std@@QAEAAV01@D@Z 00420280 f i EzyjddEngineCW4.obj
 0001:0001f2b0       ??_D?$basic_fstream@DU?$char_traits@D@std@@@std@@QAEXXZ 004202b0 f i EzyjddEngineCW4.obj
 0001:0001f2da       ??_E?$basic_fstream@DU?$char_traits@D@std@@@std@@$4PPPPPPPM@A@AEPAXI@Z 004202da f i EzyjddEngineCW4.obj
 0001:0001f2f0       ??_G?$_Ref_count_obj2@VControlsState@@@std@@UAEPAXI@Z 004202f0 f i EzyjddEngineCW4.obj
 0001:0001f2f0       ??_E?$_Ref_count_obj2@VControlsState@@@std@@UAEPAXI@Z 004202f0 f i EzyjddEngineCW4.obj
 0001:0001f330       ??_G?$_Ref_count_obj2@VHighScoresState@@@std@@UAEPAXI@Z 00420330 f i EzyjddEngineCW4.obj
 0001:0001f330       ??_E?$_Ref_count_obj2@VHighScoresState@@@std@@UAEPAXI@Z 00420330 f i EzyjddEngineCW4.obj
 0001:0001f370       ??_E?$_Ref_count_obj2@VInstructionsState@@@std@@UAEPAXI@Z 00420370 f i EzyjddEngineCW4.obj
 0001:0001f370       ??_G?$_Ref_count_obj2@VInstructionsState@@@std@@UAEPAXI@Z 00420370 f i EzyjddEngineCW4.obj
 0001:0001f3b0       ??_G?$_Ref_count_obj2@VLevelInstructionsState@@@std@@UAEPAXI@Z 004203b0 f i EzyjddEngineCW4.obj
 0001:0001f3b0       ??_E?$_Ref_count_obj2@VLevelInstructionsState@@@std@@UAEPAXI@Z 004203b0 f i EzyjddEngineCW4.obj
 0001:0001f3f0       ??_E?$_Ref_count_obj2@VLoseGameState@@@std@@UAEPAXI@Z 004203f0 f i EzyjddEngineCW4.obj
 0001:0001f3f0       ??_G?$_Ref_count_obj2@VLoseGameState@@@std@@UAEPAXI@Z 004203f0 f i EzyjddEngineCW4.obj
 0001:0001f430       ??_E?$_Ref_count_obj2@VPausedState@@@std@@UAEPAXI@Z 00420430 f i EzyjddEngineCW4.obj
 0001:0001f430       ??_G?$_Ref_count_obj2@VPausedState@@@std@@UAEPAXI@Z 00420430 f i EzyjddEngineCW4.obj
 0001:0001f470       ??_G?$_Ref_count_obj2@VRunningState@@@std@@UAEPAXI@Z 00420470 f i EzyjddEngineCW4.obj
 0001:0001f470       ??_E?$_Ref_count_obj2@VRunningState@@@std@@UAEPAXI@Z 00420470 f i EzyjddEngineCW4.obj
 0001:0001f4b0       ??_G?$_Ref_count_obj2@VStartupState@@@std@@UAEPAXI@Z 004204b0 f i EzyjddEngineCW4.obj
 0001:0001f4b0       ??_E?$_Ref_count_obj2@VStartupState@@@std@@UAEPAXI@Z 004204b0 f i EzyjddEngineCW4.obj
 0001:0001f4f0       ??_E?$_Ref_count_obj2@VWinGameState@@@std@@UAEPAXI@Z 004204f0 f i EzyjddEngineCW4.obj
 0001:0001f4f0       ??_G?$_Ref_count_obj2@VWinGameState@@@std@@UAEPAXI@Z 004204f0 f i EzyjddEngineCW4.obj
 0001:0001f530       ??_E?$_Ref_count_obj2@VZoomInFirstState@@@std@@UAEPAXI@Z 00420530 f i EzyjddEngineCW4.obj
 0001:0001f530       ??_G?$_Ref_count_obj2@VZoomInFirstState@@@std@@UAEPAXI@Z 00420530 f i EzyjddEngineCW4.obj
 0001:0001f570       ??_E?$_Ref_count_obj2@VZoomInState@@@std@@UAEPAXI@Z 00420570 f i EzyjddEngineCW4.obj
 0001:0001f570       ??_G?$_Ref_count_obj2@VZoomInState@@@std@@UAEPAXI@Z 00420570 f i EzyjddEngineCW4.obj
 0001:0001f5b0       ??_E?$_Ref_count_obj2@VZoomOutState@@@std@@UAEPAXI@Z 004205b0 f i EzyjddEngineCW4.obj
 0001:0001f5b0       ??_G?$_Ref_count_obj2@VZoomOutState@@@std@@UAEPAXI@Z 004205b0 f i EzyjddEngineCW4.obj
 0001:0001f5f0       ??_E?$basic_filebuf@DU?$char_traits@D@std@@@std@@UAEPAXI@Z 004205f0 f i EzyjddEngineCW4.obj
 0001:0001f5f0       ??_G?$basic_filebuf@DU?$char_traits@D@std@@@std@@UAEPAXI@Z 004205f0 f i EzyjddEngineCW4.obj
 0001:0001f630       ??_E?$basic_fstream@DU?$char_traits@D@std@@@std@@UAEPAXI@Z 00420630 f i EzyjddEngineCW4.obj
 0001:0001f630       ??_G?$basic_fstream@DU?$char_traits@D@std@@@std@@UAEPAXI@Z 00420630 f i EzyjddEngineCW4.obj
 0001:0001f680       ??_G?$basic_string@DU?$char_traits@D@std@@V?$allocator@D@2@@std@@QAEPAXI@Z 00420680 f i EzyjddEngineCW4.obj
 0001:0001f6c0       ??_GEzyjddEngineCW4@@UAEPAXI@Z 004206c0 f i EzyjddEngineCW4.obj
 0001:0001f6c0       ??_EEzyjddEngineCW4@@UAEPAXI@Z 004206c0 f i EzyjddEngineCW4.obj
 0001:0001f700       ??_GHighScore@@QAEPAXI@Z   00420700 f i EzyjddEngineCW4.obj
 0001:0001f740       ??_GHighScoresState@@UAEPAXI@Z 00420740 f i EzyjddEngineCW4.obj
 0001:0001f740       ??_EHighScoresState@@UAEPAXI@Z 00420740 f i EzyjddEngineCW4.obj
 0001:0001f780       ??_EInstructionsState@@UAEPAXI@Z 00420780 f i EzyjddEngineCW4.obj
 0001:0001f780       ??_GInstructionsState@@UAEPAXI@Z 00420780 f i EzyjddEngineCW4.obj
 0001:0001f7c0       ??_GLevelInstructionsState@@UAEPAXI@Z 004207c0 f i EzyjddEngineCW4.obj
 0001:0001f7c0       ??_ELevelInstructionsState@@UAEPAXI@Z 004207c0 f i EzyjddEngineCW4.obj
 0001:0001f800       ??_GPausedState@@UAEPAXI@Z 00420800 f i EzyjddEngineCW4.obj
 0001:0001f800       ??_EPausedState@@UAEPAXI@Z 00420800 f i EzyjddEngineCW4.obj
 0001:0001f840       ??_ERunningState@@UAEPAXI@Z 00420840 f i EzyjddEngineCW4.obj
 0001:0001f840       ??_GRunningState@@UAEPAXI@Z 00420840 f i EzyjddEngineCW4.obj
 0001:0001f880       ??_GStartupState@@UAEPAXI@Z 00420880 f i EzyjddEngineCW4.obj
 0001:0001f880       ??_EStartupState@@UAEPAXI@Z 00420880 f i EzyjddEngineCW4.obj
 0001:0001f8c0       ??_Gbad_cast@std@@UAEPAXI@Z 004208c0 f i EzyjddEngineCW4.obj
 0001:0001f8c0       ??_Ebad_cast@std@@UAEPAXI@Z 004208c0 f i EzyjddEngineCW4.obj
 0001:0001f900       ?_Calculate_growth@?$vector@V?$basic_string@DU?$char_traits@D@std@@V?$allocator@D@2@@std@@V?$allocator@V?$basic_string@DU?$char_traits@D@std@@V?$allocator@D@2@@std@@@2@@std@@ABEII@Z 00420900 f i EzyjddEngineCW4.obj
 0001:0001f970       ?_Calculate_growth@?$vector@VHighScore@@V?$allocator@VHighScore@@@std@@@std@@ABEII@Z 00420970 f i EzyjddEngineCW4.obj
 0001:0001f9e0       ?_Change_array@?$vector@V?$basic_string@DU?$char_traits@D@std@@V?$allocator@D@2@@std@@V?$allocator@V?$basic_string@DU?$char_traits@D@std@@V?$allocator@D@2@@std@@@2@@std@@AAEXQAV?$basic_string@DU?$char_traits@D@std@@V?$allocator@D@2@@2@II@Z 004209e0 f i EzyjddEngineCW4.obj
 0001:0001fab0       ?_Change_array@?$vector@VHighScore@@V?$allocator@VHighScore@@@std@@@std@@AAEXQAVHighScore@@II@Z 00420ab0 f i EzyjddEngineCW4.obj
 0001:0001fb80       ?_Clamp_suffix_size@?$_String_val@U?$_Simple_types@D@std@@@std@@QBEIII@Z 00420b80 f i EzyjddEngineCW4.obj
 0001:0001fbc0       ?_Compat@?$_Vector_const_iterator@V?$_Vector_val@U?$_Simple_types@VHighScore@@@std@@@std@@@std@@QBEXABV12@@Z 00420bc0 f i EzyjddEngineCW4.obj
 0001:0001fc60       ?_Decref@?$_Ptr_base@VControlsState@@@std@@IAEXXZ 00420c60 f i EzyjddEngineCW4.obj
 0001:0001fc90       ?_Decref@?$_Ptr_base@VEngineState@@@std@@IAEXXZ 00420c90 f i EzyjddEngineCW4.obj
 0001:0001fcc0       ?_Decref@?$_Ptr_base@VHighScoresState@@@std@@IAEXXZ 00420cc0 f i EzyjddEngineCW4.obj
 0001:0001fcf0       ?_Decref@?$_Ptr_base@VInstructionsState@@@std@@IAEXXZ 00420cf0 f i EzyjddEngineCW4.obj
 0001:0001fd20       ?_Decref@?$_Ptr_base@VLevelInstructionsState@@@std@@IAEXXZ 00420d20 f i EzyjddEngineCW4.obj
 0001:0001fd50       ?_Decref@?$_Ptr_base@VLoseGameState@@@std@@IAEXXZ 00420d50 f i EzyjddEngineCW4.obj
 0001:0001fd80       ?_Decref@?$_Ptr_base@VPausedState@@@std@@IAEXXZ 00420d80 f i EzyjddEngineCW4.obj
 0001:0001fdb0       ?_Decref@?$_Ptr_base@VRunningState@@@std@@IAEXXZ 00420db0 f i EzyjddEngineCW4.obj
 0001:0001fde0       ?_Decref@?$_Ptr_base@VStartupState@@@std@@IAEXXZ 00420de0 f i EzyjddEngineCW4.obj
 0001:0001fe10       ?_Decref@?$_Ptr_base@VWinGameState@@@std@@IAEXXZ 00420e10 f i EzyjddEngineCW4.obj
 0001:0001fe40       ?_Decref@?$_Ptr_base@VZoomInFirstState@@@std@@IAEXXZ 00420e40 f i EzyjddEngineCW4.obj
 0001:0001fe70       ?_Decref@?$_Ptr_base@VZoomInState@@@std@@IAEXXZ 00420e70 f i EzyjddEngineCW4.obj
 0001:0001fea0       ?_Decref@?$_Ptr_base@VZoomOutState@@@std@@IAEXXZ 00420ea0 f i EzyjddEngineCW4.obj
 0001:0001fed0       ?_Delete_this@?$_Ref_count_obj2@VControlsState@@@std@@EAEXXZ 00420ed0 f i EzyjddEngineCW4.obj
 0001:0001ff20       ?_Delete_this@?$_Ref_count_obj2@VHighScoresState@@@std@@EAEXXZ 00420f20 f i EzyjddEngineCW4.obj
 0001:0001ff70       ?_Delete_this@?$_Ref_count_obj2@VInstructionsState@@@std@@EAEXXZ 00420f70 f i EzyjddEngineCW4.obj
 0001:0001ffc0       ?_Delete_this@?$_Ref_count_obj2@VLevelInstructionsState@@@std@@EAEXXZ 00420fc0 f i EzyjddEngineCW4.obj
 0001:00020010       ?_Delete_this@?$_Ref_count_obj2@VLoseGameState@@@std@@EAEXXZ 00421010 f i EzyjddEngineCW4.obj
 0001:00020060       ?_Delete_this@?$_Ref_count_obj2@VPausedState@@@std@@EAEXXZ 00421060 f i EzyjddEngineCW4.obj
 0001:000200b0       ?_Delete_this@?$_Ref_count_obj2@VRunningState@@@std@@EAEXXZ 004210b0 f i EzyjddEngineCW4.obj
 0001:00020100       ?_Delete_this@?$_Ref_count_obj2@VStartupState@@@std@@EAEXXZ 00421100 f i EzyjddEngineCW4.obj
 0001:00020150       ?_Delete_this@?$_Ref_count_obj2@VWinGameState@@@std@@EAEXXZ 00421150 f i EzyjddEngineCW4.obj
 0001:000201a0       ?_Delete_this@?$_Ref_count_obj2@VZoomInFirstState@@@std@@EAEXXZ 004211a0 f i EzyjddEngineCW4.obj
 0001:000201f0       ?_Delete_this@?$_Ref_count_obj2@VZoomInState@@@std@@EAEXXZ 004211f0 f i EzyjddEngineCW4.obj
 0001:00020240       ?_Delete_this@?$_Ref_count_obj2@VZoomOutState@@@std@@EAEXXZ 00421240 f i EzyjddEngineCW4.obj
 0001:00020290       ?_Destroy@?$_Ref_count_obj2@VControlsState@@@std@@EAEXXZ 00421290 f i EzyjddEngineCW4.obj
 0001:000202b0       ?_Destroy@?$_Ref_count_obj2@VHighScoresState@@@std@@EAEXXZ 004212b0 f i EzyjddEngineCW4.obj
 0001:000202d0       ?_Destroy@?$_Ref_count_obj2@VInstructionsState@@@std@@EAEXXZ 004212d0 f i EzyjddEngineCW4.obj
 0001:000202f0       ?_Destroy@?$_Ref_count_obj2@VLevelInstructionsState@@@std@@EAEXXZ 004212f0 f i EzyjddEngineCW4.obj
 0001:00020310       ?_Destroy@?$_Ref_count_obj2@VLoseGameState@@@std@@EAEXXZ 00421310 f i EzyjddEngineCW4.obj
 0001:00020330       ?_Destroy@?$_Ref_count_obj2@VPausedState@@@std@@EAEXXZ 00421330 f i EzyjddEngineCW4.obj
 0001:00020350       ?_Destroy@?$_Ref_count_obj2@VRunningState@@@std@@EAEXXZ 00421350 f i EzyjddEngineCW4.obj
 0001:00020370       ?_Destroy@?$_Ref_count_obj2@VStartupState@@@std@@EAEXXZ 00421370 f i EzyjddEngineCW4.obj
 0001:00020390       ?_Destroy@?$_Ref_count_obj2@VWinGameState@@@std@@EAEXXZ 00421390 f i EzyjddEngineCW4.obj
 0001:000203b0       ?_Destroy@?$_Ref_count_obj2@VZoomInFirstState@@@std@@EAEXXZ 004213b0 f i EzyjddEngineCW4.obj
 0001:000203d0       ?_Destroy@?$_Ref_count_obj2@VZoomInState@@@std@@EAEXXZ 004213d0 f i EzyjddEngineCW4.obj
 0001:000203f0       ?_Destroy@?$_Ref_count_obj2@VZoomOutState@@@std@@EAEXXZ 004213f0 f i EzyjddEngineCW4.obj
 0001:00020410       ?_Destroy@?$vector@V?$basic_string@DU?$char_traits@D@std@@V?$allocator@D@2@@std@@V?$allocator@V?$basic_string@DU?$char_traits@D@std@@V?$allocator@D@2@@std@@@2@@std@@AAEXPAV?$basic_string@DU?$char_traits@D@std@@V?$allocator@D@2@@2@0@Z 00421410 f i EzyjddEngineCW4.obj
 0001:00020440       ?_Destroy@?$vector@VHighScore@@V?$allocator@VHighScore@@@std@@@std@@AAEXPAVHighScore@@0@Z 00421440 f i EzyjddEngineCW4.obj
 0001:00020470       ?_Endwrite@?$basic_filebuf@DU?$char_traits@D@std@@@std@@IAE_NXZ 00421470 f i EzyjddEngineCW4.obj
 0001:000205d0       ?_Eos@?$basic_string@DU?$char_traits@D@std@@V?$allocator@D@2@@std@@AAEXI@Z 004215d0 f i EzyjddEngineCW4.obj
 0001:00020620       ?_Get_first@?$_Compressed_pair@U?$default_delete@V_Facet_base@std@@@std@@PAV_Facet_base@2@$00@std@@QAEAAU?$default_delete@V_Facet_base@std@@@2@XZ 00421620 f i EzyjddEngineCW4.obj
 0001:00020640       ?_Get_first@?$_Compressed_pair@V?$allocator@V?$basic_string@DU?$char_traits@D@std@@V?$allocator@D@2@@std@@@std@@V?$_Vector_val@U?$_Simple_types@V?$basic_string@DU?$char_traits@D@std@@V?$allocator@D@2@@std@@@std@@@2@$00@std@@QAEAAV?$allocator@V?$basic_string@DU?$char_traits@D@std@@V?$allocator@D@2@@std@@@2@XZ 00421640 f i EzyjddEngineCW4.obj
 0001:00020660       ?_Get_first@?$_Compressed_pair@V?$allocator@V?$basic_string@DU?$char_traits@D@std@@V?$allocator@D@2@@std@@@std@@V?$_Vector_val@U?$_Simple_types@V?$basic_string@DU?$char_traits@D@std@@V?$allocator@D@2@@std@@@std@@@2@$00@std@@QBEABV?$allocator@V?$basic_string@DU?$char_traits@D@std@@V?$allocator@D@2@@std@@@2@XZ 00421660 f i EzyjddEngineCW4.obj
 0001:00020680       ?_Get_first@?$_Compressed_pair@V?$allocator@VHighScore@@@std@@V?$_Vector_val@U?$_Simple_types@VHighScore@@@std@@@2@$00@std@@QAEAAV?$allocator@VHighScore@@@2@XZ 00421680 f i EzyjddEngineCW4.obj
 0001:000206a0       ?_Get_first@?$_Compressed_pair@V?$allocator@VHighScore@@@std@@V?$_Vector_val@U?$_Simple_types@VHighScore@@@std@@@2@$00@std@@QBEABV?$allocator@VHighScore@@@2@XZ 004216a0 f i EzyjddEngineCW4.obj
 0001:000206c0       ?_Getal@?$vector@V?$basic_string@DU?$char_traits@D@std@@V?$allocator@D@2@@std@@V?$allocator@V?$basic_string@DU?$char_traits@D@std@@V?$allocator@D@2@@std@@@2@@std@@AAEAAV?$allocator@V?$basic_string@DU?$char_traits@D@std@@V?$allocator@D@2@@std@@@2@XZ 004216c0 f i EzyjddEngineCW4.obj
 0001:000206e0       ?_Getal@?$vector@V?$basic_string@DU?$char_traits@D@std@@V?$allocator@D@2@@std@@V?$allocator@V?$basic_string@DU?$char_traits@D@std@@V?$allocator@D@2@@std@@@2@@std@@ABEABV?$allocator@V?$basic_string@DU?$char_traits@D@std@@V?$allocator@D@2@@std@@@2@XZ 004216e0 f i EzyjddEngineCW4.obj
 0001:00020700       ?_Getal@?$vector@VHighScore@@V?$allocator@VHighScore@@@std@@@std@@AAEAAV?$allocator@VHighScore@@@2@XZ 00421700 f i EzyjddEngineCW4.obj
 0001:00020720       ?_Getal@?$vector@VHighScore@@V?$allocator@VHighScore@@@std@@@std@@ABEABV?$allocator@VHighScore@@@2@XZ 00421720 f i EzyjddEngineCW4.obj
 0001:00020740       ?_Getfacet@locale@std@@QBEPBVfacet@12@I@Z 00421740 f i EzyjddEngineCW4.obj
 0001:000207e0       ?_Init@?$basic_filebuf@DU?$char_traits@D@std@@@std@@IAEXPAU_iobuf@@W4_Initfl@12@@Z 004217e0 f i EzyjddEngineCW4.obj
 0001:000208e0       ?_Initcvt@?$basic_filebuf@DU?$char_traits@D@std@@@std@@IAEXABV?$codecvt@DDU_Mbstatet@@@2@@Z 004218e0 f i EzyjddEngineCW4.obj
 0001:00020940       ?_Lock@?$basic_filebuf@DU?$char_traits@D@std@@@std@@UAEXXZ 00421940 f i EzyjddEngineCW4.obj
 0001:00020970       ?_Make_iterator@?$vector@VHighScore@@V?$allocator@VHighScore@@@std@@@std@@AAE?AV?$_Vector_iterator@V?$_Vector_val@U?$_Simple_types@VHighScore@@@std@@@std@@@2@QAVHighScore@@@Z 00421970 f i EzyjddEngineCW4.obj
 0001:000209b0       ?_Move_assign@?$basic_string@DU?$char_traits@D@std@@V?$allocator@D@2@@std@@AAEXAAV12@U_Equal_allocators@2@@Z 004219b0 f i EzyjddEngineCW4.obj
 0001:00020a10       ?_Orphan_range@?$vector@V?$basic_string@DU?$char_traits@D@std@@V?$allocator@D@2@@std@@V?$allocator@V?$basic_string@DU?$char_traits@D@std@@V?$allocator@D@2@@std@@@2@@std@@ABEXPAV?$basic_string@DU?$char_traits@D@std@@V?$allocator@D@2@@2@0@Z 00421a10 f i EzyjddEngineCW4.obj
 0001:00020ab0       ?_Orphan_range@?$vector@VHighScore@@V?$allocator@VHighScore@@@std@@@std@@ABEXPAVHighScore@@0@Z 00421ab0 f i EzyjddEngineCW4.obj
 0001:00020b50       ?_Release@?$_Uninitialized_backout_al@V?$allocator@V?$basic_string@DU?$char_traits@D@std@@V?$allocator@D@2@@std@@@std@@@std@@QAEPAV?$basic_string@DU?$char_traits@D@std@@V?$allocator@D@2@@2@XZ 00421b50 f i EzyjddEngineCW4.obj
 0001:00020b80       ?_Release@?$_Uninitialized_backout_al@V?$allocator@VHighScore@@@std@@@std@@QAEPAVHighScore@@XZ 00421b80 f i EzyjddEngineCW4.obj
 0001:00020bb0       ?_Reset_back@?$basic_filebuf@DU?$char_traits@D@std@@@std@@AAEXXZ 00421bb0 f i EzyjddEngineCW4.obj
 0001:00020c00       ?_Set_back@?$basic_filebuf@DU?$char_traits@D@std@@@std@@AAEXXZ 00421c00 f i EzyjddEngineCW4.obj
 0001:00020c70       ?_Swap@?$_Ptr_base@VEngineState@@@std@@IAEXAAV12@@Z 00421c70 f i EzyjddEngineCW4.obj
 0001:00020cb0       ?_Throw_bad_cast@std@@YAXXZ 00421cb0 f i EzyjddEngineCW4.obj
 0001:00020ce0       ?_Tidy@?$vector@V?$basic_string@DU?$char_traits@D@std@@V?$allocator@D@2@@std@@V?$allocator@V?$basic_string@DU?$char_traits@D@std@@V?$allocator@D@2@@std@@@2@@std@@AAEXXZ 00421ce0 f i EzyjddEngineCW4.obj
 0001:00020dd0       ?_Tidy@?$vector@VHighScore@@V?$allocator@VHighScore@@@std@@@std@@AAEXXZ 00421dd0 f i EzyjddEngineCW4.obj
 0001:00020ec0       ?_Umove@?$vector@V?$basic_string@DU?$char_traits@D@std@@V?$allocator@D@2@@std@@V?$allocator@V?$basic_string@DU?$char_traits@D@std@@V?$allocator@D@2@@std@@@2@@std@@AAEPAV?$basic_string@DU?$char_traits@D@std@@V?$allocator@D@2@@2@PAV32@00@Z 00421ec0 f i EzyjddEngineCW4.obj
 0001:00020f00       ?_Umove@?$vector@VHighScore@@V?$allocator@VHighScore@@@std@@@std@@AAEPAVHighScore@@PAV3@00@Z 00421f00 f i EzyjddEngineCW4.obj
 0001:00020f40       ?_Umove_if_noexcept1@?$vector@V?$basic_string@DU?$char_traits@D@std@@V?$allocator@D@2@@std@@V?$allocator@V?$basic_string@DU?$char_traits@D@std@@V?$allocator@D@2@@std@@@2@@std@@AAEXPAV?$basic_string@DU?$char_traits@D@std@@V?$allocator@D@2@@2@00U?$integral_constant@_N$00@2@@Z 00421f40 f i EzyjddEngineCW4.obj
 0001:00020f80       ?_Umove_if_noexcept1@?$vector@VHighScore@@V?$allocator@VHighScore@@@std@@@std@@AAEXPAVHighScore@@00U?$integral_constant@_N$00@2@@Z 00421f80 f i EzyjddEngineCW4.obj
 0001:00020fc0       ?_Umove_if_noexcept@?$vector@V?$basic_string@DU?$char_traits@D@std@@V?$allocator@D@2@@std@@V?$allocator@V?$basic_string@DU?$char_traits@D@std@@V?$allocator@D@2@@std@@@2@@std@@AAEXPAV?$basic_string@DU?$char_traits@D@std@@V?$allocator@D@2@@2@00@Z 00421fc0 f i EzyjddEngineCW4.obj
 0001:00021000       ?_Umove_if_noexcept@?$vector@VHighScore@@V?$allocator@VHighScore@@@std@@@std@@AAEXPAVHighScore@@00@Z 00422000 f i EzyjddEngineCW4.obj
 0001:00021040       ?_Unlock@?$basic_filebuf@DU?$char_traits@D@std@@@std@@UAEXXZ 00422040 f i EzyjddEngineCW4.obj
 0001:00021070       ?_Xlength@?$vector@V?$basic_string@DU?$char_traits@D@std@@V?$allocator@D@2@@std@@V?$allocator@V?$basic_string@DU?$char_traits@D@std@@V?$allocator@D@2@@std@@@2@@std@@CAXXZ 00422070 f i EzyjddEngineCW4.obj
 0001:00021090       ?_Xlength@?$vector@VHighScore@@V?$allocator@VHighScore@@@std@@@std@@CAXXZ 00422090 f i EzyjddEngineCW4.obj
 0001:000210b0       ?allocate@?$allocator@V?$basic_string@DU?$char_traits@D@std@@V?$allocator@D@2@@std@@@std@@QAEPAV?$basic_string@DU?$char_traits@D@std@@V?$allocator@D@2@@2@I@Z 004220b0 f i EzyjddEngineCW4.obj
 0001:000210e0       ?allocate@?$allocator@VHighScore@@@std@@QAEPAVHighScore@@I@Z 004220e0 f i EzyjddEngineCW4.obj
 0001:00021110       ?begin@?$vector@VHighScore@@V?$allocator@VHighScore@@@std@@@std@@QAE?AV?$_Vector_iterator@V?$_Vector_val@U?$_Simple_types@VHighScore@@@std@@@std@@@2@XZ 00422110 f i EzyjddEngineCW4.obj
 0001:00021160       ?capacity@?$vector@V?$basic_string@DU?$char_traits@D@std@@V?$allocator@D@2@@std@@V?$allocator@V?$basic_string@DU?$char_traits@D@std@@V?$allocator@D@2@@std@@@2@@std@@QBEIXZ 00422160 f i EzyjddEngineCW4.obj
 0001:00021190       ?capacity@?$vector@VHighScore@@V?$allocator@VHighScore@@@std@@@std@@QBEIXZ 00422190 f i EzyjddEngineCW4.obj
 0001:000211c0       ?clear@?$vector@VHighScore@@V?$allocator@VHighScore@@@std@@@std@@QAEXXZ 004221c0 f i EzyjddEngineCW4.obj
 0001:00021260       ?close@?$basic_filebuf@DU?$char_traits@D@std@@@std@@QAEPAV12@XZ 00422260 f i EzyjddEngineCW4.obj
 0001:000212e0       ?close@?$basic_fstream@DU?$char_traits@D@std@@@std@@QAEXXZ 004222e0 f i EzyjddEngineCW4.obj
 0001:00021320       ?copyAllBackgroundBuffer@BaseEngine@@UAEXXZ 00422320 f i EzyjddEngineCW4.obj
 0001:00021350       ?copyBackgroundPixels@BaseEngine@@UAEXHHHH@Z 00422350 f i EzyjddEngineCW4.obj
 0001:000213a0       ?deallocate@?$allocator@V?$basic_string@DU?$char_traits@D@std@@V?$allocator@D@2@@std@@@std@@QAEXQAV?$basic_string@DU?$char_traits@D@std@@V?$allocator@D@2@@2@I@Z 004223a0 f i EzyjddEngineCW4.obj
 0001:000213d0       ?deallocate@?$allocator@VHighScore@@@std@@QAEXQAVHighScore@@I@Z 004223d0 f i EzyjddEngineCW4.obj
 0001:00021400       ?destroyOldObjects@DisplayableObjectContainer@@UAEX_N@Z 00422400 f i EzyjddEngineCW4.obj
 0001:000214f0       ?empty@?$vector@VHighScore@@V?$allocator@VHighScore@@@std@@@std@@QBE_NXZ 004224f0 f i EzyjddEngineCW4.obj
 0001:00021540       ?end@?$vector@VHighScore@@V?$allocator@VHighScore@@@std@@@std@@QAE?AV?$_Vector_iterator@V?$_Vector_val@U?$_Simple_types@VHighScore@@@std@@@std@@@2@XZ 00422540 f i EzyjddEngineCW4.obj
 0001:00021590       ?erase@?$basic_string@DU?$char_traits@D@std@@V?$allocator@D@2@@std@@QAEAAV12@I@Z 00422590 f i EzyjddEngineCW4.obj
 0001:000215d0       ?erase@?$basic_string@DU?$char_traits@D@std@@V?$allocator@D@2@@std@@QAEAAV12@II@Z 004225d0 f i EzyjddEngineCW4.obj
 0001:00021670       ?fillBackground@BaseEngine@@UAEXI@Z 00422670 f i EzyjddEngineCW4.obj
 0001:000216a0       ?fillSurface@DrawingSurface@@QAEXI@Z 004226a0 f i EzyjddEngineCW4.obj
 0001:00021730       ?filter@BaseEngine@@UAE_NPAVDrawingSurface@@AAH1AAI@Z 00422730 f i EzyjddEngineCW4.obj
 0001:000217f0       ?front@?$basic_string@DU?$char_traits@D@std@@V?$allocator@D@2@@std@@QAEAADXZ 004227f0 f i EzyjddEngineCW4.obj
 0001:000218c0       ?get@?$_Ptr_base@VEngineState@@@std@@IBEPAVEngineState@@XZ 004228c0 f i EzyjddEngineCW4.obj
 0001:000218e0       ?get@?$_Ptr_base@VLevelInstructionsState@@@std@@IBEPAVLevelInstructionsState@@XZ 004228e0 f i EzyjddEngineCW4.obj
 0001:00021900       ?get@?$_Ptr_base@VRunningState@@@std@@IBEPAVRunningState@@XZ 00422900 f i EzyjddEngineCW4.obj
 0001:00021920       ?get@?$_Ptr_base@VZoomInState@@@std@@IBEPAVZoomInState@@XZ 00422920 f i EzyjddEngineCW4.obj
 0001:00021940       ?get@?$_Ptr_base@VZoomOutState@@@std@@IBEPAVZoomOutState@@XZ 00422940 f i EzyjddEngineCW4.obj
 0001:00021960       ?getInitials@HighScore@@QBEABV?$basic_string@DU?$char_traits@D@std@@V?$allocator@D@2@@std@@XZ 00422960 f i EzyjddEngineCW4.obj
 0001:00021980       ?getModifiedTime@BaseEngine@@UBEHXZ 00422980 f i EzyjddEngineCW4.obj
 0001:000219c0       ?getScore@HighScore@@QBEIXZ 004229c0 f i EzyjddEngineCW4.obj
 0001:000219e0       ?imbue@?$basic_filebuf@DU?$char_traits@D@std@@@std@@MAEXABVlocale@2@@Z 004229e0 f i EzyjddEngineCW4.obj
 0001:00021a10       ?insert@?$vector@VHighScore@@V?$allocator@VHighScore@@@std@@@std@@QAE?AV?$_Vector_iterator@V?$_Vector_val@U?$_Simple_types@VHighScore@@@std@@@std@@@2@V?$_Vector_const_iterator@V?$_Vector_val@U?$_Simple_types@VHighScore@@@std@@@std@@@2@$$QAVHighScore@@@Z 00422a10 f i EzyjddEngineCW4.obj
 0001:00021ad0       ?is_open@?$basic_filebuf@DU?$char_traits@D@std@@@std@@QBE_NXZ 00422ad0 f i EzyjddEngineCW4.obj
 0001:00021b00       ?is_open@?$basic_fstream@DU?$char_traits@D@std@@@std@@QBE_NXZ 00422b00 f i EzyjddEngineCW4.obj
 0001:00021b20       ?lockAndSetupBackground@BaseEngine@@QAEXXZ 00422b20 f i EzyjddEngineCW4.obj
 0001:00021b60       ?lockBackgroundForDrawing@BaseEngine@@QAEXXZ 00422b60 f i EzyjddEngineCW4.obj
 0001:00021b80       ?max_size@?$_Default_allocator_traits@V?$allocator@V?$basic_string@DU?$char_traits@D@std@@V?$allocator@D@2@@std@@@std@@@std@@SAIABV?$allocator@V?$basic_string@DU?$char_traits@D@std@@V?$allocator@D@2@@std@@@2@@Z 00422b80 f i EzyjddEngineCW4.obj
 0001:00021b90       ?max_size@?$_Default_allocator_traits@V?$allocator@VHighScore@@@std@@@std@@SAIABV?$allocator@VHighScore@@@2@@Z 00422b90 f i EzyjddEngineCW4.obj
 0001:00021ba0       ?max_size@?$vector@V?$basic_string@DU?$char_traits@D@std@@V?$allocator@D@2@@std@@V?$allocator@V?$basic_string@DU?$char_traits@D@std@@V?$allocator@D@2@@std@@@2@@std@@QBEIXZ 00422ba0 f i EzyjddEngineCW4.obj
 0001:00021bf0       ?max_size@?$vector@VHighScore@@V?$allocator@VHighScore@@@std@@@std@@QBEIXZ 00422bf0 f i EzyjddEngineCW4.obj
 0001:00021c40       ?mySDLLockSurface@DrawingSurface@@QAEXXZ 00422c40 f i EzyjddEngineCW4.obj
 0001:00021c90       ?mySDLTempRelockSurface@DrawingSurface@@QAEXXZ 00422c90 f i EzyjddEngineCW4.obj
 0001:00021ce0       ?mySDLTempUnlockSurface@DrawingSurface@@QAEXXZ 00422ce0 f i EzyjddEngineCW4.obj
 0001:00021d30       ?mySDLUnlockSurface@DrawingSurface@@QAEXXZ 00422d30 f i EzyjddEngineCW4.obj
 0001:00021d80       ?not_eof@?$_Narrow_char_traits@DH@std@@SAHABH@Z 00422d80 f i EzyjddEngineCW4.obj
 0001:00021de0       ?open@?$basic_filebuf@DU?$char_traits@D@std@@@std@@QAEPAV12@PBDHH@Z 00422de0 f i EzyjddEngineCW4.obj
 0001:00021ed0       ?open@?$basic_fstream@DU?$char_traits@D@std@@@std@@QAEXPBDHH@Z 00422ed0 f i EzyjddEngineCW4.obj
 0001:00021f40       ?overflow@?$basic_filebuf@DU?$char_traits@D@std@@@std@@MAEHH@Z 00422f40 f i EzyjddEngineCW4.obj
 0001:000221a0       ?pause@BaseEngine@@QAEXXZ  004231a0 f i EzyjddEngineCW4.obj
 0001:000221d0       ?pbackfail@?$basic_filebuf@DU?$char_traits@D@std@@@std@@MAEHH@Z 004231d0 f i EzyjddEngineCW4.obj
 0001:00022380       ?pop_back@?$vector@VHighScore@@V?$allocator@VHighScore@@@std@@@std@@QAEXXZ 00423380 f i EzyjddEngineCW4.obj
 0001:000224b0       ?push_back@?$basic_string@DU?$char_traits@D@std@@V?$allocator@D@2@@std@@QAEXD@Z 004234b0 f i EzyjddEngineCW4.obj
 0001:00022560       ?push_back@?$vector@V?$basic_string@DU?$char_traits@D@std@@V?$allocator@D@2@@std@@V?$allocator@V?$basic_string@DU?$char_traits@D@std@@V?$allocator@D@2@@std@@@2@@std@@QAEXABV?$basic_string@DU?$char_traits@D@std@@V?$allocator@D@2@@2@@Z 00423560 f i EzyjddEngineCW4.obj
 0001:00022580       ?release@?$unique_ptr@V_Facet_base@std@@U?$default_delete@V_Facet_base@std@@@2@@std@@QAEPAV_Facet_base@2@XZ 00423580 f i EzyjddEngineCW4.obj
 0001:000225b0       ?seekoff@?$basic_filebuf@DU?$char_traits@D@std@@@std@@MAE?AV?$fpos@U_Mbstatet@@@2@_JHH@Z 004235b0 f i EzyjddEngineCW4.obj
 0001:000226c0       ?seekpos@?$basic_filebuf@DU?$char_traits@D@std@@@std@@MAE?AV?$fpos@U_Mbstatet@@@2@V32@H@Z 004236c0 f i EzyjddEngineCW4.obj
 0001:00022790       ?setbuf@?$basic_filebuf@DU?$char_traits@D@std@@@std@@MAEPAV?$basic_streambuf@DU?$char_traits@D@std@@@2@PAD_J@Z 00423790 f i EzyjddEngineCW4.obj
 0001:00022830       ?size@?$vector@PAVDisplayableObject@@V?$allocator@PAVDisplayableObject@@@std@@@std@@QBEIXZ 00423830 f i EzyjddEngineCW4.obj
 0001:00022860       ?size@?$vector@VHighScore@@V?$allocator@VHighScore@@@std@@@std@@QBEIXZ 00423860 f i EzyjddEngineCW4.obj
 0001:00022890       ?state@?$fpos@U_Mbstatet@@@std@@QBE?AU_Mbstatet@@XZ 00423890 f i EzyjddEngineCW4.obj
 0001:000228c0       ?swap@?$shared_ptr@VEngineState@@@std@@QAEXAAV12@@Z 004238c0 f i EzyjddEngineCW4.obj
 0001:000228e0       ?sync@?$basic_filebuf@DU?$char_traits@D@std@@@std@@MAEHXZ 004238e0 f i EzyjddEngineCW4.obj
 0001:00022960       ?to_char_type@?$_Narrow_char_traits@DH@std@@SADABH@Z 00423960 f i EzyjddEngineCW4.obj
 0001:00022970       ?to_int_type@?$_Narrow_char_traits@DH@std@@SAHABD@Z 00423970 f i EzyjddEngineCW4.obj
 0001:00022980       ?uflow@?$basic_filebuf@DU?$char_traits@D@std@@@std@@MAEHXZ 00423980 f i EzyjddEngineCW4.obj
 0001:00022ca0       ?underflow@?$basic_filebuf@DU?$char_traits@D@std@@@std@@MAEHXZ 00423ca0 f i EzyjddEngineCW4.obj
 0001:00022d60       ?unlockBackgroundForDrawing@BaseEngine@@QAEXXZ 00423d60 f i EzyjddEngineCW4.obj
 0001:00022d80       ?unpause@BaseEngine@@QAEXXZ 00423d80 f i EzyjddEngineCW4.obj
 0001:00022dd0       ?virtBackgroundMouseDown@BaseEngine@@UAEXHHHHH@Z 00423dd0 f i EzyjddEngineCW4.obj
 0001:00022de0       ?virtMainLoopDoAfterUpdate@BaseEngine@@UAEXXZ 00423de0 f i EzyjddEngineCW4.obj
 0001:00022df0       ?virtMainLoopDoBeforeUpdate@BaseEngine@@UAEXXZ 00423df0 f i EzyjddEngineCW4.obj
 0001:00022e00       ?virtMainLoopPostUpdate@BaseEngine@@UAEXXZ 00423e00 f i EzyjddEngineCW4.obj
 0001:00022e10       ?virtMainLoopPreUpdate@BaseEngine@@UAEXXZ 00423e10 f i EzyjddEngineCW4.obj
 0001:00022e20       ?virtMainLoopStartIteration@BaseEngine@@UAEXXZ 00423e20 f i EzyjddEngineCW4.obj
 0001:00022e30       ?virtMouseWheel@BaseEngine@@UAEXHHHH@Z 00423e30 f i EzyjddEngineCW4.obj
 0001:00022e40       ?virtPostDraw@BaseEngine@@UAEXXZ 00423e40 f i EzyjddEngineCW4.obj
 0001:00022e50       ?virtPreDraw@BaseEngine@@UAEXXZ 00423e50 f i EzyjddEngineCW4.obj
 0001:00022e60       ?virtRealMouseDown@BaseEngine@@UAEXHHH@Z 00423e60 f i EzyjddEngineCW4.obj
 0001:00022e70       ?virtRealMouseUp@BaseEngine@@UAEXHHH@Z 00423e70 f i EzyjddEngineCW4.obj
 0001:00022e80       ?virtTouchEvent@BaseEngine@@UAEXHH_J0MMMMM@Z 00423e80 f i EzyjddEngineCW4.obj
 0001:00022e90       ?xsgetn@?$basic_filebuf@DU?$char_traits@D@std@@@std@@MAE_JPAD_J@Z 00423e90 f i EzyjddEngineCW4.obj
 0001:00023050       ?xsputn@?$basic_filebuf@DU?$char_traits@D@std@@@std@@MAE_JPBD_J@Z 00424050 f i EzyjddEngineCW4.obj
 0001:000231b0       ??0EngineState@@QAE@PAVBaseEngine@@@Z 004241b0 f   EngineState.obj
 0001:000231e0       ??1EngineState@@UAE@XZ     004241e0 f   EngineState.obj
 0001:00023210       ??_EEngineState@@UAEPAXI@Z 00424210 f i EngineState.obj
 0001:00023210       ??_GEngineState@@UAEPAXI@Z 00424210 f i EngineState.obj
 0001:00023250       ?virtSetupBackgroundBuffer@DraggingDemo@@UAEXXZ 00424250 f   DraggingDemo.obj
 0001:00023390       ?virtInitialiseObjects@DraggingDemo@@UAEHXZ 00424390 f   DraggingDemo.obj
 0001:000235e0       ?virtKeyDown@DraggingDemo@@UAEXH@Z 004245e0 f   DraggingDemo.obj
 0001:00023700       ??0DragableBaseClassObject@@QAE@PAVBaseEngine@@HH_N@Z 00424700 f i DraggingDemo.obj
 0001:00023750       ??0DragableObject@@QAE@HHPAVBaseEngine@@HH_N1@Z 00424750 f i DraggingDemo.obj
 0001:00023800       ??0DragableObject@@QAE@PAVBaseEngine@@HH_N1@Z 00424800 f i DraggingDemo.obj
 0001:000238b0       ??0ImageObject@@QAE@HHPAVBaseEngine@@V?$basic_string@DU?$char_traits@D@std@@V?$allocator@D@2@@std@@_N2@Z 004248b0 f i DraggingDemo.obj
 0001:00023a40       ??1DragableObject@@UAE@XZ  00424a40 f i DraggingDemo.obj
 0001:00023a60       ??1ImageObject@@UAE@XZ     00424a60 f i DraggingDemo.obj
 0001:00023a90       ??_GDragableObject@@UAEPAXI@Z 00424a90 f i DraggingDemo.obj
 0001:00023a90       ??_EDragableObject@@UAEPAXI@Z 00424a90 f i DraggingDemo.obj
 0001:00023ad0       ??_EImageObject@@UAEPAXI@Z 00424ad0 f i DraggingDemo.obj
 0001:00023ad0       ??_GImageObject@@UAEPAXI@Z 00424ad0 f i DraggingDemo.obj
 0001:00023b10       ?setBackgroundPixel@BaseEngine@@QAEXHHI@Z 00424b10 f i DraggingDemo.obj
 0001:00023b40       ?setExitWithCode@BaseEngine@@QAEXH@Z 00424b40 f i DraggingDemo.obj
 0001:00023b60       ?setPixel@DrawingSurface@@QAEXHHI@Z 00424b60 f i DraggingDemo.obj
 0001:00023bd0       ?virtDraw@ImageObject@@UAEXXZ 00424bd0 f i DraggingDemo.obj
 0001:00023c50       ?virtMouseDown@DragableObject@@UAEXHHH@Z 00424c50 f i DraggingDemo.obj
 0001:00023c80       ?virtMouseMoved@DragableObject@@UAEXHH@Z 00424c80 f i DraggingDemo.obj
 0001:00023cb0       ?virtMouseUp@DragableObject@@UAEXHHH@Z 00424cb0 f i DraggingDemo.obj
 0001:00023cf0       ??0DrawingSurface@@QAE@PAVBaseEngine@@@Z 00424cf0 f   DrawingSurface.obj
 0001:00023d90       ?drawLine@DrawingSurface@@QAEXNNNNI@Z 00424d90 f   DrawingSurface.obj
 0001:00023f70       ?drawThickLine@DrawingSurface@@QAEXNNNNIH@Z 00424f70 f   DrawingSurface.obj
 0001:00024410       ?drawVerticalSidedRegion@DrawingSurface@@QAEXNNNNNNI@Z 00425410 f   DrawingSurface.obj
 0001:000247b0       ?drawRectangle@DrawingSurface@@QAEXHHHHI@Z 004257b0 f   DrawingSurface.obj
 0001:000248c0       ?drawOval@DrawingSurface@@QAEXHHHHI@Z 004258c0 f   DrawingSurface.obj
 0001:00024a90       ?rawDrawOval@DrawingSurface@@QAEXHHHHI@Z 00425a90 f   DrawingSurface.obj
 0001:00024bf0       ?drawHollowOval@DrawingSurface@@QAEXHHHHHHHHI@Z 00425bf0 f   DrawingSurface.obj
 0001:00024f10       ?drawPolygon@DrawingSurface@@QAEXHPAN0I@Z 00425f10 f   DrawingSurface.obj
 0001:00025690       ?drawFastString@DrawingSurface@@QAEXHHPBDIPAVFont@@@Z 00426690 f   DrawingSurface.obj
 0001:00025780       ?drawScalableString@DrawingSurface@@QAEXHHPBDIPAVFont@@@Z 00426780 f   DrawingSurface.obj
 0001:00025950       ?drawShortenedArrow@DrawingSurface@@QAEXHHHHHHIHH@Z 00426950 f   DrawingSurface.obj
 0001:00025ed0       ?drawShortenedLine@DrawingSurface@@QAEXHHHHHHIH@Z 00426ed0 f   DrawingSurface.obj
 0001:000262d0       ?drawTriangle@DrawingSurface@@QAEXNNNNNNI@Z 004272d0 f   DrawingSurface.obj
 0001:00026620       ?copyEntireSurface@DrawingSurface@@QAEXPAV1@@Z 00427620 f   DrawingSurface.obj
 0001:00026670       ?copyRectangleFrom@DrawingSurface@@QAEXPAV1@HHHHHH@Z 00427670 f   DrawingSurface.obj
 0001:00026870       ?getAngle@DrawingSurface@@SANNNNN@Z 00427870 f   DrawingSurface.obj
 0001:00026910       ?getVirtualRedrawMinX@DrawingSurface@@QAEHXZ 00427910 f   DrawingSurface.obj
 0001:00026960       ?getVirtualRedrawMinY@DrawingSurface@@QAEHXZ 00427960 f   DrawingSurface.obj
 0001:000269b0       ?getVirtualRedrawMaxX@DrawingSurface@@QAEHXZ 004279b0 f   DrawingSurface.obj
 0001:00026a10       ?getVirtualRedrawMaxY@DrawingSurface@@QAEHXZ 00427a10 f   DrawingSurface.obj
 0001:00026a70       ?getRealRedrawMinX@DrawingSurface@@QAEHXZ 00427a70 f   DrawingSurface.obj
 0001:00026ac0       ?getRealRedrawMinY@DrawingSurface@@QAEHXZ 00427ac0 f   DrawingSurface.obj
 0001:00026b10       ?getRealRedrawMaxX@DrawingSurface@@QAEHXZ 00427b10 f   DrawingSurface.obj
 0001:00026b60       ?getRealRedrawMaxY@DrawingSurface@@QAEHXZ 00427b60 f   DrawingSurface.obj
 0001:00027760       ??$swapPoints@H@@YAXAAH0@Z 00428760 f i DrawingSurface.obj
 0001:00027790       ??$swapPoints@N@@YAXAAN0@Z 00428790 f i DrawingSurface.obj
 0001:000277d0       ?checkBlitable@DrawingSurface@@QAEXXZ 004287d0 f i DrawingSurface.obj
 0001:00027820       ?getDefaultFont@BaseEngine@@QBEPAVFont@@XZ 00428820 f i DrawingSurface.obj
 0001:00027840       ?getRedrawAllScreen@BaseEngine@@QAEHXZ 00428840 f i DrawingSurface.obj
 0001:00027860       ?getRedrawRectRealBottom@BaseEngine@@QAEHXZ 00428860 f i DrawingSurface.obj
 0001:00027880       ?getRedrawRectRealLeft@BaseEngine@@QAEHXZ 00428880 f i DrawingSurface.obj
 0001:000278a0       ?getRedrawRectRealRight@BaseEngine@@QAEHXZ 004288a0 f i DrawingSurface.obj
 0001:000278c0       ?getRedrawRectRealTop@BaseEngine@@QAEHXZ 004288c0 f i DrawingSurface.obj
 0001:000278e0       ?getRedrawRectVirtualBottom@BaseEngine@@QAEHXZ 004288e0 f i DrawingSurface.obj
 0001:00027900       ?getRedrawRectVirtualLeft@BaseEngine@@QAEHXZ 00428900 f i DrawingSurface.obj
 0001:00027920       ?getRedrawRectVirtualRight@BaseEngine@@QAEHXZ 00428920 f i DrawingSurface.obj
 0001:00027940       ?getRedrawRectVirtualTop@BaseEngine@@QAEHXZ 00428940 f i DrawingSurface.obj
 0001:00027960       ?getTTFFont@Font@@QAEPAU_TTF_Font@@XZ 00428960 f i DrawingSurface.obj
 0001:00027980       ??0FlashingDemo@@QAE@XZ    00428980 f   FlashingDemo.obj
 0001:00027a40       ??1FlashingDemo@@UAE@XZ    00428a40 f   FlashingDemo.obj
 0001:00027a90       ?virtSetupBackgroundBuffer@FlashingDemo@@UAEXXZ 00428a90 f   FlashingDemo.obj
 0001:00027f10       ?virtMainLoopDoBeforeUpdate@FlashingDemo@@UAEXXZ 00428f10 f   FlashingDemo.obj
 0001:00027fd0       ?virtCreateSurfaces@FlashingDemo@@UAEXXZ 00428fd0 f   FlashingDemo.obj
 0001:000281f0       ??1DrawingSurface@@QAE@XZ  004291f0 f i FlashingDemo.obj
 0001:00028200       ??_EFlashingDemo@@UAEPAXI@Z 00429200 f i FlashingDemo.obj
 0001:00028200       ??_GFlashingDemo@@UAEPAXI@Z 00429200 f i FlashingDemo.obj
 0001:00028240       ?createSurface@DrawingSurface@@QAEXHH@Z 00429240 f i FlashingDemo.obj
 0001:00028290       ??0HighScoresState@@QAE@PAVBaseEngine@@@Z 00429290 f   HighScoresState.obj
 0001:00028370       ??1HighScoresState@@UAE@XZ 00429370 f   HighScoresState.obj
 0001:000283b0       ?setupBackgroundBuffer@HighScoresState@@UAEXXZ 004293b0 f   HighScoresState.obj
 0001:000287b0       ?keyDown@HighScoresState@@UAEXH@Z 004297b0 f   HighScoresState.obj
 0001:00028910       ?prepareState@HighScoresState@@UAEXXZ 00429910 f   HighScoresState.obj
 0001:00028950       ?displayInitials@HighScoresState@@AAEX_N@Z 00429950 f   HighScoresState.obj
 0001:00028c50       ??$_Integral_to_string@DI@std@@YA?AV?$basic_string@DU?$char_traits@D@std@@V?$allocator@D@2@@0@I@Z 00429c50 f i HighScoresState.obj
 0001:00028d20       ??A?$vector@VHighScore@@V?$allocator@VHighScore@@@std@@@std@@QBEABVHighScore@@I@Z 00429d20 f i HighScoresState.obj
 0001:00028dd0       ?clear@?$basic_string@DU?$char_traits@D@std@@V?$allocator@D@2@@std@@QAEXXZ 00429dd0 f i HighScoresState.obj
 0001:00028e20       ?drawBackgroundRectangle@BaseEngine@@QAEXHHHHI@Z 00429e20 f i HighScoresState.obj
 0001:00028e60       ?getHighScores@EzyjddEngineCW4@@QBEABV?$vector@VHighScore@@V?$allocator@VHighScore@@@std@@@std@@XZ 00429e60 f i HighScoresState.obj
 0001:00028e80       ?getScore@EzyjddEngineCW4@@QBEHXZ 00429e80 f i HighScoresState.obj
 0001:00028ea0       ?pop_back@?$basic_string@DU?$char_traits@D@std@@V?$allocator@D@2@@std@@QAEXXZ 00429ea0 f i HighScoresState.obj
 0001:00028f70       ?to_string@std@@YA?AV?$basic_string@DU?$char_traits@D@std@@V?$allocator@D@2@@1@I@Z 00429f70 f i HighScoresState.obj
 0001:00028fb0       ?virtSetupBackgroundBuffer@ImageObjectDemo@@UAEXXZ 00429fb0 f   ImageObjectDemo.obj
 0001:00029180       ?virtInitialiseObjects@ImageObjectDemo@@UAEHXZ 0042a180 f   ImageObjectDemo.obj
 0001:00029240       ?virtDrawStringsUnderneath@ImageObjectDemo@@UAEXXZ 0042a240 f   ImageObjectDemo.obj
 0001:000292f0       ?virtDrawStringsOnTop@ImageObjectDemo@@UAEXXZ 0042a2f0 f   ImageObjectDemo.obj
 0001:00029370       ?virtMouseDown@ImageObjectDemo@@UAEXHHH@Z 0042a370 f   ImageObjectDemo.obj
 0001:00029390       ?virtKeyDown@ImageObjectDemo@@UAEXH@Z 0042a390 f   ImageObjectDemo.obj
 0001:000294f0       ??0BouncingImageObject@@QAE@PAVBaseEngine@@V?$basic_string@DU?$char_traits@D@std@@V?$allocator@D@2@@std@@@Z 0042a4f0 f i ImageObjectDemo.obj
 0001:000295e0       ??0BouncingObject@@QAE@PAVBaseEngine@@@Z 0042a5e0 f i ImageObjectDemo.obj
 0001:000296e0       ??1BouncingImageObject@@UAE@XZ 0042a6e0 f i ImageObjectDemo.obj
 0001:00029710       ??1BouncingObject@@UAE@XZ  0042a710 f i ImageObjectDemo.obj
 0001:00029730       ??_GBouncingImageObject@@UAEPAXI@Z 0042a730 f i ImageObjectDemo.obj
 0001:00029730       ??_EBouncingImageObject@@UAEPAXI@Z 0042a730 f i ImageObjectDemo.obj
 0001:00029770       ??_EBouncingObject@@UAEPAXI@Z 0042a770 f i ImageObjectDemo.obj
 0001:00029770       ??_GBouncingObject@@UAEPAXI@Z 0042a770 f i ImageObjectDemo.obj
 0001:000297b0       ?drawForegroundRectangle@BaseEngine@@QAEXHHHHI@Z 0042a7b0 f i ImageObjectDemo.obj
 0001:000297f0       ?isPaused@BaseEngine@@QAE_NXZ 0042a7f0 f i ImageObjectDemo.obj
 0001:00029830       ?loadImage@BaseEngine@@QAE?AVSimpleImage@@V?$basic_string@DU?$char_traits@D@std@@V?$allocator@D@2@@std@@_N@Z 0042a830 f i ImageObjectDemo.obj
 0001:000298f0       ?shrinkBy@SimpleImage@@QAE?AV1@H@Z 0042a8f0 f i ImageObjectDemo.obj
 0001:00029a00       ?virtDoUpdate@BouncingObject@@UAEXH@Z 0042aa00 f i ImageObjectDemo.obj
 0001:00029e00       ?virtDraw@BouncingImageObject@@UAEXXZ 0042ae00 f i ImageObjectDemo.obj
 0001:00029e80       ?virtDraw@BouncingObject@@UAEXXZ 0042ae80 f i ImageObjectDemo.obj
 0001:00029f20       __vsnprintf_l              0042af20 f i ImageObjectDemo.obj
 0001:00029f90       __vsprintf_l               0042af90 f i ImageObjectDemo.obj
 0001:00029fc0       _sprintf                   0042afc0 f i ImageObjectDemo.obj
 0001:0002a000       ??0InstructionsState@@QAE@PAVBaseEngine@@@Z 0042b000 f   InstructionsState.obj
 0001:0002a0b0       ??1InstructionsState@@UAE@XZ 0042b0b0 f   InstructionsState.obj
 0001:0002a0e0       ?initialiseObjects@InstructionsState@@UAEHXZ 0042b0e0 f   InstructionsState.obj
 0001:0002a330       ?setupBackgroundBuffer@InstructionsState@@UAEXXZ 0042b330 f   InstructionsState.obj
 0001:0002a360       ?keyDown@InstructionsState@@UAEXH@Z 0042b360 f   InstructionsState.obj
 0001:0002a4c0       ?getInstructionsText@EzyjddEngineCW4@@QBEABV?$vector@V?$basic_string@DU?$char_traits@D@std@@V?$allocator@D@2@@std@@V?$allocator@V?$basic_string@DU?$char_traits@D@std@@V?$allocator@D@2@@std@@@2@@std@@XZ 0042b4c0 f i InstructionsState.obj
 0001:0002a4e0       ?savePositions@JigsawDemo@@QAEXXZ 0042b4e0 f   JigsawDemo.obj
 0001:0002a550       ?virtSetupBackgroundBuffer@JigsawDemo@@UAEXXZ 0042b550 f   JigsawDemo.obj
 0001:0002a570       ?virtInitialise@JigsawDemo@@UAEHXZ 0042b570 f   JigsawDemo.obj
 0001:0002a5c0       ?virtInitialiseObjects@JigsawDemo@@UAEHXZ 0042b5c0 f   JigsawDemo.obj
 0001:0002aa60       ?virtKeyDown@JigsawDemo@@UAEXH@Z 0042ba60 f   JigsawDemo.obj
 0001:0002ab60       ?virtMainLoopDoBeforeUpdate@JigsawDemo@@UAEXXZ 0042bb60 f   JigsawDemo.obj
 0001:0002ab90       ?virtKeyUp@JigsawDemo@@UAEXH@Z 0042bb90 f   JigsawDemo.obj
 0001:0002abb0       ?virtRealMouseDown@JigsawDemo@@UAEXHHH@Z 0042bbb0 f   JigsawDemo.obj
 0001:0002adb0       ?virtBackgroundMouseDown@JigsawDemo@@UAEXHHHHH@Z 0042bdb0 f   JigsawDemo.obj
 0001:0002ade0       ?virtMouseMoved@JigsawDemo@@UAEXHH@Z 0042bde0 f   JigsawDemo.obj
 0001:0002ae30       ?virtMouseUp@JigsawDemo@@UAEXHHH@Z 0042be30 f   JigsawDemo.obj
 0001:0002ae90       ?virtMouseWheel@JigsawDemo@@UAEXHHHH@Z 0042be90 f   JigsawDemo.obj
 0001:0002af50       ?virtPreDraw@JigsawDemo@@UAEXXZ 0042bf50 f   JigsawDemo.obj
 0001:0002af60       ?virtPostDraw@JigsawDemo@@UAEXXZ 0042bf60 f   JigsawDemo.obj
 0001:0002b520       ??$?0ABV<lambda_2870de01b601283699da779de20905fc>@@$0A@@?$_Func_impl_no_alloc@V<lambda_2870de01b601283699da779de20905fc>@@XPAVDisplayableObject@@@std@@QAE@ABV<lambda_2870de01b601283699da779de20905fc>@@@Z 0042c520 f i JigsawDemo.obj
 0001:0002b560       ??$?0ABV<lambda_341a6657abb2758c42a6873833e6116f>@@$0A@@?$_Func_impl_no_alloc@V<lambda_341a6657abb2758c42a6873833e6116f>@@XPAVDisplayableObject@@@std@@QAE@ABV<lambda_341a6657abb2758c42a6873833e6116f>@@@Z 0042c560 f i JigsawDemo.obj
 0001:0002b5b0       ??$?0ABV<lambda_369f3aee610e50bbd15c3a78d9c8686f>@@$0A@@?$_Func_impl_no_alloc@V<lambda_369f3aee610e50bbd15c3a78d9c8686f>@@XPAVDisplayableObject@@@std@@QAE@ABV<lambda_369f3aee610e50bbd15c3a78d9c8686f>@@@Z 0042c5b0 f i JigsawDemo.obj
 0001:0002b640       ??$?0ABV<lambda_4d3c514b9e5ad6cc29096aa3b57f98f2>@@$0A@@?$_Func_impl_no_alloc@V<lambda_4d3c514b9e5ad6cc29096aa3b57f98f2>@@XPAVDisplayableObject@@@std@@QAE@ABV<lambda_4d3c514b9e5ad6cc29096aa3b57f98f2>@@@Z 0042c640 f i JigsawDemo.obj
 0001:0002b690       ??$?0ABV<lambda_817584b2460f1bcab806f46a25c321a8>@@$0A@@?$_Func_impl_no_alloc@V<lambda_817584b2460f1bcab806f46a25c321a8>@@XPAVDisplayableObject@@@std@@QAE@ABV<lambda_817584b2460f1bcab806f46a25c321a8>@@@Z 0042c690 f i JigsawDemo.obj
 0001:0002b7f0       ??$?0V<lambda_2870de01b601283699da779de20905fc>@@$0A@@?$_Func_impl_no_alloc@V<lambda_2870de01b601283699da779de20905fc>@@XPAVDisplayableObject@@@std@@QAE@$$QAV<lambda_2870de01b601283699da779de20905fc>@@@Z 0042c7f0 f i JigsawDemo.obj
 0001:0002b830       ??$?0V<lambda_2870de01b601283699da779de20905fc>@@$0A@@?$function@$$A6AXPAVDisplayableObject@@@Z@std@@QAE@V<lambda_2870de01b601283699da779de20905fc>@@@Z 0042c830 f i JigsawDemo.obj
 0001:0002b8b0       ??$?0V<lambda_341a6657abb2758c42a6873833e6116f>@@$0A@@?$_Func_impl_no_alloc@V<lambda_341a6657abb2758c42a6873833e6116f>@@XPAVDisplayableObject@@@std@@QAE@$$QAV<lambda_341a6657abb2758c42a6873833e6116f>@@@Z 0042c8b0 f i JigsawDemo.obj
 0001:0002b900       ??$?0V<lambda_341a6657abb2758c42a6873833e6116f>@@$0A@@?$function@$$A6AXPAVDisplayableObject@@@Z@std@@QAE@V<lambda_341a6657abb2758c42a6873833e6116f>@@@Z 0042c900 f i JigsawDemo.obj
 0001:0002b980       ??$?0V<lambda_369f3aee610e50bbd15c3a78d9c8686f>@@$0A@@?$_Func_impl_no_alloc@V<lambda_369f3aee610e50bbd15c3a78d9c8686f>@@XPAVDisplayableObject@@@std@@QAE@$$QAV<lambda_369f3aee610e50bbd15c3a78d9c8686f>@@@Z 0042c980 f i JigsawDemo.obj
 0001:0002b9d0       ??$?0V<lambda_369f3aee610e50bbd15c3a78d9c8686f>@@$0A@@?$function@$$A6AXPAVDisplayableObject@@@Z@std@@QAE@V<lambda_369f3aee610e50bbd15c3a78d9c8686f>@@@Z 0042c9d0 f i JigsawDemo.obj
 0001:0002bb10       ??$?0V<lambda_4d3c514b9e5ad6cc29096aa3b57f98f2>@@$0A@@?$_Func_impl_no_alloc@V<lambda_4d3c514b9e5ad6cc29096aa3b57f98f2>@@XPAVDisplayableObject@@@std@@QAE@$$QAV<lambda_4d3c514b9e5ad6cc29096aa3b57f98f2>@@@Z 0042cb10 f i JigsawDemo.obj
 0001:0002bb60       ??$?0V<lambda_4d3c514b9e5ad6cc29096aa3b57f98f2>@@$0A@@?$function@$$A6AXPAVDisplayableObject@@@Z@std@@QAE@V<lambda_4d3c514b9e5ad6cc29096aa3b57f98f2>@@@Z 0042cb60 f i JigsawDemo.obj
 0001:0002bbe0       ??$?0V<lambda_817584b2460f1bcab806f46a25c321a8>@@$0A@@?$_Func_impl_no_alloc@V<lambda_817584b2460f1bcab806f46a25c321a8>@@XPAVDisplayableObject@@@std@@QAE@$$QAV<lambda_817584b2460f1bcab806f46a25c321a8>@@@Z 0042cbe0 f i JigsawDemo.obj
 0001:0002bc30       ??$?0V<lambda_817584b2460f1bcab806f46a25c321a8>@@$0A@@?$function@$$A6AXPAVDisplayableObject@@@Z@std@@QAE@V<lambda_817584b2460f1bcab806f46a25c321a8>@@@Z 0042cc30 f i JigsawDemo.obj
 0001:0002bd80       ??$_Adl_verify_range@V?$_Vector_const_iterator@V?$_Vector_val@U?$_Simple_types@PAVDisplayableObject@@@std@@@std@@@std@@V12@@std@@YAXABV?$_Vector_const_iterator@V?$_Vector_val@U?$_Simple_types@PAVDisplayableObject@@@std@@@std@@@0@0@Z 0042cd80 f i JigsawDemo.obj
 0001:0002bda0       ??$_Adl_verify_range@V?$_Vector_iterator@V?$_Vector_val@U?$_Simple_types@PAVDisplayableObject@@@std@@@std@@@std@@V12@@std@@YAXABV?$_Vector_iterator@V?$_Vector_val@U?$_Simple_types@PAVDisplayableObject@@@std@@@std@@@0@0@Z 0042cda0 f i JigsawDemo.obj
 0001:0002be20       ??$_Call@AAV<lambda_2870de01b601283699da779de20905fc>@@PAVDisplayableObject@@@?$_Invoker_ret@X$00@std@@SAXAAV<lambda_2870de01b601283699da779de20905fc>@@$$QAPAVDisplayableObject@@@Z 0042ce20 f i JigsawDemo.obj
 0001:0002be50       ??$_Call@AAV<lambda_2870de01b601283699da779de20905fc>@@PAVDisplayableObject@@@_Invoker_functor@std@@SAXAAV<lambda_2870de01b601283699da779de20905fc>@@$$QAPAVDisplayableObject@@@Z 0042ce50 f i JigsawDemo.obj
 0001:0002be80       ??$_Call@AAV<lambda_341a6657abb2758c42a6873833e6116f>@@PAVDisplayableObject@@@?$_Invoker_ret@X$00@std@@SAXAAV<lambda_341a6657abb2758c42a6873833e6116f>@@$$QAPAVDisplayableObject@@@Z 0042ce80 f i JigsawDemo.obj
 0001:0002beb0       ??$_Call@AAV<lambda_341a6657abb2758c42a6873833e6116f>@@PAVDisplayableObject@@@_Invoker_functor@std@@SAXAAV<lambda_341a6657abb2758c42a6873833e6116f>@@$$QAPAVDisplayableObject@@@Z 0042ceb0 f i JigsawDemo.obj
 0001:0002bee0       ??$_Call@AAV<lambda_369f3aee610e50bbd15c3a78d9c8686f>@@PAVDisplayableObject@@@?$_Invoker_ret@X$00@std@@SAXAAV<lambda_369f3aee610e50bbd15c3a78d9c8686f>@@$$QAPAVDisplayableObject@@@Z 0042cee0 f i JigsawDemo.obj
 0001:0002bf10       ??$_Call@AAV<lambda_369f3aee610e50bbd15c3a78d9c8686f>@@PAVDisplayableObject@@@_Invoker_functor@std@@SAXAAV<lambda_369f3aee610e50bbd15c3a78d9c8686f>@@$$QAPAVDisplayableObject@@@Z 0042cf10 f i JigsawDemo.obj
 0001:0002bfa0       ??$_Call@AAV<lambda_4d3c514b9e5ad6cc29096aa3b57f98f2>@@PAVDisplayableObject@@@?$_Invoker_ret@X$00@std@@SAXAAV<lambda_4d3c514b9e5ad6cc29096aa3b57f98f2>@@$$QAPAVDisplayableObject@@@Z 0042cfa0 f i JigsawDemo.obj
 0001:0002bfd0       ??$_Call@AAV<lambda_4d3c514b9e5ad6cc29096aa3b57f98f2>@@PAVDisplayableObject@@@_Invoker_functor@std@@SAXAAV<lambda_4d3c514b9e5ad6cc29096aa3b57f98f2>@@$$QAPAVDisplayableObject@@@Z 0042cfd0 f i JigsawDemo.obj
 0001:0002c000       ??$_Call@AAV<lambda_817584b2460f1bcab806f46a25c321a8>@@PAVDisplayableObject@@@?$_Invoker_ret@X$00@std@@SAXAAV<lambda_817584b2460f1bcab806f46a25c321a8>@@$$QAPAVDisplayableObject@@@Z 0042d000 f i JigsawDemo.obj
 0001:0002c030       ??$_Call@AAV<lambda_817584b2460f1bcab806f46a25c321a8>@@PAVDisplayableObject@@@_Invoker_functor@std@@SAXAAV<lambda_817584b2460f1bcab806f46a25c321a8>@@$$QAPAVDisplayableObject@@@Z 0042d030 f i JigsawDemo.obj
 0001:0002c0c0       ??$_Deallocate@$03$0A@@std@@YAXPAXI@Z 0042d0c0 f i JigsawDemo.obj
 0001:0002c130       ??$_Emplace_back_with_unused_capacity@ABQAVDisplayableObject@@@?$vector@PAVDisplayableObject@@V?$allocator@PAVDisplayableObject@@@std@@@std@@AAE@ABQAVDisplayableObject@@@Z 0042d130 f i JigsawDemo.obj
 0001:0002c1d0       ??$_Emplace_reallocate@ABQAVDisplayableObject@@@?$vector@PAVDisplayableObject@@V?$allocator@PAVDisplayableObject@@@std@@@std@@QAEPAPAVDisplayableObject@@QAPAV2@ABQAV2@@Z 0042d1d0 f i JigsawDemo.obj
 0001:0002c410       ??$_Find_unchecked1@PAPAVDisplayableObject@@PAV1@@std@@YAPAPAVDisplayableObject@@PAPAV1@QAPAV1@ABQAV1@U?$integral_constant@_N$0A@@0@@Z 0042d410 f i JigsawDemo.obj
 0001:0002c450       ??$_Find_unchecked@PAPAVDisplayableObject@@PAV1@@std@@YAPAPAVDisplayableObject@@QAPAV1@0ABQAV1@@Z 0042d450 f i JigsawDemo.obj
 0001:0002c480       ??$_Get_unwrapped@AAV?$_Vector_const_iterator@V?$_Vector_val@U?$_Simple_types@PAVDisplayableObject@@@std@@@std@@@std@@@std@@YA@AAV?$_Vector_const_iterator@V?$_Vector_val@U?$_Simple_types@PAVDisplayableObject@@@std@@@std@@@0@@Z 0042d480 f i JigsawDemo.obj
 0001:0002c490       ??$_Get_unwrapped@AAV?$_Vector_iterator@V?$_Vector_val@U?$_Simple_types@PAVDisplayableObject@@@std@@@std@@@std@@@std@@YA@AAV?$_Vector_iterator@V?$_Vector_val@U?$_Simple_types@PAVDisplayableObject@@@std@@@std@@@0@@Z 0042d490 f i JigsawDemo.obj
 0001:0002c4a0       ??$_Get_unwrapped@ABV?$_Vector_iterator@V?$_Vector_val@U?$_Simple_types@PAVDisplayableObject@@@std@@@std@@@std@@@std@@YA@ABV?$_Vector_iterator@V?$_Vector_val@U?$_Simple_types@PAVDisplayableObject@@@std@@@std@@@0@@Z 0042d4a0 f i JigsawDemo.obj
 0001:0002c4b0       ??$_Move_unchecked@PAPAVDisplayableObject@@PAPAV1@@std@@YAPAPAVDisplayableObject@@PAPAV1@00@Z 0042d4b0 f i JigsawDemo.obj
 0001:0002c4d0       ??$_Refancy@PAPAVDisplayableObject@@$0A@@std@@YAPAPAVDisplayableObject@@PAPAV1@@Z 0042d4d0 f i JigsawDemo.obj
 0001:0002c550       ??$_Reset@V<lambda_2870de01b601283699da779de20905fc>@@@?$_Func_class@XPAVDisplayableObject@@@std@@IAEX$$QAV<lambda_2870de01b601283699da779de20905fc>@@@Z 0042d550 f i JigsawDemo.obj
 0001:0002c5c0       ??$_Reset@V<lambda_341a6657abb2758c42a6873833e6116f>@@@?$_Func_class@XPAVDisplayableObject@@@std@@IAEX$$QAV<lambda_341a6657abb2758c42a6873833e6116f>@@@Z 0042d5c0 f i JigsawDemo.obj
 0001:0002c630       ??$_Reset@V<lambda_369f3aee610e50bbd15c3a78d9c8686f>@@@?$_Func_class@XPAVDisplayableObject@@@std@@IAEX$$QAV<lambda_369f3aee610e50bbd15c3a78d9c8686f>@@@Z 0042d630 f i JigsawDemo.obj
 0001:0002c710       ??$_Reset@V<lambda_4d3c514b9e5ad6cc29096aa3b57f98f2>@@@?$_Func_class@XPAVDisplayableObject@@@std@@IAEX$$QAV<lambda_4d3c514b9e5ad6cc29096aa3b57f98f2>@@@Z 0042d710 f i JigsawDemo.obj
 0001:0002c780       ??$_Reset@V<lambda_817584b2460f1bcab806f46a25c321a8>@@@?$_Func_class@XPAVDisplayableObject@@@std@@IAEX$$QAV<lambda_817584b2460f1bcab806f46a25c321a8>@@@Z 0042d780 f i JigsawDemo.obj
 0001:0002c860       ??$_Seek_wrapped@V?$_Vector_iterator@V?$_Vector_val@U?$_Simple_types@PAVDisplayableObject@@@std@@@std@@@std@@PAPAVDisplayableObject@@@std@@YAXAAV?$_Vector_iterator@V?$_Vector_val@U?$_Simple_types@PAVDisplayableObject@@@std@@@std@@@0@$$QAPAPAVDisplayableObject@@@Z 0042d860 f i JigsawDemo.obj
 0001:0002c890       ??$_Test_callable@V<lambda_2870de01b601283699da779de20905fc>@@@std@@YA_NABV<lambda_2870de01b601283699da779de20905fc>@@@Z 0042d890 f i JigsawDemo.obj
 0001:0002c8a0       ??$_Test_callable@V<lambda_341a6657abb2758c42a6873833e6116f>@@@std@@YA_NABV<lambda_341a6657abb2758c42a6873833e6116f>@@@Z 0042d8a0 f i JigsawDemo.obj
 0001:0002c8b0       ??$_Test_callable@V<lambda_369f3aee610e50bbd15c3a78d9c8686f>@@@std@@YA_NABV<lambda_369f3aee610e50bbd15c3a78d9c8686f>@@@Z 0042d8b0 f i JigsawDemo.obj
 0001:0002c8d0       ??$_Test_callable@V<lambda_4d3c514b9e5ad6cc29096aa3b57f98f2>@@@std@@YA_NABV<lambda_4d3c514b9e5ad6cc29096aa3b57f98f2>@@@Z 0042d8d0 f i JigsawDemo.obj
 0001:0002c8e0       ??$_Test_callable@V<lambda_817584b2460f1bcab806f46a25c321a8>@@@std@@YA_NABV<lambda_817584b2460f1bcab806f46a25c321a8>@@@Z 0042d8e0 f i JigsawDemo.obj
 0001:0002c910       ??$addressof@$$CBV<lambda_2870de01b601283699da779de20905fc>@@@std@@YAPBV<lambda_2870de01b601283699da779de20905fc>@@ABV1@@Z 0042d910 f i JigsawDemo.obj
 0001:0002c920       ??$addressof@$$CBV<lambda_341a6657abb2758c42a6873833e6116f>@@@std@@YAPBV<lambda_341a6657abb2758c42a6873833e6116f>@@ABV1@@Z 0042d920 f i JigsawDemo.obj
 0001:0002c930       ??$addressof@$$CBV<lambda_369f3aee610e50bbd15c3a78d9c8686f>@@@std@@YAPBV<lambda_369f3aee610e50bbd15c3a78d9c8686f>@@ABV1@@Z 0042d930 f i JigsawDemo.obj
 0001:0002c950       ??$addressof@$$CBV<lambda_4d3c514b9e5ad6cc29096aa3b57f98f2>@@@std@@YAPBV<lambda_4d3c514b9e5ad6cc29096aa3b57f98f2>@@ABV1@@Z 0042d950 f i JigsawDemo.obj
 0001:0002c960       ??$addressof@$$CBV<lambda_817584b2460f1bcab806f46a25c321a8>@@@std@@YAPBV<lambda_817584b2460f1bcab806f46a25c321a8>@@ABV1@@Z 0042d960 f i JigsawDemo.obj
 0001:0002c980       ??$addressof@$$CBV?$_Vector_val@U?$_Simple_types@PAVDisplayableObject@@@std@@@std@@@std@@YAPBV?$_Vector_val@U?$_Simple_types@PAVDisplayableObject@@@std@@@0@ABV10@@Z 0042d980 f i JigsawDemo.obj
 0001:0002c990       ??$addressof@V?$_Vector_val@U?$_Simple_types@PAVDisplayableObject@@@std@@@std@@@std@@YAPAV?$_Vector_val@U?$_Simple_types@PAVDisplayableObject@@@std@@@0@AAV10@@Z 0042d990 f i JigsawDemo.obj
 0001:0002c9a0       ??$construct@PAVDisplayableObject@@ABQAV1@@?$_Default_allocator_traits@V?$allocator@PAVDisplayableObject@@@std@@@std@@SAXAAV?$allocator@PAVDisplayableObject@@@1@QAPAVDisplayableObject@@ABQAV3@@Z 0042d9a0 f i JigsawDemo.obj
 0001:0002c9e0       ??$destroy@PAVDisplayableObject@@@?$_Default_allocator_traits@V?$allocator@PAVDisplayableObject@@@std@@@std@@SAXAAV?$allocator@PAVDisplayableObject@@@1@QAPAVDisplayableObject@@@Z 0042d9e0 f i JigsawDemo.obj
 0001:0002c9f0       ??$emplace_back@ABQAVDisplayableObject@@@?$vector@PAVDisplayableObject@@V?$allocator@PAVDisplayableObject@@@std@@@std@@QAE@ABQAVDisplayableObject@@@Z 0042d9f0 f i JigsawDemo.obj
 0001:0002ca70       ??$find@V?$_Vector_iterator@V?$_Vector_val@U?$_Simple_types@PAVDisplayableObject@@@std@@@std@@@std@@PAVDisplayableObject@@@std@@YA?AV?$_Vector_iterator@V?$_Vector_val@U?$_Simple_types@PAVDisplayableObject@@@std@@@std@@@0@V10@V10@ABQAVDisplayableObject@@@Z 0042da70 f i JigsawDemo.obj
 0001:0002cb60       ??$for_each@V?$_Vector_const_iterator@V?$_Vector_val@U?$_Simple_types@PAVDisplayableObject@@@std@@@std@@@std@@V?$function@$$A6AXPAVDisplayableObject@@@Z@2@@std@@YA?AV?$function@$$A6AXPAVDisplayableObject@@@Z@0@V?$_Vector_const_iterator@V?$_Vector_val@U?$_Simple_types@PAVDisplayableObject@@@std@@@std@@@0@0V10@@Z 0042db60 f i JigsawDemo.obj
 0001:0002cc80       ??$forward@AAV<lambda_2870de01b601283699da779de20905fc>@@@std@@YAAAV<lambda_2870de01b601283699da779de20905fc>@@AAV1@@Z 0042dc80 f i JigsawDemo.obj
 0001:0002cc90       ??$forward@AAV<lambda_341a6657abb2758c42a6873833e6116f>@@@std@@YAAAV<lambda_341a6657abb2758c42a6873833e6116f>@@AAV1@@Z 0042dc90 f i JigsawDemo.obj
 0001:0002cca0       ??$forward@AAV<lambda_369f3aee610e50bbd15c3a78d9c8686f>@@@std@@YAAAV<lambda_369f3aee610e50bbd15c3a78d9c8686f>@@AAV1@@Z 0042dca0 f i JigsawDemo.obj
 0001:0002ccc0       ??$forward@AAV<lambda_4d3c514b9e5ad6cc29096aa3b57f98f2>@@@std@@YAAAV<lambda_4d3c514b9e5ad6cc29096aa3b57f98f2>@@AAV1@@Z 0042dcc0 f i JigsawDemo.obj
 0001:0002ccd0       ??$forward@AAV<lambda_817584b2460f1bcab806f46a25c321a8>@@@std@@YAAAV<lambda_817584b2460f1bcab806f46a25c321a8>@@AAV1@@Z 0042dcd0 f i JigsawDemo.obj
 0001:0002ccf0       ??$forward@ABQAVDisplayableObject@@@std@@YAABQAVDisplayableObject@@ABQAV1@@Z 0042dcf0 f i JigsawDemo.obj
 0001:0002cd10       ??$forward@ABV<lambda_2870de01b601283699da779de20905fc>@@@std@@YAABV<lambda_2870de01b601283699da779de20905fc>@@ABV1@@Z 0042dd10 f i JigsawDemo.obj
 0001:0002cd20       ??$forward@ABV<lambda_341a6657abb2758c42a6873833e6116f>@@@std@@YAABV<lambda_341a6657abb2758c42a6873833e6116f>@@ABV1@@Z 0042dd20 f i JigsawDemo.obj
 0001:0002cd30       ??$forward@ABV<lambda_369f3aee610e50bbd15c3a78d9c8686f>@@@std@@YAABV<lambda_369f3aee610e50bbd15c3a78d9c8686f>@@ABV1@@Z 0042dd30 f i JigsawDemo.obj
 0001:0002cd50       ??$forward@ABV<lambda_4d3c514b9e5ad6cc29096aa3b57f98f2>@@@std@@YAABV<lambda_4d3c514b9e5ad6cc29096aa3b57f98f2>@@ABV1@@Z 0042dd50 f i JigsawDemo.obj
 0001:0002cd60       ??$forward@ABV<lambda_817584b2460f1bcab806f46a25c321a8>@@@std@@YAABV<lambda_817584b2460f1bcab806f46a25c321a8>@@ABV1@@Z 0042dd60 f i JigsawDemo.obj
 0001:0002cd80       ??$forward@PAVDisplayableObject@@@std@@YA$$QAPAVDisplayableObject@@AAPAV1@@Z 0042dd80 f i JigsawDemo.obj
 0001:0002cda0       ??$forward@V<lambda_2870de01b601283699da779de20905fc>@@@std@@YA$$QAV<lambda_2870de01b601283699da779de20905fc>@@AAV1@@Z 0042dda0 f i JigsawDemo.obj
 0001:0002cdb0       ??$forward@V<lambda_341a6657abb2758c42a6873833e6116f>@@@std@@YA$$QAV<lambda_341a6657abb2758c42a6873833e6116f>@@AAV1@@Z 0042ddb0 f i JigsawDemo.obj
 0001:0002cdc0       ??$forward@V<lambda_369f3aee610e50bbd15c3a78d9c8686f>@@@std@@YA$$QAV<lambda_369f3aee610e50bbd15c3a78d9c8686f>@@AAV1@@Z 0042ddc0 f i JigsawDemo.obj
 0001:0002cde0       ??$forward@V<lambda_4d3c514b9e5ad6cc29096aa3b57f98f2>@@@std@@YA$$QAV<lambda_4d3c514b9e5ad6cc29096aa3b57f98f2>@@AAV1@@Z 0042dde0 f i JigsawDemo.obj
 0001:0002cdf0       ??$forward@V<lambda_817584b2460f1bcab806f46a25c321a8>@@@std@@YA$$QAV<lambda_817584b2460f1bcab806f46a25c321a8>@@AAV1@@Z 0042ddf0 f i JigsawDemo.obj
 0001:0002ce40       ??$invoke@AAV<lambda_2870de01b601283699da779de20905fc>@@PAVDisplayableObject@@@std@@YAXAAV<lambda_2870de01b601283699da779de20905fc>@@$$QAPAVDisplayableObject@@@Z 0042de40 f i JigsawDemo.obj
 0001:0002ce70       ??$invoke@AAV<lambda_341a6657abb2758c42a6873833e6116f>@@PAVDisplayableObject@@@std@@YAXAAV<lambda_341a6657abb2758c42a6873833e6116f>@@$$QAPAVDisplayableObject@@@Z 0042de70 f i JigsawDemo.obj
 0001:0002cea0       ??$invoke@AAV<lambda_369f3aee610e50bbd15c3a78d9c8686f>@@PAVDisplayableObject@@@std@@YAXAAV<lambda_369f3aee610e50bbd15c3a78d9c8686f>@@$$QAPAVDisplayableObject@@@Z 0042dea0 f i JigsawDemo.obj
 0001:0002cf00       ??$invoke@AAV<lambda_4d3c514b9e5ad6cc29096aa3b57f98f2>@@PAVDisplayableObject@@@std@@YAXAAV<lambda_4d3c514b9e5ad6cc29096aa3b57f98f2>@@$$QAPAVDisplayableObject@@@Z 0042df00 f i JigsawDemo.obj
 0001:0002cf30       ??$invoke@AAV<lambda_817584b2460f1bcab806f46a25c321a8>@@PAVDisplayableObject@@@std@@YAXAAV<lambda_817584b2460f1bcab806f46a25c321a8>@@$$QAPAVDisplayableObject@@@Z 0042df30 f i JigsawDemo.obj
 0001:0002cf90       ??$move@AAH@std@@YA$$QAHAAH@Z 0042df90 f i JigsawDemo.obj
 0001:0002cfb0       ??$move@AAV<lambda_2870de01b601283699da779de20905fc>@@@std@@YA$$QAV<lambda_2870de01b601283699da779de20905fc>@@AAV1@@Z 0042dfb0 f i JigsawDemo.obj
 0001:0002cfc0       ??$move@AAV<lambda_341a6657abb2758c42a6873833e6116f>@@@std@@YA$$QAV<lambda_341a6657abb2758c42a6873833e6116f>@@AAV1@@Z 0042dfc0 f i JigsawDemo.obj
 0001:0002cfd0       ??$move@AAV<lambda_369f3aee610e50bbd15c3a78d9c8686f>@@@std@@YA$$QAV<lambda_369f3aee610e50bbd15c3a78d9c8686f>@@AAV1@@Z 0042dfd0 f i JigsawDemo.obj
 0001:0002cff0       ??$move@AAV<lambda_4d3c514b9e5ad6cc29096aa3b57f98f2>@@@std@@YA$$QAV<lambda_4d3c514b9e5ad6cc29096aa3b57f98f2>@@AAV1@@Z 0042dff0 f i JigsawDemo.obj
 0001:0002d000       ??$move@AAV<lambda_817584b2460f1bcab806f46a25c321a8>@@@std@@YA$$QAV<lambda_817584b2460f1bcab806f46a25c321a8>@@AAV1@@Z 0042e000 f i JigsawDemo.obj
 0001:0002d020       ??$move@AAV?$function@$$A6AXPAVDisplayableObject@@@Z@std@@@std@@YA$$QAV?$function@$$A6AXPAVDisplayableObject@@@Z@0@AAV10@@Z 0042e020 f i JigsawDemo.obj
 0001:0002d030       ??$swap@H$0A@@std@@YAXAAH0@Z 0042e030 f i JigsawDemo.obj
 0001:0002d080       ??0<lambda_341a6657abb2758c42a6873833e6116f>@@QAE@QAVJigsawPiece@@@Z 0042e080 f i JigsawDemo.obj
 0001:0002d0a0       ??0<lambda_369f3aee610e50bbd15c3a78d9c8686f>@@QAE@QAVJigsawPiece@@@Z 0042e0a0 f i JigsawDemo.obj
 0001:0002d0c0       ??0<lambda_4d3c514b9e5ad6cc29096aa3b57f98f2>@@QAE@QAVJigsawPiece@@@Z 0042e0c0 f i JigsawDemo.obj
 0001:0002d0e0       ??0<lambda_817584b2460f1bcab806f46a25c321a8>@@QAE@QAVJigsawPiece@@@Z 0042e0e0 f i JigsawDemo.obj
 0001:0002d130       ??0?$_Func_base@XPAVDisplayableObject@@@std@@QAE@XZ 0042e130 f i JigsawDemo.obj
 0001:0002d150       ??0?$_Func_class@XPAVDisplayableObject@@@std@@QAE@XZ 0042e150 f i JigsawDemo.obj
 0001:0002d170       ??0?$_Vector_const_iterator@V?$_Vector_val@U?$_Simple_types@PAVDisplayableObject@@@std@@@std@@@std@@QAE@$$QAV01@@Z 0042e170 f i JigsawDemo.obj
 0001:0002d1b0       ??0?$_Vector_const_iterator@V?$_Vector_val@U?$_Simple_types@PAVDisplayableObject@@@std@@@std@@@std@@QAE@ABV01@@Z 0042e1b0 f i JigsawDemo.obj
 0001:0002d1f0       ??0?$_Vector_const_iterator@V?$_Vector_val@U?$_Simple_types@PAVDisplayableObject@@@std@@@std@@@std@@QAE@PAPAVDisplayableObject@@PBU_Container_base12@1@@Z 0042e1f0 f i JigsawDemo.obj
 0001:0002d230       ??0?$_Vector_iterator@V?$_Vector_val@U?$_Simple_types@PAVDisplayableObject@@@std@@@std@@@std@@QAE@$$QAV01@@Z 0042e230 f i JigsawDemo.obj
 0001:0002d260       ??0?$_Vector_iterator@V?$_Vector_val@U?$_Simple_types@PAVDisplayableObject@@@std@@@std@@@std@@QAE@PAPAVDisplayableObject@@PBU_Container_base12@1@@Z 0042e260 f i JigsawDemo.obj
 0001:0002d290       ??0?$function@$$A6AXPAVDisplayableObject@@@Z@std@@QAE@$$QAV01@@Z 0042e290 f i JigsawDemo.obj
 0001:0002d2d0       ??0?$function@$$A6AXPAVDisplayableObject@@@Z@std@@QAE@ABV01@@Z 0042e2d0 f i JigsawDemo.obj
 0001:0002d350       ??0JigsawPiece@@QAE@PAU_iobuf@@HHPAVJigsawDemo@@V?$basic_string@DU?$char_traits@D@std@@V?$allocator@D@2@@std@@HH@Z 0042e350 f i JigsawDemo.obj
 0001:0002d740       ??1?$_Func_class@XPAVDisplayableObject@@@std@@QAE@XZ 0042e740 f i JigsawDemo.obj
 0001:0002d760       ??1?$_Vector_const_iterator@V?$_Vector_val@U?$_Simple_types@PAVDisplayableObject@@@std@@@std@@@std@@QAE@XZ 0042e760 f i JigsawDemo.obj
 0001:0002d780       ??1?$_Vector_iterator@V?$_Vector_val@U?$_Simple_types@PAVDisplayableObject@@@std@@@std@@@std@@QAE@XZ 0042e780 f i JigsawDemo.obj
 0001:0002d7a0       ??1?$function@$$A6AXPAVDisplayableObject@@@Z@std@@QAE@XZ 0042e7a0 f i JigsawDemo.obj
 0001:0002d7c0       ??1JigsawPiece@@UAE@XZ     0042e7c0 f i JigsawDemo.obj
 0001:0002d7e0       ??8?$_Vector_const_iterator@V?$_Vector_val@U?$_Simple_types@PAVDisplayableObject@@@std@@@std@@@std@@QBE_NABV01@@Z 0042e7e0 f i JigsawDemo.obj
 0001:0002d830       ??9?$_Vector_const_iterator@V?$_Vector_val@U?$_Simple_types@PAVDisplayableObject@@@std@@@std@@@std@@QBE_NABV01@@Z 0042e830 f i JigsawDemo.obj
 0001:0002d8b0       ??R<lambda_2870de01b601283699da779de20905fc>@@QBE@PAVDisplayableObject@@@Z 0042e8b0 f i JigsawDemo.obj
 0001:0002d8e0       ??R<lambda_341a6657abb2758c42a6873833e6116f>@@QBE@PAVDisplayableObject@@@Z 0042e8e0 f i JigsawDemo.obj
 0001:0002d910       ??R<lambda_369f3aee610e50bbd15c3a78d9c8686f>@@QBE@PAVDisplayableObject@@@Z 0042e910 f i JigsawDemo.obj
 0001:0002d970       ??R<lambda_4d3c514b9e5ad6cc29096aa3b57f98f2>@@QBE@PAVDisplayableObject@@@Z 0042e970 f i JigsawDemo.obj
 0001:0002d9a0       ??R<lambda_817584b2460f1bcab806f46a25c321a8>@@QBE@PAVDisplayableObject@@@Z 0042e9a0 f i JigsawDemo.obj
 0001:0002da30       ??R?$_Func_class@XPAVDisplayableObject@@@std@@QBEXPAVDisplayableObject@@@Z 0042ea30 f i JigsawDemo.obj
 0001:0002da90       ??_GJigsawPiece@@UAEPAXI@Z 0042ea90 f i JigsawDemo.obj
 0001:0002da90       ??_EJigsawPiece@@UAEPAXI@Z 0042ea90 f i JigsawDemo.obj
 0001:0002dad0       ?_Compat@?$_Vector_const_iterator@V?$_Vector_val@U?$_Simple_types@PAVDisplayableObject@@@std@@@std@@@std@@QBEXABV12@@Z 0042ead0 f i JigsawDemo.obj
 0001:0002dbb0       ?_Copy@?$_Func_impl_no_alloc@V<lambda_2870de01b601283699da779de20905fc>@@XPAVDisplayableObject@@@std@@EBEPAV?$_Func_base@XPAVDisplayableObject@@@2@PAX@Z 0042ebb0 f i JigsawDemo.obj
 0001:0002dbf0       ?_Copy@?$_Func_impl_no_alloc@V<lambda_341a6657abb2758c42a6873833e6116f>@@XPAVDisplayableObject@@@std@@EBEPAV?$_Func_base@XPAVDisplayableObject@@@2@PAX@Z 0042ebf0 f i JigsawDemo.obj
 0001:0002dc30       ?_Copy@?$_Func_impl_no_alloc@V<lambda_369f3aee610e50bbd15c3a78d9c8686f>@@XPAVDisplayableObject@@@std@@EBEPAV?$_Func_base@XPAVDisplayableObject@@@2@PAX@Z 0042ec30 f i JigsawDemo.obj
 0001:0002dcb0       ?_Copy@?$_Func_impl_no_alloc@V<lambda_4d3c514b9e5ad6cc29096aa3b57f98f2>@@XPAVDisplayableObject@@@std@@EBEPAV?$_Func_base@XPAVDisplayableObject@@@2@PAX@Z 0042ecb0 f i JigsawDemo.obj
 0001:0002dcf0       ?_Copy@?$_Func_impl_no_alloc@V<lambda_817584b2460f1bcab806f46a25c321a8>@@XPAVDisplayableObject@@@std@@EBEPAV?$_Func_base@XPAVDisplayableObject@@@2@PAX@Z 0042ecf0 f i JigsawDemo.obj
 0001:0002dda0       ?_Delete_this@?$_Func_impl_no_alloc@V<lambda_2870de01b601283699da779de20905fc>@@XPAVDisplayableObject@@@std@@EAEX_N@Z 0042eda0 f i JigsawDemo.obj
 0001:0002ddd0       ?_Delete_this@?$_Func_impl_no_alloc@V<lambda_341a6657abb2758c42a6873833e6116f>@@XPAVDisplayableObject@@@std@@EAEX_N@Z 0042edd0 f i JigsawDemo.obj
 0001:0002de00       ?_Delete_this@?$_Func_impl_no_alloc@V<lambda_369f3aee610e50bbd15c3a78d9c8686f>@@XPAVDisplayableObject@@@std@@EAEX_N@Z 0042ee00 f i JigsawDemo.obj
 0001:0002de60       ?_Delete_this@?$_Func_impl_no_alloc@V<lambda_4d3c514b9e5ad6cc29096aa3b57f98f2>@@XPAVDisplayableObject@@@std@@EAEX_N@Z 0042ee60 f i JigsawDemo.obj
 0001:0002de90       ?_Delete_this@?$_Func_impl_no_alloc@V<lambda_817584b2460f1bcab806f46a25c321a8>@@XPAVDisplayableObject@@@std@@EAEX_N@Z 0042ee90 f i JigsawDemo.obj
 0001:0002df30       ?_Do_call@?$_Func_impl_no_alloc@V<lambda_2870de01b601283699da779de20905fc>@@XPAVDisplayableObject@@@std@@EAEX$$QAPAVDisplayableObject@@@Z 0042ef30 f i JigsawDemo.obj
 0001:0002df70       ?_Do_call@?$_Func_impl_no_alloc@V<lambda_341a6657abb2758c42a6873833e6116f>@@XPAVDisplayableObject@@@std@@EAEX$$QAPAVDisplayableObject@@@Z 0042ef70 f i JigsawDemo.obj
 0001:0002dfb0       ?_Do_call@?$_Func_impl_no_alloc@V<lambda_369f3aee610e50bbd15c3a78d9c8686f>@@XPAVDisplayableObject@@@std@@EAEX$$QAPAVDisplayableObject@@@Z 0042efb0 f i JigsawDemo.obj
 0001:0002e030       ?_Do_call@?$_Func_impl_no_alloc@V<lambda_4d3c514b9e5ad6cc29096aa3b57f98f2>@@XPAVDisplayableObject@@@std@@EAEX$$QAPAVDisplayableObject@@@Z 0042f030 f i JigsawDemo.obj
 0001:0002e070       ?_Do_call@?$_Func_impl_no_alloc@V<lambda_817584b2460f1bcab806f46a25c321a8>@@XPAVDisplayableObject@@@std@@EAEX$$QAPAVDisplayableObject@@@Z 0042f070 f i JigsawDemo.obj
 0001:0002e0f0       ?_Empty@?$_Func_class@XPAVDisplayableObject@@@std@@IBE_NXZ 0042f0f0 f i JigsawDemo.obj
 0001:0002e150       ?_Get@?$_Func_impl_no_alloc@V<lambda_2870de01b601283699da779de20905fc>@@XPAVDisplayableObject@@@std@@EBEPBXXZ 0042f150 f i JigsawDemo.obj
 0001:0002e170       ?_Get@?$_Func_impl_no_alloc@V<lambda_341a6657abb2758c42a6873833e6116f>@@XPAVDisplayableObject@@@std@@EBEPBXXZ 0042f170 f i JigsawDemo.obj
 0001:0002e190       ?_Get@?$_Func_impl_no_alloc@V<lambda_369f3aee610e50bbd15c3a78d9c8686f>@@XPAVDisplayableObject@@@std@@EBEPBXXZ 0042f190 f i JigsawDemo.obj
 0001:0002e1d0       ?_Get@?$_Func_impl_no_alloc@V<lambda_4d3c514b9e5ad6cc29096aa3b57f98f2>@@XPAVDisplayableObject@@@std@@EBEPBXXZ 0042f1d0 f i JigsawDemo.obj
 0001:0002e1f0       ?_Get@?$_Func_impl_no_alloc@V<lambda_817584b2460f1bcab806f46a25c321a8>@@XPAVDisplayableObject@@@std@@EBEPBXXZ 0042f1f0 f i JigsawDemo.obj
 0001:0002e230       ?_Getimpl@?$_Func_class@XPAVDisplayableObject@@@std@@ABEPAV?$_Func_base@XPAVDisplayableObject@@@2@XZ 0042f230 f i JigsawDemo.obj
 0001:0002e250       ?_Local@?$_Func_class@XPAVDisplayableObject@@@std@@ABE_NXZ 0042f250 f i JigsawDemo.obj
 0001:0002e310       ?_Move@?$_Func_impl_no_alloc@V<lambda_2870de01b601283699da779de20905fc>@@XPAVDisplayableObject@@@std@@EAEPAV?$_Func_base@XPAVDisplayableObject@@@2@PAX@Z 0042f310 f i JigsawDemo.obj
 0001:0002e390       ?_Move@?$_Func_impl_no_alloc@V<lambda_341a6657abb2758c42a6873833e6116f>@@XPAVDisplayableObject@@@std@@EAEPAV?$_Func_base@XPAVDisplayableObject@@@2@PAX@Z 0042f390 f i JigsawDemo.obj
 0001:0002e410       ?_Move@?$_Func_impl_no_alloc@V<lambda_369f3aee610e50bbd15c3a78d9c8686f>@@XPAVDisplayableObject@@@std@@EAEPAV?$_Func_base@XPAVDisplayableObject@@@2@PAX@Z 0042f410 f i JigsawDemo.obj
 0001:0002e510       ?_Move@?$_Func_impl_no_alloc@V<lambda_4d3c514b9e5ad6cc29096aa3b57f98f2>@@XPAVDisplayableObject@@@std@@EAEPAV?$_Func_base@XPAVDisplayableObject@@@2@PAX@Z 0042f510 f i JigsawDemo.obj
 0001:0002e590       ?_Move@?$_Func_impl_no_alloc@V<lambda_817584b2460f1bcab806f46a25c321a8>@@XPAVDisplayableObject@@@std@@EAEPAV?$_Func_base@XPAVDisplayableObject@@@2@PAX@Z 0042f590 f i JigsawDemo.obj
 0001:0002e690       ?_Reset_copy@?$_Func_class@XPAVDisplayableObject@@@std@@IAEXABV12@@Z 0042f690 f i JigsawDemo.obj
 0001:0002e6f0       ?_Reset_move@?$_Func_class@XPAVDisplayableObject@@@std@@IAEX$$QAV12@@Z 0042f6f0 f i JigsawDemo.obj
 0001:0002e790       ?_Seek_to@?$_Vector_const_iterator@V?$_Vector_val@U?$_Simple_types@PAVDisplayableObject@@@std@@@std@@@std@@QAEXPBQAVDisplayableObject@@@Z 0042f790 f i JigsawDemo.obj
 0001:0002e7c0       ?_Set@?$_Func_class@XPAVDisplayableObject@@@std@@AAEXPAV?$_Func_base@XPAVDisplayableObject@@@2@@Z 0042f7c0 f i JigsawDemo.obj
 0001:0002e810       ?_Target_type@?$_Func_impl_no_alloc@V<lambda_2870de01b601283699da779de20905fc>@@XPAVDisplayableObject@@@std@@EBEABVtype_info@@XZ 0042f810 f i JigsawDemo.obj
 0001:0002e830       ?_Target_type@?$_Func_impl_no_alloc@V<lambda_341a6657abb2758c42a6873833e6116f>@@XPAVDisplayableObject@@@std@@EBEABVtype_info@@XZ 0042f830 f i JigsawDemo.obj
 0001:0002e850       ?_Target_type@?$_Func_impl_no_alloc@V<lambda_369f3aee610e50bbd15c3a78d9c8686f>@@XPAVDisplayableObject@@@std@@EBEABVtype_info@@XZ 0042f850 f i JigsawDemo.obj
 0001:0002e890       ?_Target_type@?$_Func_impl_no_alloc@V<lambda_4d3c514b9e5ad6cc29096aa3b57f98f2>@@XPAVDisplayableObject@@@std@@EBEABVtype_info@@XZ 0042f890 f i JigsawDemo.obj
 0001:0002e8b0       ?_Target_type@?$_Func_impl_no_alloc@V<lambda_817584b2460f1bcab806f46a25c321a8>@@XPAVDisplayableObject@@@std@@EBEABVtype_info@@XZ 0042f8b0 f i JigsawDemo.obj
 0001:0002e8f0       ?_Tidy@?$_Func_class@XPAVDisplayableObject@@@std@@IAEXXZ 0042f8f0 f i JigsawDemo.obj
 0001:0002e970       ?_Umove@?$vector@PAVDisplayableObject@@V?$allocator@PAVDisplayableObject@@@std@@@std@@AAEPAPAVDisplayableObject@@PAPAV3@00@Z 0042f970 f i JigsawDemo.obj
 0001:0002e9b0       ?_Unwrapped@?$_Vector_const_iterator@V?$_Vector_val@U?$_Simple_types@PAVDisplayableObject@@@std@@@std@@@std@@QBEPBQAVDisplayableObject@@XZ 0042f9b0 f i JigsawDemo.obj
 0001:0002e9d0       ?_Unwrapped@?$_Vector_iterator@V?$_Vector_val@U?$_Simple_types@PAVDisplayableObject@@@std@@@std@@@std@@QBEPAPAVDisplayableObject@@XZ 0042f9d0 f i JigsawDemo.obj
 0001:0002e9f0       ?_Verify_range@std@@YAXABV?$_Vector_const_iterator@V?$_Vector_val@U?$_Simple_types@PAVDisplayableObject@@@std@@@std@@@1@0@Z 0042f9f0 f i JigsawDemo.obj
 0001:0002eaf0       ?applyToAll@DisplayableObjectContainer@@QBEXV?$function@$$A6AXPAVDisplayableObject@@@Z@std@@@Z 0042faf0 f i JigsawDemo.obj
 0001:0002ebd0       ?begin@?$vector@PAVDisplayableObject@@V?$allocator@PAVDisplayableObject@@@std@@@std@@QAE?AV?$_Vector_iterator@V?$_Vector_val@U?$_Simple_types@PAVDisplayableObject@@@std@@@std@@@2@XZ 0042fbd0 f i JigsawDemo.obj
 0001:0002ec20       ?begin@?$vector@PAVDisplayableObject@@V?$allocator@PAVDisplayableObject@@@std@@@std@@QBE?AV?$_Vector_const_iterator@V?$_Vector_val@U?$_Simple_types@PAVDisplayableObject@@@std@@@std@@@2@XZ 0042fc20 f i JigsawDemo.obj
 0001:0002ec70       ?checkForLinksWithOthers@JigsawPiece@@QAEXXZ 0042fc70 f i JigsawDemo.obj
 0001:0002ed90       ?checkJoinBottom@JigsawPiece@@QAEXPAV1@@Z 0042fd90 f i JigsawDemo.obj
 0001:0002ee60       ?checkJoinLeft@JigsawPiece@@QAEXPAV1@@Z 0042fe60 f i JigsawDemo.obj
 0001:0002ef30       ?checkJoinRight@JigsawPiece@@QAEXPAV1@@Z 0042ff30 f i JigsawDemo.obj
 0001:0002f000       ?checkJoinTop@JigsawPiece@@QAEXPAV1@@Z 00430000 f i JigsawDemo.obj
 0001:0002f0d0       ?doDragRedraw@JigsawPiece@@UAEXXZ 004300d0 f i JigsawDemo.obj
 0001:0002f0f0       ?end@?$vector@PAVDisplayableObject@@V?$allocator@PAVDisplayableObject@@@std@@@std@@QAE?AV?$_Vector_iterator@V?$_Vector_val@U?$_Simple_types@PAVDisplayableObject@@@std@@@std@@@2@XZ 004300f0 f i JigsawDemo.obj
 0001:0002f140       ?end@?$vector@PAVDisplayableObject@@V?$allocator@PAVDisplayableObject@@@std@@@std@@QBE?AV?$_Vector_const_iterator@V?$_Vector_val@U?$_Simple_types@PAVDisplayableObject@@@std@@@std@@@2@XZ 00430140 f i JigsawDemo.obj
 0001:0002f190       ?erase@?$vector@PAVDisplayableObject@@V?$allocator@PAVDisplayableObject@@@std@@@std@@QAE?AV?$_Vector_iterator@V?$_Vector_val@U?$_Simple_types@PAVDisplayableObject@@@std@@@std@@@2@V?$_Vector_const_iterator@V?$_Vector_val@U?$_Simple_types@PAVDisplayableObject@@@std@@@std@@@2@@Z 00430190 f i JigsawDemo.obj
 0001:0002f340       ?getMode@JigsawDemo@@QAE?AW4mode@1@XZ 00430340 f i JigsawDemo.obj
 0001:0002f360       ?getXInImage@JigsawPiece@@QAEHXZ 00430360 f i JigsawDemo.obj
 0001:0002f380       ?getYInImage@JigsawPiece@@QAEHXZ 00430380 f i JigsawDemo.obj
 0001:0002f3a0       ?joinBottom@JigsawPiece@@QAEXPAV1@@Z 004303a0 f i JigsawDemo.obj
 0001:0002f3d0       ?joinLeft@JigsawPiece@@QAEXPAV1@@Z 004303d0 f i JigsawDemo.obj
 0001:0002f400       ?joinRight@JigsawPiece@@QAEXPAV1@@Z 00430400 f i JigsawDemo.obj
 0001:0002f430       ?joinTop@JigsawPiece@@QAEXPAV1@@Z 00430430 f i JigsawDemo.obj
 0001:0002f460       ?mapCoordinates@JigsawPiece@@UAE_NAAN0ABVSimpleImage@@@Z 00430460 f i JigsawDemo.obj
 0001:0002f630       ?moveToLast@DisplayableObjectContainer@@QAE_NPAVDisplayableObject@@@Z 00430630 f i JigsawDemo.obj
 0001:0002f7c0       ?push_back@?$vector@PAVDisplayableObject@@V?$allocator@PAVDisplayableObject@@@std@@@std@@QAEXABQAVDisplayableObject@@@Z 004307c0 f i JigsawDemo.obj
 0001:0002f7e0       ?recursiveDrag@JigsawPiece@@UAEXHH@Z 004307e0 f i JigsawDemo.obj
 0001:0002f940       ?setFilter@JigsawPiece@@QAEXPAVPieceFilter@@@Z 00430940 f i JigsawDemo.obj
 0001:0002f960       ?setOffset@FilterPointsTranslation@@QAEXHH@Z 00430960 f i JigsawDemo.obj
 0001:0002f990       ?shouldDraw@PieceFilter@@QAE_NHH@Z 00430990 f i JigsawDemo.obj
 0001:0002fa10       ?virtDraw@JigsawPiece@@UAEXXZ 00430a10 f i JigsawDemo.obj
 0001:0002fac0       ?virtMouseDown@JigsawPiece@@UAEXHHH@Z 00430ac0 f i JigsawDemo.obj
 0001:0002faf0       ?virtMouseMoved@JigsawPiece@@UAEXHH@Z 00430af0 f i JigsawDemo.obj
 0001:0002fbd0       ?virtMouseUp@JigsawPiece@@UAEXHHH@Z 00430bd0 f i JigsawDemo.obj
 0001:0002fc90       ?virtSingleItemMouseDown@JigsawPiece@@UAE_NHHH@Z 00430c90 f i JigsawDemo.obj
 0001:0002fe00       ?write@JigsawPiece@@QAEXPAU_iobuf@@H@Z 00430e00 f i JigsawDemo.obj
 0001:0002fe70       ?zoomIn@JigsawDemo@@QAEXXZ 00430e70 f i JigsawDemo.obj
 0001:0002ff40       ?zoomOut@JigsawDemo@@QAEXXZ 00430f40 f i JigsawDemo.obj
 0001:00030010       _fprintf                   00431010 f i JigsawDemo.obj
 0001:00030050       _SDL_main                  00431050 f   mainfunction.obj
 0001:000300b0       ?doProgram@@YAHHQAPAD@Z    004310b0 f   mainfunction.obj
 0001:000301e0       ??1ImageManager@@QAE@XZ    004311e0 f i mainfunction.obj
 0001:00030210       ??_GImageManager@@QAEPAXI@Z 00431210 f i mainfunction.obj
 0001:00030250       ?destroyImageManager@ImageManager@@SAXXZ 00431250 f i mainfunction.obj
 0001:000302b0       ??0BaseEngine@@QAE@XZ      004312b0 f   BaseEngine.obj
 0001:000304f0       ??1BaseEngine@@UAE@XZ      004314f0 f   BaseEngine.obj
 0001:00030540       ?initialise@BaseEngine@@QAEHPBDHH0H@Z 00431540 f   BaseEngine.obj
 0001:00030670       ?deinitialise@BaseEngine@@QAEXXZ 00431670 f   BaseEngine.obj
 0001:000306a0       ?mainLoop@BaseEngine@@QAEHXZ 004316a0 f   BaseEngine.obj
 0001:000307d0       ?handleEvent@BaseEngine@@QAE_NPATSDL_Event@@@Z 004317d0 f   BaseEngine.obj
 0001:00030e10       ?isKeyPressed@BaseEngine@@QBE_NH@Z 00431e10 f   BaseEngine.obj
 0001:00030e40       ?virtKeyUp@BaseEngine@@UAEXH@Z 00431e40 f   BaseEngine.obj
 0001:00030e50       ?virtKeyDown@BaseEngine@@UAEXH@Z 00431e50 f   BaseEngine.obj
 0001:00030e60       ?virtMouseMoved@BaseEngine@@UAEXHH@Z 00431e60 f   BaseEngine.obj
 0001:00030e70       ?virtMouseDown@BaseEngine@@UAEXHHH@Z 00431e70 f   BaseEngine.obj
 0001:00030e80       ?virtMouseUp@BaseEngine@@UAEXHHH@Z 00431e80 f   BaseEngine.obj
 0001:00030e90       ?virtInitialise@BaseEngine@@UAEHXZ 00431e90 f   BaseEngine.obj
 0001:00030ee0       ?virtCreateWindows@BaseEngine@@UAEXPBD@Z 00431ee0 f   BaseEngine.obj
 0001:00030f70       ?virtCreateSurfaces@BaseEngine@@UAEXXZ 00431f70 f   BaseEngine.obj
 0001:00030fc0       ?virtCleanUp@BaseEngine@@UAEXXZ 00431fc0 f   BaseEngine.obj
 0001:00030fd0       ?virtSetupBackgroundBuffer@BaseEngine@@UAEXXZ 00431fd0 f   BaseEngine.obj
 0001:00030ff0       ?virtDrawStringsUnderneath@BaseEngine@@UAEXXZ 00431ff0 f   BaseEngine.obj
 0001:00031000       ?virtDrawStringsOnTop@BaseEngine@@UAEXXZ 00432000 f   BaseEngine.obj
 0001:00031010       ?virtCheckForUpdateTime@BaseEngine@@UAE_NXZ 00432010 f   BaseEngine.obj
 0001:00031060       ?virtRenderScreen@BaseEngine@@UAEXXZ 00432060 f   BaseEngine.obj
 0001:000311f0       ?getColour@BaseEngine@@QBEIH@Z 004321f0 f   BaseEngine.obj
 0001:00031430       ?virtInitialiseObjects@BaseEngine@@UAEHXZ 00432430 f   BaseEngine.obj
 0001:00031460       ?drawAllObjects@BaseEngine@@UAEXXZ 00432460 f   BaseEngine.obj
 0001:00031640       ?updateAllObjects@BaseEngine@@UAEXH@Z 00432640 f   BaseEngine.obj
 0001:00031820       _mydebug                   00432820 f   BaseEngine.obj
 0001:00031da0       ??$?0ABV?$allocator@PAVDisplayableObject@@@std@@$$V@?$_Compressed_pair@V?$allocator@PAVDisplayableObject@@@std@@V?$_Vector_val@U?$_Simple_types@PAVDisplayableObject@@@std@@@2@$00@std@@QAE@U_One_then_variadic_args_t@1@ABV?$allocator@PAVDisplayableObject@@@1@@Z 00432da0 f i BaseEngine.obj
 0001:00031dd0       ??$?0PAVDisplayableObject@@@?$allocator@U_Container_proxy@std@@@std@@QAE@ABV?$allocator@PAVDisplayableObject@@@1@@Z 00432dd0 f i BaseEngine.obj
 0001:00031df0       ??$_Construct_n_copies_of_ty@U_Value_init_tag@std@@@?$vector@PAVDisplayableObject@@V?$allocator@PAVDisplayableObject@@@std@@@std@@AAEXIABU_Value_init_tag@1@@Z 00432df0 f i BaseEngine.obj
 0001:00032380       ??$forward@ABV?$allocator@PAVDisplayableObject@@@std@@@std@@YAABV?$allocator@PAVDisplayableObject@@@0@ABV10@@Z 00433380 f i BaseEngine.obj
 0001:00032450       ??0?$_Vector_iterator@V?$_Vector_val@U?$_Simple_types@PAVDisplayableObject@@@std@@@std@@@std@@QAE@ABV01@@Z 00433450 f i BaseEngine.obj
 0001:00032480       ??0?$_Vector_val@U?$_Simple_types@PAVDisplayableObject@@@std@@@std@@QAE@XZ 00433480 f i BaseEngine.obj
 0001:000324d0       ??0?$allocator@PAVDisplayableObject@@@std@@QAE@XZ 004334d0 f i BaseEngine.obj
 0001:000324f0       ??0?$vector@PAVDisplayableObject@@V?$allocator@PAVDisplayableObject@@@std@@@std@@QAE@IABV?$allocator@PAVDisplayableObject@@@1@@Z 004334f0 f i BaseEngine.obj
 0001:00032540       ??0DisplayableObjectContainer@@QAE@H@Z 00433540 f i BaseEngine.obj
 0001:000325a0       ??1?$_Tidy_guard@V?$vector@PAVDisplayableObject@@V?$allocator@PAVDisplayableObject@@@std@@@std@@@std@@QAE@XZ 004335a0 f i BaseEngine.obj
 0001:000325d0       ??1?$vector@PAVDisplayableObject@@V?$allocator@PAVDisplayableObject@@@std@@@std@@QAE@XZ 004335d0 f i BaseEngine.obj
 0001:00032640       ??1DisplayableObjectContainer@@UAE@XZ 00433640 f i BaseEngine.obj
 0001:000326b0       ??D?$_Vector_const_iterator@V?$_Vector_val@U?$_Simple_types@PAVDisplayableObject@@@std@@@std@@@std@@QBEABQAVDisplayableObject@@XZ 004336b0 f i BaseEngine.obj
 0001:000327c0       ??D?$_Vector_iterator@V?$_Vector_val@U?$_Simple_types@PAVDisplayableObject@@@std@@@std@@@std@@QBEAAPAVDisplayableObject@@XZ 004337c0 f i BaseEngine.obj
 0001:000327e0       ??E?$_Vector_const_iterator@V?$_Vector_val@U?$_Simple_types@PAVDisplayableObject@@@std@@@std@@@std@@QAEAAV01@XZ 004337e0 f i BaseEngine.obj
 0001:000328f0       ??E?$_Vector_iterator@V?$_Vector_val@U?$_Simple_types@PAVDisplayableObject@@@std@@@std@@@std@@QAE?AV01@H@Z 004338f0 f i BaseEngine.obj
 0001:00032b10       ??_EBaseEngine@@UAEPAXI@Z  00433b10 f i BaseEngine.obj
 0001:00032b10       ??_GBaseEngine@@UAEPAXI@Z  00433b10 f i BaseEngine.obj
 0001:00032b50       ??_GDisplayableObjectContainer@@UAEPAXI@Z 00433b50 f i BaseEngine.obj
 0001:00032b50       ??_EDisplayableObjectContainer@@UAEPAXI@Z 00433b50 f i BaseEngine.obj
 0001:00032b90       ?_Buy_nonzero@?$vector@PAVDisplayableObject@@V?$allocator@PAVDisplayableObject@@@std@@@std@@AAEXI@Z 00433b90 f i BaseEngine.obj
 0001:00032bd0       ?_Buy_raw@?$vector@PAVDisplayableObject@@V?$allocator@PAVDisplayableObject@@@std@@@std@@AAEXI@Z 00433bd0 f i BaseEngine.obj
 0001:00032c50       ?_Tidy@?$vector@PAVDisplayableObject@@V?$allocator@PAVDisplayableObject@@@std@@@std@@AAEXXZ 00433c50 f i BaseEngine.obj
 0001:00032d40       ?getHasActed@DisplayableObject@@QBE_NXZ 00433d40 f i BaseEngine.obj
 0001:00032d60       ?isTimeToAct@BaseEngine@@QBE_NXZ 00433d60 f i BaseEngine.obj
 0001:00032da0       ?mySDLUpdateTexture@DrawingSurface@@QAEXPAUSDL_Texture@@@Z 00433da0 f i BaseEngine.obj
 0001:00032de0       ?setHasActed@DisplayableObject@@QAEX_N@Z 00433de0 f i BaseEngine.obj
 0001:00032e00       ?setTimeToAct@BaseEngine@@QAEXH@Z 00433e00 f i BaseEngine.obj
 0001:00032e30       ?symbolToKeycode@BaseEngine@@SAHH@Z 00433e30 f i BaseEngine.obj
 0001:00033320       ??0DisplayableObject@@QAE@PAVBaseEngine@@HH_N@Z 00434320 f   DisplayableObject.obj
 0001:000333e0       ??0DisplayableObject@@QAE@HHPAVBaseEngine@@HH_N@Z 004343e0 f   DisplayableObject.obj
 0001:000334a0       ??1DisplayableObject@@UAE@XZ 004344a0 f   DisplayableObject.obj
 0001:000334c0       ?virtDraw@DisplayableObject@@UAEXXZ 004344c0 f   DisplayableObject.obj
 0001:00033560       ?virtDoUpdate@DisplayableObject@@UAEXH@Z 00434560 f   DisplayableObject.obj
 0001:00033570       ?redrawDisplay@DisplayableObject@@QAEXXZ 00434570 f   DisplayableObject.obj
 0001:00033590       ?redrawRectangle@DisplayableObject@@QAEXXZ 00434590 f   DisplayableObject.obj
 0001:000335d0       ?virtIsObjectInRedrawArea@DisplayableObject@@QAE_NXZ 004345d0 f   DisplayableObject.obj
 0001:00033670       ?fixPosition@DisplayableObject@@QAEXXZ 00434670 f   DisplayableObject.obj
 0001:00033840       ??_GDisplayableObject@@UAEPAXI@Z 00434840 f i DisplayableObject.obj
 0001:00033840       ??_EDisplayableObject@@UAEPAXI@Z 00434840 f i DisplayableObject.obj
 0001:00033880       ?convertVirtualPixelToClickedXPosition@BaseEngine@@QAEHH@Z 00434880 f i DisplayableObject.obj
 0001:000338b0       ?convertVirtualPixelToClickedYPosition@BaseEngine@@QAEHH@Z 004348b0 f i DisplayableObject.obj
 0001:000338e0       ?convertVirtualToRealXPosition@DrawingSurface@@QAEHH@Z 004348e0 f i DisplayableObject.obj
 0001:00033920       ?convertVirtualToRealYPosition@DrawingSurface@@QAEHH@Z 00434920 f i DisplayableObject.obj
 0001:00033960       ?redrawRectangle@BaseEngine@@QAEXHHHH@Z 00434960 f i DisplayableObject.obj
 0001:00033ad0       ?setForegroundPixel@BaseEngine@@QAEXHHI@Z 00434ad0 f i DisplayableObject.obj
 0001:00033b00       ??0FontManager@@QAE@XZ     00434b00 f   FontManager.obj
 0001:00033b70       ??1FontManager@@QAE@XZ     00434b70 f   FontManager.obj
 0001:00033be0       ?getFont@FontManager@@QAEPAVFont@@PBDH@Z 00434be0 f   FontManager.obj
 0001:00033d80       ?loadFonts@FontManager@@QAEXXZ 00434d80 f   FontManager.obj
 0001:00033eb0       ??$growArrayOfObjects@PAVFont@@@@YAPAPAVFont@@PAPAV0@AAHH@Z 00434eb0 f i FontManager.obj
 0001:00033f70       ??0Font@@QAE@PBDH@Z        00434f70 f i FontManager.obj
 0001:00033ff0       ??1Font@@QAE@XZ            00434ff0 f i FontManager.obj
 0001:00034070       ??_GFont@@QAEPAXI@Z        00435070 f i FontManager.obj
 0001:000340b0       ?getName@Font@@QAEPBDXZ    004350b0 f i FontManager.obj
 0001:000340d0       ?getSize@Font@@QAEHXZ      004350d0 f i FontManager.obj
 0001:000340f0       ?virtSetupBackgroundBuffer@ImageMappingDemo@@UAEXXZ 004350f0 f   ImageMappingDemo.obj
 0001:000341f0       ?virtInitialiseObjects@ImageMappingDemo@@UAEHXZ 004351f0 f   ImageMappingDemo.obj
 0001:00034560       ?virtKeyDown@ImageMappingDemo@@UAEXH@Z 00435560 f   ImageMappingDemo.obj
 0001:00034590       ?virtMainLoopDoBeforeUpdate@ImageMappingDemo@@UAEXXZ 00435590 f   ImageMappingDemo.obj
 0001:00034620       ?mapCoordinates@ImageMappingDemo@@UAE_NAAN0ABVSimpleImage@@@Z 00435620 f   ImageMappingDemo.obj
 0001:00034a90       ?getPixelColour@MappableImageObject@@QAEHHH@Z 00435a90 f i ImageMappingDemo.obj
 0001:00034ac0       ?getPixelColour@SimpleImage@@QBEHHH@Z 00435ac0 f i ImageMappingDemo.obj
 0001:00034af0       ?getRawPixelColour@RawImageData@@QBEHHH@Z 00435af0 f i ImageMappingDemo.obj
 0001:00034b40       ?getTheData@SimpleImage@@QBEABV?$shared_ptr@VRawImageData@@@std@@XZ 00435b40 f i ImageMappingDemo.obj
 0001:00034b60       ?setOpaque@RawImageData@@QAEXXZ 00435b60 f i ImageMappingDemo.obj
 0001:00034bd0       ?setRotation@CoordinateMappingRotate@@QAEXN@Z 00435bd0 f i ImageMappingDemo.obj
 0001:00034bf0       ?setTransparencyColour@MappableImageObject@@QAEXH@Z 00435bf0 f i ImageMappingDemo.obj
 0001:00034c20       ?setTransparencyColour@SimpleImage@@QAEXH@Z 00435c20 f i ImageMappingDemo.obj
 0001:00034c90       ?setTransparentColour@RawImageData@@QAEXI@Z 00435c90 f i ImageMappingDemo.obj
 0001:00034db0       ?setXShift@CoordinateMappingShiftXY@@QAEXN@Z 00435db0 f i ImageMappingDemo.obj
 0001:00034dd0       ?setYShift@CoordinateMappingShiftXY@@QAEXN@Z 00435dd0 f i ImageMappingDemo.obj
 0001:00034df0       ??0PausedState@@QAE@PAVBaseEngine@@@Z 00435df0 f   PausedState.obj
 0001:00034e20       ??1PausedState@@UAE@XZ     00435e20 f   PausedState.obj
 0001:00034e40       ?keyDown@PausedState@@UAEXH@Z 00435e40 f   PausedState.obj
 0001:00034e70       ?drawStringsOnTop@PausedState@@UAEXXZ 00435e70 f   PausedState.obj
 0001:00034ed0       ??0RunningState@@QAE@PAVBaseEngine@@@Z 00435ed0 f   RunningState.obj
 0001:000353d0       ??1RunningState@@UAE@XZ    004363d0 f   RunningState.obj
 0001:00035510       ?initialiseObjects@RunningState@@UAEHXZ 00436510 f   RunningState.obj
 0001:000355b0       ?setupBackgroundBuffer@RunningState@@UAEXXZ 004365b0 f   RunningState.obj
 0001:00035710       ?keyDown@RunningState@@UAEXH@Z 00436710 f   RunningState.obj
 0001:00035a20       ?updateAllObjects@RunningState@@UAEXH@Z 00436a20 f   RunningState.obj
 0001:000360c0       ?drawStringsOnTop@RunningState@@UAEXXZ 004370c0 f   RunningState.obj
 0001:00036350       ?mainLoopPostUpdate@RunningState@@UAEXXZ 00437350 f   RunningState.obj
 0001:000363e0       ?prepareState@RunningState@@QAEXH@Z 004373e0 f   RunningState.obj
 0001:00036470       ?loadGame@RunningState@@QAE_N_N@Z 00437470 f   RunningState.obj
 0001:00036c80       ?createViruses@RunningState@@AAEXH@Z 00437c80 f   RunningState.obj
 0001:00036df0       ?saveGame@RunningState@@AAEXXZ 00437df0 f   RunningState.obj
 0001:00037280       ?resetShipToStartPosition@RunningState@@AAEXXZ 00438280 f   RunningState.obj
 0001:00037380       ?cleanup@RunningState@@AAEX_N@Z 00438380 f   RunningState.obj
 0001:000377e0       ?openAudioDevices@RunningState@@AAEXXZ 004387e0 f   RunningState.obj
 0001:00037830       ?closeAudioDevices@RunningState@@AAEXXZ 00438830 f   RunningState.obj
 0001:000378b0       ?onVirusCollision@RunningState@@EAEXPAVGameImageObject@@@Z 004388b0 f   RunningState.obj
 0001:00037a10       ?onMineCollision@RunningState@@EAEXPAVCollidableInterface@@@Z 00438a10 f   RunningState.obj
 0001:00037bb0       ?onMissileCollision@RunningState@@EAEXPAVCollidableInterface@@@Z 00438bb0 f   RunningState.obj
 0001:00037d50       ?onShipCollision@RunningState@@EAEXPAVCollidableInterface@@@Z 00438d50 f   RunningState.obj
 0001:00037da0       ?onMissileMiss@RunningState@@EAEXPAVCollidableInterface@@@Z 00438da0 f   RunningState.obj
 0001:00037f30       ?onMineDrop@RunningState@@EAEXPAVCollidableInterface@@@Z 00438f30 f   RunningState.obj
 0001:00038b70       ??$?0$$V@?$_Compressed_pair@V?$allocator@PAVCollidableInterface@@@std@@V?$_Vector_val@U?$_Simple_types@PAVCollidableInterface@@@std@@@2@$00@std@@QAE@U_Zero_then_variadic_args_t@1@@Z 00439b70 f i RunningState.obj
 0001:00038ba0       ??$?0$$V@?$_Compressed_pair@V?$allocator@PAVMine@@@std@@V?$_Vector_val@U?$_Simple_types@PAVMine@@@std@@@2@$00@std@@QAE@U_Zero_then_variadic_args_t@1@@Z 00439ba0 f i RunningState.obj
 0001:00038bd0       ??$?0$$V@?$_Compressed_pair@V?$allocator@PAVMissile@@@std@@V?$_Vector_val@U?$_Simple_types@PAVMissile@@@std@@@2@$00@std@@QAE@U_Zero_then_variadic_args_t@1@@Z 00439bd0 f i RunningState.obj
 0001:00038c00       ??$?0$$V@?$_Compressed_pair@V?$allocator@PAVVirus@@@std@@V?$_Vector_val@U?$_Simple_types@PAVVirus@@@std@@@2@$00@std@@QAE@U_Zero_then_variadic_args_t@1@@Z 00439c00 f i RunningState.obj
 0001:00038c30       ??$?0PAVCollidableInterface@@@?$allocator@U_Container_proxy@std@@@std@@QAE@ABV?$allocator@PAVCollidableInterface@@@1@@Z 00439c30 f i RunningState.obj
 0001:00038c50       ??$?0PAVMine@@@?$allocator@U_Container_proxy@std@@@std@@QAE@ABV?$allocator@PAVMine@@@1@@Z 00439c50 f i RunningState.obj
 0001:00038c70       ??$?0PAVMissile@@@?$allocator@U_Container_proxy@std@@@std@@QAE@ABV?$allocator@PAVMissile@@@1@@Z 00439c70 f i RunningState.obj
 0001:00038c90       ??$?0PAVVirus@@@?$allocator@U_Container_proxy@std@@@std@@QAE@ABV?$allocator@PAVVirus@@@1@@Z 00439c90 f i RunningState.obj
 0001:00038cb0       ??$_Copy_memmove@PAPAVCollidableInterface@@PAPAV1@@std@@YAPAPAVCollidableInterface@@PAPAV1@00@Z 00439cb0 f i RunningState.obj
 0001:00038d00       ??$_Copy_memmove@PAPAVMine@@PAPAV1@@std@@YAPAPAVMine@@PAPAV1@00@Z 00439d00 f i RunningState.obj
 0001:00038d50       ??$_Copy_memmove@PAPAVMissile@@PAPAV1@@std@@YAPAPAVMissile@@PAPAV1@00@Z 00439d50 f i RunningState.obj
 0001:00038da0       ??$_Copy_memmove@PAPAVVirus@@PAPAV1@@std@@YAPAPAVVirus@@PAPAV1@00@Z 00439da0 f i RunningState.obj
 0001:00038df0       ??$_Destroy_range@V?$allocator@PAVCollidableInterface@@@std@@@std@@YAXPAPAVCollidableInterface@@QAPAV1@AAV?$allocator@PAVCollidableInterface@@@0@@Z 00439df0 f i RunningState.obj
 0001:00038e00       ??$_Destroy_range@V?$allocator@PAVMine@@@std@@@std@@YAXPAPAVMine@@QAPAV1@AAV?$allocator@PAVMine@@@0@@Z 00439e00 f i RunningState.obj
 0001:00038e10       ??$_Destroy_range@V?$allocator@PAVMissile@@@std@@@std@@YAXPAPAVMissile@@QAPAV1@AAV?$allocator@PAVMissile@@@0@@Z 00439e10 f i RunningState.obj
 0001:00038e20       ??$_Destroy_range@V?$allocator@PAVVirus@@@std@@@std@@YAXPAPAVVirus@@QAPAV1@AAV?$allocator@PAVVirus@@@0@@Z 00439e20 f i RunningState.obj
 0001:00038e30       ??$_Emplace_back_with_unused_capacity@ABQAVCollidableInterface@@@?$vector@PAVCollidableInterface@@V?$allocator@PAVCollidableInterface@@@std@@@std@@AAE@ABQAVCollidableInterface@@@Z 00439e30 f i RunningState.obj
 0001:00038ed0       ??$_Emplace_back_with_unused_capacity@ABQAVMine@@@?$vector@PAVMine@@V?$allocator@PAVMine@@@std@@@std@@AAE@ABQAVMine@@@Z 00439ed0 f i RunningState.obj
 0001:00038f70       ??$_Emplace_back_with_unused_capacity@ABQAVMissile@@@?$vector@PAVMissile@@V?$allocator@PAVMissile@@@std@@@std@@AAE@ABQAVMissile@@@Z 00439f70 f i RunningState.obj
 0001:00039010       ??$_Emplace_back_with_unused_capacity@ABQAVVirus@@@?$vector@PAVVirus@@V?$allocator@PAVVirus@@@std@@@std@@AAE@ABQAVVirus@@@Z 0043a010 f i RunningState.obj
 0001:000390b0       ??$_Emplace_reallocate@ABQAVCollidableInterface@@@?$vector@PAVCollidableInterface@@V?$allocator@PAVCollidableInterface@@@std@@@std@@QAEPAPAVCollidableInterface@@QAPAV2@ABQAV2@@Z 0043a0b0 f i RunningState.obj
 0001:000392f0       ??$_Emplace_reallocate@ABQAVMine@@@?$vector@PAVMine@@V?$allocator@PAVMine@@@std@@@std@@QAEPAPAVMine@@QAPAV2@ABQAV2@@Z 0043a2f0 f i RunningState.obj
 0001:00039530       ??$_Emplace_reallocate@ABQAVMissile@@@?$vector@PAVMissile@@V?$allocator@PAVMissile@@@std@@@std@@QAEPAPAVMissile@@QAPAV2@ABQAV2@@Z 0043a530 f i RunningState.obj
 0001:00039770       ??$_Emplace_reallocate@ABQAVVirus@@@?$vector@PAVVirus@@V?$allocator@PAVVirus@@@std@@@std@@QAEPAPAVVirus@@QAPAV2@ABQAV2@@Z 0043a770 f i RunningState.obj
 0001:000399b0       ??$_Get_unwrapped@ABQAPAVCollidableInterface@@@std@@YA@ABQAPAVCollidableInterface@@@Z 0043a9b0 f i RunningState.obj
 0001:000399c0       ??$_Get_unwrapped@ABQAPAVMine@@@std@@YA@ABQAPAVMine@@@Z 0043a9c0 f i RunningState.obj
 0001:000399d0       ??$_Get_unwrapped@ABQAPAVMissile@@@std@@YA@ABQAPAVMissile@@@Z 0043a9d0 f i RunningState.obj
 0001:000399e0       ??$_Get_unwrapped@ABQAPAVVirus@@@std@@YA@ABQAPAVVirus@@@Z 0043a9e0 f i RunningState.obj
 0001:000399f0       ??$_Move_unchecked@PAPAVCollidableInterface@@PAPAV1@@std@@YAPAPAVCollidableInterface@@PAPAV1@00@Z 0043a9f0 f i RunningState.obj
 0001:00039a10       ??$_Move_unchecked@PAPAVMine@@PAPAV1@@std@@YAPAPAVMine@@PAPAV1@00@Z 0043aa10 f i RunningState.obj
 0001:00039a30       ??$_Move_unchecked@PAPAVMissile@@PAPAV1@@std@@YAPAPAVMissile@@PAPAV1@00@Z 0043aa30 f i RunningState.obj
 0001:00039a50       ??$_Move_unchecked@PAPAVVirus@@PAPAV1@@std@@YAPAPAVVirus@@PAPAV1@00@Z 0043aa50 f i RunningState.obj
 0001:00039a70       ??$_Unfancy@PAVCollidableInterface@@@std@@YAPAPAVCollidableInterface@@PAPAV1@@Z 0043aa70 f i RunningState.obj
 0001:00039a80       ??$_Unfancy@PAVMine@@@std@@YAPAPAVMine@@PAPAV1@@Z 0043aa80 f i RunningState.obj
 0001:00039a90       ??$_Unfancy@PAVMissile@@@std@@YAPAPAVMissile@@PAPAV1@@Z 0043aa90 f i RunningState.obj
 0001:00039aa0       ??$_Unfancy@PAVVirus@@@std@@YAPAPAVVirus@@PAPAV1@@Z 0043aaa0 f i RunningState.obj
 0001:00039ab0       ??$_Uninitialized_move@PAPAVCollidableInterface@@V?$allocator@PAVCollidableInterface@@@std@@@std@@YAPAPAVCollidableInterface@@QAPAV1@0PAPAV1@AAV?$allocator@PAVCollidableInterface@@@0@@Z 0043aab0 f i RunningState.obj
 0001:00039b20       ??$_Uninitialized_move@PAPAVMine@@V?$allocator@PAVMine@@@std@@@std@@YAPAPAVMine@@QAPAV1@0PAPAV1@AAV?$allocator@PAVMine@@@0@@Z 0043ab20 f i RunningState.obj
 0001:00039b90       ??$_Uninitialized_move@PAPAVMissile@@V?$allocator@PAVMissile@@@std@@@std@@YAPAPAVMissile@@QAPAV1@0PAPAV1@AAV?$allocator@PAVMissile@@@0@@Z 0043ab90 f i RunningState.obj
 0001:00039c00       ??$_Uninitialized_move@PAPAVVirus@@V?$allocator@PAVVirus@@@std@@@std@@YAPAPAVVirus@@QAPAV1@0PAPAV1@AAV?$allocator@PAVVirus@@@0@@Z 0043ac00 f i RunningState.obj
 0001:00039c70       ??$addressof@V?$_Vector_val@U?$_Simple_types@PAVCollidableInterface@@@std@@@std@@@std@@YAPAV?$_Vector_val@U?$_Simple_types@PAVCollidableInterface@@@std@@@0@AAV10@@Z 0043ac70 f i RunningState.obj
 0001:00039c80       ??$addressof@V?$_Vector_val@U?$_Simple_types@PAVMine@@@std@@@std@@@std@@YAPAV?$_Vector_val@U?$_Simple_types@PAVMine@@@std@@@0@AAV10@@Z 0043ac80 f i RunningState.obj
 0001:00039c90       ??$addressof@V?$_Vector_val@U?$_Simple_types@PAVMissile@@@std@@@std@@@std@@YAPAV?$_Vector_val@U?$_Simple_types@PAVMissile@@@std@@@0@AAV10@@Z 0043ac90 f i RunningState.obj
 0001:00039ca0       ??$addressof@V?$_Vector_val@U?$_Simple_types@PAVVirus@@@std@@@std@@@std@@YAPAV?$_Vector_val@U?$_Simple_types@PAVVirus@@@std@@@0@AAV10@@Z 0043aca0 f i RunningState.obj
 0001:00039cb0       ??$construct@PAVCollidableInterface@@ABQAV1@@?$_Default_allocator_traits@V?$allocator@PAVCollidableInterface@@@std@@@std@@SAXAAV?$allocator@PAVCollidableInterface@@@1@QAPAVCollidableInterface@@ABQAV3@@Z 0043acb0 f i RunningState.obj
 0001:00039cf0       ??$construct@PAVMine@@ABQAV1@@?$_Default_allocator_traits@V?$allocator@PAVMine@@@std@@@std@@SAXAAV?$allocator@PAVMine@@@1@QAPAVMine@@ABQAV3@@Z 0043acf0 f i RunningState.obj
 0001:00039d30       ??$construct@PAVMissile@@ABQAV1@@?$_Default_allocator_traits@V?$allocator@PAVMissile@@@std@@@std@@SAXAAV?$allocator@PAVMissile@@@1@QAPAVMissile@@ABQAV3@@Z 0043ad30 f i RunningState.obj
 0001:00039d70       ??$construct@PAVVirus@@ABQAV1@@?$_Default_allocator_traits@V?$allocator@PAVVirus@@@std@@@std@@SAXAAV?$allocator@PAVVirus@@@1@QAPAVVirus@@ABQAV3@@Z 0043ad70 f i RunningState.obj
 0001:00039db0       ??$destroy@PAVCollidableInterface@@@?$_Default_allocator_traits@V?$allocator@PAVCollidableInterface@@@std@@@std@@SAXAAV?$allocator@PAVCollidableInterface@@@1@QAPAVCollidableInterface@@@Z 0043adb0 f i RunningState.obj
 0001:00039dc0       ??$destroy@PAVMine@@@?$_Default_allocator_traits@V?$allocator@PAVMine@@@std@@@std@@SAXAAV?$allocator@PAVMine@@@1@QAPAVMine@@@Z 0043adc0 f i RunningState.obj
 0001:00039dd0       ??$destroy@PAVMissile@@@?$_Default_allocator_traits@V?$allocator@PAVMissile@@@std@@@std@@SAXAAV?$allocator@PAVMissile@@@1@QAPAVMissile@@@Z 0043add0 f i RunningState.obj
 0001:00039de0       ??$destroy@PAVVirus@@@?$_Default_allocator_traits@V?$allocator@PAVVirus@@@std@@@std@@SAXAAV?$allocator@PAVVirus@@@1@QAPAVVirus@@@Z 0043ade0 f i RunningState.obj
 0001:00039df0       ??$emplace_back@ABQAVCollidableInterface@@@?$vector@PAVCollidableInterface@@V?$allocator@PAVCollidableInterface@@@std@@@std@@QAE@ABQAVCollidableInterface@@@Z 0043adf0 f i RunningState.obj
 0001:00039e70       ??$emplace_back@ABQAVMine@@@?$vector@PAVMine@@V?$allocator@PAVMine@@@std@@@std@@QAE@ABQAVMine@@@Z 0043ae70 f i RunningState.obj
 0001:00039ef0       ??$emplace_back@ABQAVMissile@@@?$vector@PAVMissile@@V?$allocator@PAVMissile@@@std@@@std@@QAE@ABQAVMissile@@@Z 0043aef0 f i RunningState.obj
 0001:00039f70       ??$emplace_back@ABQAVVirus@@@?$vector@PAVVirus@@V?$allocator@PAVVirus@@@std@@@std@@QAE@ABQAVVirus@@@Z 0043af70 f i RunningState.obj
 0001:00039ff0       ??$forward@ABQAVCollidableInterface@@@std@@YAABQAVCollidableInterface@@ABQAV1@@Z 0043aff0 f i RunningState.obj
 0001:0003a000       ??$forward@ABQAVMine@@@std@@YAABQAVMine@@ABQAV1@@Z 0043b000 f i RunningState.obj
 0001:0003a010       ??$forward@ABQAVMissile@@@std@@YAABQAVMissile@@ABQAV1@@Z 0043b010 f i RunningState.obj
 0001:0003a020       ??$forward@ABQAVVirus@@@std@@YAABQAVVirus@@ABQAV1@@Z 0043b020 f i RunningState.obj
 0001:0003a030       ??0?$_Vector_const_iterator@V?$_Vector_val@U?$_Simple_types@PAVCollidableInterface@@@std@@@std@@@std@@QAE@ABV01@@Z 0043b030 f i RunningState.obj
 0001:0003a070       ??0?$_Vector_const_iterator@V?$_Vector_val@U?$_Simple_types@PAVCollidableInterface@@@std@@@std@@@std@@QAE@PAPAVCollidableInterface@@PBU_Container_base12@1@@Z 0043b070 f i RunningState.obj
 0001:0003a0b0       ??0?$_Vector_const_iterator@V?$_Vector_val@U?$_Simple_types@PAVMine@@@std@@@std@@@std@@QAE@ABV01@@Z 0043b0b0 f i RunningState.obj
 0001:0003a0f0       ??0?$_Vector_const_iterator@V?$_Vector_val@U?$_Simple_types@PAVMine@@@std@@@std@@@std@@QAE@PAPAVMine@@PBU_Container_base12@1@@Z 0043b0f0 f i RunningState.obj
 0001:0003a130       ??0?$_Vector_const_iterator@V?$_Vector_val@U?$_Simple_types@PAVMissile@@@std@@@std@@@std@@QAE@ABV01@@Z 0043b130 f i RunningState.obj
 0001:0003a170       ??0?$_Vector_const_iterator@V?$_Vector_val@U?$_Simple_types@PAVMissile@@@std@@@std@@@std@@QAE@PAPAVMissile@@PBU_Container_base12@1@@Z 0043b170 f i RunningState.obj
 0001:0003a1b0       ??0?$_Vector_const_iterator@V?$_Vector_val@U?$_Simple_types@PAVVirus@@@std@@@std@@@std@@QAE@ABV01@@Z 0043b1b0 f i RunningState.obj
 0001:0003a1f0       ??0?$_Vector_const_iterator@V?$_Vector_val@U?$_Simple_types@PAVVirus@@@std@@@std@@@std@@QAE@PAPAVVirus@@PBU_Container_base12@1@@Z 0043b1f0 f i RunningState.obj
 0001:0003a230       ??0?$_Vector_iterator@V?$_Vector_val@U?$_Simple_types@PAVCollidableInterface@@@std@@@std@@@std@@QAE@PAPAVCollidableInterface@@PBU_Container_base12@1@@Z 0043b230 f i RunningState.obj
 0001:0003a260       ??0?$_Vector_iterator@V?$_Vector_val@U?$_Simple_types@PAVMine@@@std@@@std@@@std@@QAE@PAPAVMine@@PBU_Container_base12@1@@Z 0043b260 f i RunningState.obj
 0001:0003a290       ??0?$_Vector_iterator@V?$_Vector_val@U?$_Simple_types@PAVMissile@@@std@@@std@@@std@@QAE@PAPAVMissile@@PBU_Container_base12@1@@Z 0043b290 f i RunningState.obj
 0001:0003a2c0       ??0?$_Vector_iterator@V?$_Vector_val@U?$_Simple_types@PAVVirus@@@std@@@std@@@std@@QAE@PAPAVVirus@@PBU_Container_base12@1@@Z 0043b2c0 f i RunningState.obj
 0001:0003a2f0       ??0?$_Vector_val@U?$_Simple_types@PAVCollidableInterface@@@std@@@std@@QAE@XZ 0043b2f0 f i RunningState.obj
 0001:0003a340       ??0?$_Vector_val@U?$_Simple_types@PAVMine@@@std@@@std@@QAE@XZ 0043b340 f i RunningState.obj
 0001:0003a390       ??0?$_Vector_val@U?$_Simple_types@PAVMissile@@@std@@@std@@QAE@XZ 0043b390 f i RunningState.obj
 0001:0003a3e0       ??0?$_Vector_val@U?$_Simple_types@PAVVirus@@@std@@@std@@QAE@XZ 0043b3e0 f i RunningState.obj
 0001:0003a430       ??0?$allocator@PAVCollidableInterface@@@std@@QAE@XZ 0043b430 f i RunningState.obj
 0001:0003a450       ??0?$allocator@PAVMine@@@std@@QAE@XZ 0043b450 f i RunningState.obj
 0001:0003a470       ??0?$allocator@PAVMissile@@@std@@QAE@XZ 0043b470 f i RunningState.obj
 0001:0003a490       ??0?$allocator@PAVVirus@@@std@@QAE@XZ 0043b490 f i RunningState.obj
 0001:0003a4b0       ??0?$vector@PAVCollidableInterface@@V?$allocator@PAVCollidableInterface@@@std@@@std@@QAE@XZ 0043b4b0 f i RunningState.obj
 0001:0003a530       ??0?$vector@PAVMine@@V?$allocator@PAVMine@@@std@@@std@@QAE@XZ 0043b530 f i RunningState.obj
 0001:0003a5b0       ??0?$vector@PAVMissile@@V?$allocator@PAVMissile@@@std@@@std@@QAE@XZ 0043b5b0 f i RunningState.obj
 0001:0003a630       ??0?$vector@PAVVirus@@V?$allocator@PAVVirus@@@std@@@std@@QAE@XZ 0043b630 f i RunningState.obj
 0001:0003a6b0       ??0CollidableGameImageObject@@QAE@PAVBaseEngine@@ABV?$basic_string@DU?$char_traits@D@std@@V?$allocator@D@2@@std@@HH_NH222@Z 0043b6b0 f i RunningState.obj
 0001:0003a740       ??0CollidableInterface@@QAE@XZ 0043b740 f i RunningState.obj
 0001:0003a760       ??0CollisionCallbacks@@QAE@XZ 0043b760 f i RunningState.obj
 0001:0003a780       ??0Mine@@QAE@PAVCollisionCallbacks@@PAVBaseEngine@@ABV?$basic_string@DU?$char_traits@D@std@@V?$allocator@D@2@@std@@HH_NH333@Z 0043b780 f i RunningState.obj
 0001:0003a810       ??0Missile@@QAE@NPAVCollisionCallbacks@@PAVBaseEngine@@HHHH@Z 0043b810 f i RunningState.obj
 0001:0003a960       ??0MovementPosition@@QAE@XZ 0043b960 f i RunningState.obj
 0001:0003a9e0       ??0Ship@@QAE@PAVCollisionCallbacks@@PAVBaseEngine@@ABV?$basic_string@DU?$char_traits@D@std@@V?$allocator@D@2@@std@@HH_NH333@Z 0043b9e0 f i RunningState.obj
 0001:0003aa70       ??0Virus@@QAE@W4VirusDirection@@PAVVirusCallbacks@@PAVBaseEngine@@V?$basic_string@DU?$char_traits@D@std@@V?$allocator@D@2@@std@@HHHHNH_NH444@Z 0043ba70 f i RunningState.obj
 0001:0003ac20       ??0Virus@@QAE@W4VirusDirection@@PAVVirusCallbacks@@PAVBaseEngine@@V?$basic_string@DU?$char_traits@D@std@@V?$allocator@D@2@@std@@HH_NH444@Z 0043bc20 f i RunningState.obj
 0001:0003ad80       ??0VirusCallbacks@@QAE@XZ  0043bd80 f i RunningState.obj
 0001:0003ada0       ??1?$_Vector_const_iterator@V?$_Vector_val@U?$_Simple_types@PAVCollidableInterface@@@std@@@std@@@std@@QAE@XZ 0043bda0 f i RunningState.obj
 0001:0003adc0       ??1?$_Vector_const_iterator@V?$_Vector_val@U?$_Simple_types@PAVMine@@@std@@@std@@@std@@QAE@XZ 0043bdc0 f i RunningState.obj
 0001:0003ade0       ??1?$_Vector_const_iterator@V?$_Vector_val@U?$_Simple_types@PAVMissile@@@std@@@std@@@std@@QAE@XZ 0043bde0 f i RunningState.obj
 0001:0003ae00       ??1?$_Vector_const_iterator@V?$_Vector_val@U?$_Simple_types@PAVVirus@@@std@@@std@@@std@@QAE@XZ 0043be00 f i RunningState.obj
 0001:0003ae20       ??1?$_Vector_iterator@V?$_Vector_val@U?$_Simple_types@PAVCollidableInterface@@@std@@@std@@@std@@QAE@XZ 0043be20 f i RunningState.obj
 0001:0003ae40       ??1?$_Vector_iterator@V?$_Vector_val@U?$_Simple_types@PAVMine@@@std@@@std@@@std@@QAE@XZ 0043be40 f i RunningState.obj
 0001:0003ae60       ??1?$_Vector_iterator@V?$_Vector_val@U?$_Simple_types@PAVMissile@@@std@@@std@@@std@@QAE@XZ 0043be60 f i RunningState.obj
 0001:0003ae80       ??1?$_Vector_iterator@V?$_Vector_val@U?$_Simple_types@PAVVirus@@@std@@@std@@@std@@QAE@XZ 0043be80 f i RunningState.obj
 0001:0003aea0       ??1?$vector@PAVCollidableInterface@@V?$allocator@PAVCollidableInterface@@@std@@@std@@QAE@XZ 0043bea0 f i RunningState.obj
 0001:0003af10       ??1?$vector@PAVMine@@V?$allocator@PAVMine@@@std@@@std@@QAE@XZ 0043bf10 f i RunningState.obj
 0001:0003af80       ??1?$vector@PAVMissile@@V?$allocator@PAVMissile@@@std@@@std@@QAE@XZ 0043bf80 f i RunningState.obj
 0001:0003aff0       ??1?$vector@PAVVirus@@V?$allocator@PAVVirus@@@std@@@std@@QAE@XZ 0043bff0 f i RunningState.obj
 0001:0003b060       ??1CollidableGameImageObject@@UAE@XZ 0043c060 f i RunningState.obj
 0001:0003b0a0       ??1Mine@@UAE@XZ            0043c0a0 f i RunningState.obj
 0001:0003b0e0       ??1Missile@@UAE@XZ         0043c0e0 f i RunningState.obj
 0001:0003b110       ??1Ship@@UAE@XZ            0043c110 f i RunningState.obj
 0001:0003b150       ??1Virus@@UAE@XZ           0043c150 f i RunningState.obj
 0001:0003b1a0       ??8?$_Vector_const_iterator@V?$_Vector_val@U?$_Simple_types@PAVCollidableInterface@@@std@@@std@@@std@@QBE_NABV01@@Z 0043c1a0 f i RunningState.obj
 0001:0003b1f0       ??8?$_Vector_const_iterator@V?$_Vector_val@U?$_Simple_types@PAVMine@@@std@@@std@@@std@@QBE_NABV01@@Z 0043c1f0 f i RunningState.obj
 0001:0003b240       ??8?$_Vector_const_iterator@V?$_Vector_val@U?$_Simple_types@PAVMissile@@@std@@@std@@@std@@QBE_NABV01@@Z 0043c240 f i RunningState.obj
 0001:0003b290       ??8?$_Vector_const_iterator@V?$_Vector_val@U?$_Simple_types@PAVVirus@@@std@@@std@@@std@@QBE_NABV01@@Z 0043c290 f i RunningState.obj
 0001:0003b2e0       ??9?$_Vector_const_iterator@V?$_Vector_val@U?$_Simple_types@PAVCollidableInterface@@@std@@@std@@@std@@QBE_NABV01@@Z 0043c2e0 f i RunningState.obj
 0001:0003b330       ??9?$_Vector_const_iterator@V?$_Vector_val@U?$_Simple_types@PAVMine@@@std@@@std@@@std@@QBE_NABV01@@Z 0043c330 f i RunningState.obj
 0001:0003b380       ??9?$_Vector_const_iterator@V?$_Vector_val@U?$_Simple_types@PAVMissile@@@std@@@std@@@std@@QBE_NABV01@@Z 0043c380 f i RunningState.obj
 0001:0003b3d0       ??9?$_Vector_const_iterator@V?$_Vector_val@U?$_Simple_types@PAVVirus@@@std@@@std@@@std@@QBE_NABV01@@Z 0043c3d0 f i RunningState.obj
 0001:0003b420       ??A?$vector@PAVMine@@V?$allocator@PAVMine@@@std@@@std@@QAEAAPAVMine@@I@Z 0043c420 f i RunningState.obj
 0001:0003b4d0       ??A?$vector@PAVMissile@@V?$allocator@PAVMissile@@@std@@@std@@QAEAAPAVMissile@@I@Z 0043c4d0 f i RunningState.obj
 0001:0003b580       ??A?$vector@PAVVirus@@V?$allocator@PAVVirus@@@std@@@std@@QAEAAPAVVirus@@I@Z 0043c580 f i RunningState.obj
 0001:0003b630       ??D?$_Vector_const_iterator@V?$_Vector_val@U?$_Simple_types@PAVCollidableInterface@@@std@@@std@@@std@@QBEABQAVCollidableInterface@@XZ 0043c630 f i RunningState.obj
 0001:0003b740       ??D?$_Vector_const_iterator@V?$_Vector_val@U?$_Simple_types@PAVMine@@@std@@@std@@@std@@QBEABQAVMine@@XZ 0043c740 f i RunningState.obj
 0001:0003b850       ??D?$_Vector_const_iterator@V?$_Vector_val@U?$_Simple_types@PAVMissile@@@std@@@std@@@std@@QBEABQAVMissile@@XZ 0043c850 f i RunningState.obj
 0001:0003b960       ??D?$_Vector_const_iterator@V?$_Vector_val@U?$_Simple_types@PAVVirus@@@std@@@std@@@std@@QBEABQAVVirus@@XZ 0043c960 f i RunningState.obj
 0001:0003ba70       ??D?$_Vector_iterator@V?$_Vector_val@U?$_Simple_types@PAVCollidableInterface@@@std@@@std@@@std@@QBEAAPAVCollidableInterface@@XZ 0043ca70 f i RunningState.obj
 0001:0003ba90       ??D?$_Vector_iterator@V?$_Vector_val@U?$_Simple_types@PAVMine@@@std@@@std@@@std@@QBEAAPAVMine@@XZ 0043ca90 f i RunningState.obj
 0001:0003bab0       ??D?$_Vector_iterator@V?$_Vector_val@U?$_Simple_types@PAVMissile@@@std@@@std@@@std@@QBEAAPAVMissile@@XZ 0043cab0 f i RunningState.obj
 0001:0003bad0       ??D?$_Vector_iterator@V?$_Vector_val@U?$_Simple_types@PAVVirus@@@std@@@std@@@std@@QBEAAPAVVirus@@XZ 0043cad0 f i RunningState.obj
 0001:0003baf0       ??E?$_Vector_const_iterator@V?$_Vector_val@U?$_Simple_types@PAVCollidableInterface@@@std@@@std@@@std@@QAEAAV01@XZ 0043caf0 f i RunningState.obj
 0001:0003bc00       ??E?$_Vector_const_iterator@V?$_Vector_val@U?$_Simple_types@PAVMine@@@std@@@std@@@std@@QAEAAV01@XZ 0043cc00 f i RunningState.obj
 0001:0003bd10       ??E?$_Vector_const_iterator@V?$_Vector_val@U?$_Simple_types@PAVMissile@@@std@@@std@@@std@@QAEAAV01@XZ 0043cd10 f i RunningState.obj
 0001:0003be20       ??E?$_Vector_const_iterator@V?$_Vector_val@U?$_Simple_types@PAVVirus@@@std@@@std@@@std@@QAEAAV01@XZ 0043ce20 f i RunningState.obj
 0001:0003bf30       ??E?$_Vector_iterator@V?$_Vector_val@U?$_Simple_types@PAVCollidableInterface@@@std@@@std@@@std@@QAEAAV01@XZ 0043cf30 f i RunningState.obj
 0001:0003bf50       ??E?$_Vector_iterator@V?$_Vector_val@U?$_Simple_types@PAVMine@@@std@@@std@@@std@@QAEAAV01@XZ 0043cf50 f i RunningState.obj
 0001:0003bf70       ??E?$_Vector_iterator@V?$_Vector_val@U?$_Simple_types@PAVMissile@@@std@@@std@@@std@@QAEAAV01@XZ 0043cf70 f i RunningState.obj
 0001:0003bf90       ??E?$_Vector_iterator@V?$_Vector_val@U?$_Simple_types@PAVVirus@@@std@@@std@@@std@@QAEAAV01@XZ 0043cf90 f i RunningState.obj
 0001:0003bfb0       ??_ECollidableGameImageObject@@UAEPAXI@Z 0043cfb0 f i RunningState.obj
 0001:0003bfb0       ??_GCollidableGameImageObject@@UAEPAXI@Z 0043cfb0 f i RunningState.obj
 0001:0003bff0       ??_EMine@@UAEPAXI@Z        0043cff0 f i RunningState.obj
 0001:0003bff0       ??_GMine@@UAEPAXI@Z        0043cff0 f i RunningState.obj
 0001:0003c030       ??_EMissile@@UAEPAXI@Z     0043d030 f i RunningState.obj
 0001:0003c030       ??_GMissile@@UAEPAXI@Z     0043d030 f i RunningState.obj
 0001:0003c070       ??_EShip@@UAEPAXI@Z        0043d070 f i RunningState.obj
 0001:0003c070       ??_GShip@@UAEPAXI@Z        0043d070 f i RunningState.obj
 0001:0003c0b0       ??_GVirus@@UAEPAXI@Z       0043d0b0 f i RunningState.obj
 0001:0003c0b0       ??_EVirus@@UAEPAXI@Z       0043d0b0 f i RunningState.obj
 0001:0003c0f0       ?_Calculate_growth@?$vector@PAVCollidableInterface@@V?$allocator@PAVCollidableInterface@@@std@@@std@@ABEII@Z 0043d0f0 f i RunningState.obj
 0001:0003c160       ?_Calculate_growth@?$vector@PAVMine@@V?$allocator@PAVMine@@@std@@@std@@ABEII@Z 0043d160 f i RunningState.obj
 0001:0003c1d0       ?_Calculate_growth@?$vector@PAVMissile@@V?$allocator@PAVMissile@@@std@@@std@@ABEII@Z 0043d1d0 f i RunningState.obj
 0001:0003c240       ?_Calculate_growth@?$vector@PAVVirus@@V?$allocator@PAVVirus@@@std@@@std@@ABEII@Z 0043d240 f i RunningState.obj
 0001:0003c2b0       ?_Change_array@?$vector@PAVCollidableInterface@@V?$allocator@PAVCollidableInterface@@@std@@@std@@AAEXQAPAVCollidableInterface@@II@Z 0043d2b0 f i RunningState.obj
 0001:0003c380       ?_Change_array@?$vector@PAVMine@@V?$allocator@PAVMine@@@std@@@std@@AAEXQAPAVMine@@II@Z 0043d380 f i RunningState.obj
 0001:0003c450       ?_Change_array@?$vector@PAVMissile@@V?$allocator@PAVMissile@@@std@@@std@@AAEXQAPAVMissile@@II@Z 0043d450 f i RunningState.obj
 0001:0003c520       ?_Change_array@?$vector@PAVVirus@@V?$allocator@PAVVirus@@@std@@@std@@AAEXQAPAVVirus@@II@Z 0043d520 f i RunningState.obj
 0001:0003c5f0       ?_Compat@?$_Vector_const_iterator@V?$_Vector_val@U?$_Simple_types@PAVCollidableInterface@@@std@@@std@@@std@@QBEXABV12@@Z 0043d5f0 f i RunningState.obj
 0001:0003c690       ?_Compat@?$_Vector_const_iterator@V?$_Vector_val@U?$_Simple_types@PAVMine@@@std@@@std@@@std@@QBEXABV12@@Z 0043d690 f i RunningState.obj
 0001:0003c730       ?_Compat@?$_Vector_const_iterator@V?$_Vector_val@U?$_Simple_types@PAVMissile@@@std@@@std@@@std@@QBEXABV12@@Z 0043d730 f i RunningState.obj
 0001:0003c7d0       ?_Compat@?$_Vector_const_iterator@V?$_Vector_val@U?$_Simple_types@PAVVirus@@@std@@@std@@@std@@QBEXABV12@@Z 0043d7d0 f i RunningState.obj
 0001:0003c870       ?_Destroy@?$vector@PAVCollidableInterface@@V?$allocator@PAVCollidableInterface@@@std@@@std@@AAEXPAPAVCollidableInterface@@0@Z 0043d870 f i RunningState.obj
 0001:0003c8a0       ?_Destroy@?$vector@PAVMine@@V?$allocator@PAVMine@@@std@@@std@@AAEXPAPAVMine@@0@Z 0043d8a0 f i RunningState.obj
 0001:0003c8d0       ?_Destroy@?$vector@PAVMissile@@V?$allocator@PAVMissile@@@std@@@std@@AAEXPAPAVMissile@@0@Z 0043d8d0 f i RunningState.obj
 0001:0003c900       ?_Destroy@?$vector@PAVVirus@@V?$allocator@PAVVirus@@@std@@@std@@AAEXPAPAVVirus@@0@Z 0043d900 f i RunningState.obj
 0001:0003c930       ?_Get_first@?$_Compressed_pair@V?$allocator@PAVCollidableInterface@@@std@@V?$_Vector_val@U?$_Simple_types@PAVCollidableInterface@@@std@@@2@$00@std@@QAEAAV?$allocator@PAVCollidableInterface@@@2@XZ 0043d930 f i RunningState.obj
 0001:0003c950       ?_Get_first@?$_Compressed_pair@V?$allocator@PAVCollidableInterface@@@std@@V?$_Vector_val@U?$_Simple_types@PAVCollidableInterface@@@std@@@2@$00@std@@QBEABV?$allocator@PAVCollidableInterface@@@2@XZ 0043d950 f i RunningState.obj
 0001:0003c970       ?_Get_first@?$_Compressed_pair@V?$allocator@PAVMine@@@std@@V?$_Vector_val@U?$_Simple_types@PAVMine@@@std@@@2@$00@std@@QAEAAV?$allocator@PAVMine@@@2@XZ 0043d970 f i RunningState.obj
 0001:0003c990       ?_Get_first@?$_Compressed_pair@V?$allocator@PAVMine@@@std@@V?$_Vector_val@U?$_Simple_types@PAVMine@@@std@@@2@$00@std@@QBEABV?$allocator@PAVMine@@@2@XZ 0043d990 f i RunningState.obj
 0001:0003c9b0       ?_Get_first@?$_Compressed_pair@V?$allocator@PAVMissile@@@std@@V?$_Vector_val@U?$_Simple_types@PAVMissile@@@std@@@2@$00@std@@QAEAAV?$allocator@PAVMissile@@@2@XZ 0043d9b0 f i RunningState.obj
 0001:0003c9d0       ?_Get_first@?$_Compressed_pair@V?$allocator@PAVMissile@@@std@@V?$_Vector_val@U?$_Simple_types@PAVMissile@@@std@@@2@$00@std@@QBEABV?$allocator@PAVMissile@@@2@XZ 0043d9d0 f i RunningState.obj
 0001:0003c9f0       ?_Get_first@?$_Compressed_pair@V?$allocator@PAVVirus@@@std@@V?$_Vector_val@U?$_Simple_types@PAVVirus@@@std@@@2@$00@std@@QAEAAV?$allocator@PAVVirus@@@2@XZ 0043d9f0 f i RunningState.obj
 0001:0003ca10       ?_Get_first@?$_Compressed_pair@V?$allocator@PAVVirus@@@std@@V?$_Vector_val@U?$_Simple_types@PAVVirus@@@std@@@2@$00@std@@QBEABV?$allocator@PAVVirus@@@2@XZ 0043da10 f i RunningState.obj
 0001:0003ca30       ?_Getal@?$vector@PAVCollidableInterface@@V?$allocator@PAVCollidableInterface@@@std@@@std@@AAEAAV?$allocator@PAVCollidableInterface@@@2@XZ 0043da30 f i RunningState.obj
 0001:0003ca50       ?_Getal@?$vector@PAVCollidableInterface@@V?$allocator@PAVCollidableInterface@@@std@@@std@@ABEABV?$allocator@PAVCollidableInterface@@@2@XZ 0043da50 f i RunningState.obj
 0001:0003ca70       ?_Getal@?$vector@PAVMine@@V?$allocator@PAVMine@@@std@@@std@@AAEAAV?$allocator@PAVMine@@@2@XZ 0043da70 f i RunningState.obj
 0001:0003ca90       ?_Getal@?$vector@PAVMine@@V?$allocator@PAVMine@@@std@@@std@@ABEABV?$allocator@PAVMine@@@2@XZ 0043da90 f i RunningState.obj
 0001:0003cab0       ?_Getal@?$vector@PAVMissile@@V?$allocator@PAVMissile@@@std@@@std@@AAEAAV?$allocator@PAVMissile@@@2@XZ 0043dab0 f i RunningState.obj
 0001:0003cad0       ?_Getal@?$vector@PAVMissile@@V?$allocator@PAVMissile@@@std@@@std@@ABEABV?$allocator@PAVMissile@@@2@XZ 0043dad0 f i RunningState.obj
 0001:0003caf0       ?_Getal@?$vector@PAVVirus@@V?$allocator@PAVVirus@@@std@@@std@@AAEAAV?$allocator@PAVVirus@@@2@XZ 0043daf0 f i RunningState.obj
 0001:0003cb10       ?_Getal@?$vector@PAVVirus@@V?$allocator@PAVVirus@@@std@@@std@@ABEABV?$allocator@PAVVirus@@@2@XZ 0043db10 f i RunningState.obj
 0001:0003cb30       ?_Orphan_range@?$vector@PAVCollidableInterface@@V?$allocator@PAVCollidableInterface@@@std@@@std@@ABEXPAPAVCollidableInterface@@0@Z 0043db30 f i RunningState.obj
 0001:0003cbd0       ?_Orphan_range@?$vector@PAVMine@@V?$allocator@PAVMine@@@std@@@std@@ABEXPAPAVMine@@0@Z 0043dbd0 f i RunningState.obj
 0001:0003cc70       ?_Orphan_range@?$vector@PAVMissile@@V?$allocator@PAVMissile@@@std@@@std@@ABEXPAPAVMissile@@0@Z 0043dc70 f i RunningState.obj
 0001:0003cd10       ?_Orphan_range@?$vector@PAVVirus@@V?$allocator@PAVVirus@@@std@@@std@@ABEXPAPAVVirus@@0@Z 0043dd10 f i RunningState.obj
 0001:0003cdb0       ?_Tidy@?$vector@PAVCollidableInterface@@V?$allocator@PAVCollidableInterface@@@std@@@std@@AAEXXZ 0043ddb0 f i RunningState.obj
 0001:0003cea0       ?_Tidy@?$vector@PAVMine@@V?$allocator@PAVMine@@@std@@@std@@AAEXXZ 0043dea0 f i RunningState.obj
 0001:0003cf90       ?_Tidy@?$vector@PAVMissile@@V?$allocator@PAVMissile@@@std@@@std@@AAEXXZ 0043df90 f i RunningState.obj
 0001:0003d080       ?_Tidy@?$vector@PAVVirus@@V?$allocator@PAVVirus@@@std@@@std@@AAEXXZ 0043e080 f i RunningState.obj
 0001:0003d170       ?_Umove@?$vector@PAVCollidableInterface@@V?$allocator@PAVCollidableInterface@@@std@@@std@@AAEPAPAVCollidableInterface@@PAPAV3@00@Z 0043e170 f i RunningState.obj
 0001:0003d1b0       ?_Umove@?$vector@PAVMine@@V?$allocator@PAVMine@@@std@@@std@@AAEPAPAVMine@@PAPAV3@00@Z 0043e1b0 f i RunningState.obj
 0001:0003d1f0       ?_Umove@?$vector@PAVMissile@@V?$allocator@PAVMissile@@@std@@@std@@AAEPAPAVMissile@@PAPAV3@00@Z 0043e1f0 f i RunningState.obj
 0001:0003d230       ?_Umove@?$vector@PAVVirus@@V?$allocator@PAVVirus@@@std@@@std@@AAEPAPAVVirus@@PAPAV3@00@Z 0043e230 f i RunningState.obj
 0001:0003d270       ?_Umove_if_noexcept1@?$vector@PAVCollidableInterface@@V?$allocator@PAVCollidableInterface@@@std@@@std@@AAEXPAPAVCollidableInterface@@00U?$integral_constant@_N$00@2@@Z 0043e270 f i RunningState.obj
 0001:0003d2b0       ?_Umove_if_noexcept1@?$vector@PAVMine@@V?$allocator@PAVMine@@@std@@@std@@AAEXPAPAVMine@@00U?$integral_constant@_N$00@2@@Z 0043e2b0 f i RunningState.obj
 0001:0003d2f0       ?_Umove_if_noexcept1@?$vector@PAVMissile@@V?$allocator@PAVMissile@@@std@@@std@@AAEXPAPAVMissile@@00U?$integral_constant@_N$00@2@@Z 0043e2f0 f i RunningState.obj
 0001:0003d330       ?_Umove_if_noexcept1@?$vector@PAVVirus@@V?$allocator@PAVVirus@@@std@@@std@@AAEXPAPAVVirus@@00U?$integral_constant@_N$00@2@@Z 0043e330 f i RunningState.obj
 0001:0003d370       ?_Umove_if_noexcept@?$vector@PAVCollidableInterface@@V?$allocator@PAVCollidableInterface@@@std@@@std@@AAEXPAPAVCollidableInterface@@00@Z 0043e370 f i RunningState.obj
 0001:0003d3b0       ?_Umove_if_noexcept@?$vector@PAVMine@@V?$allocator@PAVMine@@@std@@@std@@AAEXPAPAVMine@@00@Z 0043e3b0 f i RunningState.obj
 0001:0003d3f0       ?_Umove_if_noexcept@?$vector@PAVMissile@@V?$allocator@PAVMissile@@@std@@@std@@AAEXPAPAVMissile@@00@Z 0043e3f0 f i RunningState.obj
 0001:0003d430       ?_Umove_if_noexcept@?$vector@PAVVirus@@V?$allocator@PAVVirus@@@std@@@std@@AAEXPAPAVVirus@@00@Z 0043e430 f i RunningState.obj
 0001:0003d470       ?_Xlength@?$vector@PAVCollidableInterface@@V?$allocator@PAVCollidableInterface@@@std@@@std@@CAXXZ 0043e470 f i RunningState.obj
 0001:0003d490       ?_Xlength@?$vector@PAVMine@@V?$allocator@PAVMine@@@std@@@std@@CAXXZ 0043e490 f i RunningState.obj
 0001:0003d4b0       ?_Xlength@?$vector@PAVMissile@@V?$allocator@PAVMissile@@@std@@@std@@CAXXZ 0043e4b0 f i RunningState.obj
 0001:0003d4d0       ?_Xlength@?$vector@PAVVirus@@V?$allocator@PAVVirus@@@std@@@std@@CAXXZ 0043e4d0 f i RunningState.obj
 0001:0003d4f0       ?addCollidableObject@Virus@@QAEXPAVCollidableInterface@@@Z 0043e4f0 f i RunningState.obj
 0001:0003d520       ?allocate@?$allocator@PAVCollidableInterface@@@std@@QAEPAPAVCollidableInterface@@I@Z 0043e520 f i RunningState.obj
 0001:0003d550       ?allocate@?$allocator@PAVMine@@@std@@QAEPAPAVMine@@I@Z 0043e550 f i RunningState.obj
 0001:0003d580       ?allocate@?$allocator@PAVMissile@@@std@@QAEPAPAVMissile@@I@Z 0043e580 f i RunningState.obj
 0001:0003d5b0       ?allocate@?$allocator@PAVVirus@@@std@@QAEPAPAVVirus@@I@Z 0043e5b0 f i RunningState.obj
 0001:0003d5e0       ?appendObjectToArray@DisplayableObjectContainer@@QAEXPAVDisplayableObject@@@Z 0043e5e0 f i RunningState.obj
 0001:0003d620       ?begin@?$vector@PAVCollidableInterface@@V?$allocator@PAVCollidableInterface@@@std@@@std@@QAE?AV?$_Vector_iterator@V?$_Vector_val@U?$_Simple_types@PAVCollidableInterface@@@std@@@std@@@2@XZ 0043e620 f i RunningState.obj
 0001:0003d670       ?begin@?$vector@PAVMine@@V?$allocator@PAVMine@@@std@@@std@@QAE?AV?$_Vector_iterator@V?$_Vector_val@U?$_Simple_types@PAVMine@@@std@@@std@@@2@XZ 0043e670 f i RunningState.obj
 0001:0003d6c0       ?begin@?$vector@PAVMissile@@V?$allocator@PAVMissile@@@std@@@std@@QAE?AV?$_Vector_iterator@V?$_Vector_val@U?$_Simple_types@PAVMissile@@@std@@@std@@@2@XZ 0043e6c0 f i RunningState.obj
 0001:0003d710       ?begin@?$vector@PAVVirus@@V?$allocator@PAVVirus@@@std@@@std@@QAE?AV?$_Vector_iterator@V?$_Vector_val@U?$_Simple_types@PAVVirus@@@std@@@std@@@2@XZ 0043e710 f i RunningState.obj
 0001:0003d760       ?calculate@MovementPosition@@QAEXH@Z 0043e760 f i RunningState.obj
 0001:0003d850       ?capacity@?$vector@PAVCollidableInterface@@V?$allocator@PAVCollidableInterface@@@std@@@std@@QBEIXZ 0043e850 f i RunningState.obj
 0001:0003d880       ?capacity@?$vector@PAVMine@@V?$allocator@PAVMine@@@std@@@std@@QBEIXZ 0043e880 f i RunningState.obj
 0001:0003d8b0       ?capacity@?$vector@PAVMissile@@V?$allocator@PAVMissile@@@std@@@std@@QBEIXZ 0043e8b0 f i RunningState.obj
 0001:0003d8e0       ?capacity@?$vector@PAVVirus@@V?$allocator@PAVVirus@@@std@@@std@@QBEIXZ 0043e8e0 f i RunningState.obj
 0001:0003d910       ?checkFinishDrag@Mine@@UAEXHH@Z 0043e910 f i RunningState.obj
 0001:0003d980       ?clear@?$vector@PAVCollidableInterface@@V?$allocator@PAVCollidableInterface@@@std@@@std@@QAEXXZ 0043e980 f i RunningState.obj
 0001:0003da20       ?clear@?$vector@PAVMine@@V?$allocator@PAVMine@@@std@@@std@@QAEXXZ 0043ea20 f i RunningState.obj
 0001:0003dac0       ?clear@?$vector@PAVMissile@@V?$allocator@PAVMissile@@@std@@@std@@QAEXXZ 0043eac0 f i RunningState.obj
 0001:0003db60       ?clear@?$vector@PAVVirus@@V?$allocator@PAVVirus@@@std@@@std@@QAEXXZ 0043eb60 f i RunningState.obj
 0001:0003dc00       ?clearCollidableObjects@Virus@@QAEXXZ 0043ec00 f i RunningState.obj
 0001:0003dc20       ?deallocate@?$allocator@PAVCollidableInterface@@@std@@QAEXQAPAVCollidableInterface@@I@Z 0043ec20 f i RunningState.obj
 0001:0003dc50       ?deallocate@?$allocator@PAVMine@@@std@@QAEXQAPAVMine@@I@Z 0043ec50 f i RunningState.obj
 0001:0003dc80       ?deallocate@?$allocator@PAVMissile@@@std@@QAEXQAPAVMissile@@I@Z 0043ec80 f i RunningState.obj
 0001:0003dcb0       ?deallocate@?$allocator@PAVVirus@@@std@@QAEXQAPAVVirus@@I@Z 0043ecb0 f i RunningState.obj
 0001:0003dce0       ?drawForegroundThickLine@BaseEngine@@QAEXHHHHIH@Z 0043ece0 f i RunningState.obj
 0001:0003dd50       ?end@?$vector@PAVCollidableInterface@@V?$allocator@PAVCollidableInterface@@@std@@@std@@QAE?AV?$_Vector_iterator@V?$_Vector_val@U?$_Simple_types@PAVCollidableInterface@@@std@@@std@@@2@XZ 0043ed50 f i RunningState.obj
 0001:0003dda0       ?end@?$vector@PAVMine@@V?$allocator@PAVMine@@@std@@@std@@QAE?AV?$_Vector_iterator@V?$_Vector_val@U?$_Simple_types@PAVMine@@@std@@@std@@@2@XZ 0043eda0 f i RunningState.obj
 0001:0003ddf0       ?end@?$vector@PAVMissile@@V?$allocator@PAVMissile@@@std@@@std@@QAE?AV?$_Vector_iterator@V?$_Vector_val@U?$_Simple_types@PAVMissile@@@std@@@std@@@2@XZ 0043edf0 f i RunningState.obj
 0001:0003de40       ?end@?$vector@PAVVirus@@V?$allocator@PAVVirus@@@std@@@std@@QAE?AV?$_Vector_iterator@V?$_Vector_val@U?$_Simple_types@PAVVirus@@@std@@@std@@@2@XZ 0043ee40 f i RunningState.obj
 0001:0003de90       ?erase@?$vector@PAVCollidableInterface@@V?$allocator@PAVCollidableInterface@@@std@@@std@@QAE?AV?$_Vector_iterator@V?$_Vector_val@U?$_Simple_types@PAVCollidableInterface@@@std@@@std@@@2@V?$_Vector_const_iterator@V?$_Vector_val@U?$_Simple_types@PAVCollidableInterface@@@std@@@std@@@2@@Z 0043ee90 f i RunningState.obj
 0001:0003e040       ?erase@?$vector@PAVMine@@V?$allocator@PAVMine@@@std@@@std@@QAE?AV?$_Vector_iterator@V?$_Vector_val@U?$_Simple_types@PAVMine@@@std@@@std@@@2@V?$_Vector_const_iterator@V?$_Vector_val@U?$_Simple_types@PAVMine@@@std@@@std@@@2@@Z 0043f040 f i RunningState.obj
 0001:0003e1f0       ?erase@?$vector@PAVMissile@@V?$allocator@PAVMissile@@@std@@@std@@QAE?AV?$_Vector_iterator@V?$_Vector_val@U?$_Simple_types@PAVMissile@@@std@@@std@@@2@V?$_Vector_const_iterator@V?$_Vector_val@U?$_Simple_types@PAVMissile@@@std@@@std@@@2@@Z 0043f1f0 f i RunningState.obj
 0001:0003e3a0       ?erase@?$vector@PAVVirus@@V?$allocator@PAVVirus@@@std@@@std@@QAE?AV?$_Vector_iterator@V?$_Vector_val@U?$_Simple_types@PAVVirus@@@std@@@std@@@2@V?$_Vector_const_iterator@V?$_Vector_val@U?$_Simple_types@PAVVirus@@@std@@@std@@@2@@Z 0043f3a0 f i RunningState.obj
 0001:0003e550       ?getAngle@Missile@@QBENXZ  0043f550 f i RunningState.obj
 0001:0003e570       ?getDrawHeight@DisplayableObject@@QBEHXZ 0043f570 f i RunningState.obj
 0001:0003e590       ?getDrawWidth@DisplayableObject@@QBEHXZ 0043f590 f i RunningState.obj
 0001:0003e5b0       ?getHeight@CollidableGameImageObject@@UAEHXZ 0043f5b0 f i RunningState.obj
 0001:0003e5d0       ?getHeight@Mine@@UAEHXZ    0043f5d0 f i RunningState.obj
 0001:0003e5f0       ?getHeight@Missile@@UAEHXZ 0043f5f0 f i RunningState.obj
 0001:0003e610       ?getImageHeight@MappableImageObject@@QAEHXZ 0043f610 f i RunningState.obj
 0001:0003e630       ?getImageWidth@MappableImageObject@@QAEHXZ 0043f630 f i RunningState.obj
 0001:0003e650       ?getMovementPositionCalc@Virus@@QBEABVMovementPosition@@XZ 0043f650 f i RunningState.obj
 0001:0003e670       ?getMovementTimeLeft@Virus@@QBEHXZ 0043f670 f i RunningState.obj
 0001:0003e690       ?getRawTime@BaseEngine@@QBEHXZ 0043f690 f i RunningState.obj
 0001:0003e6b0       ?getRotationSpeed@Virus@@QBENXZ 0043f6b0 f i RunningState.obj
 0001:0003e6d0       ?getRotator@GameImageObject@@QAEAAVCoordinateMappingRotate@@XZ 0043f6d0 f i RunningState.obj
 0001:0003e6f0       ?getToX@Virus@@QBEHXZ      0043f6f0 f i RunningState.obj
 0001:0003e710       ?getToY@Virus@@QBEHXZ      0043f710 f i RunningState.obj
 0001:0003e730       ?getWidth@CollidableGameImageObject@@UAEHXZ 0043f730 f i RunningState.obj
 0001:0003e750       ?getWidth@Mine@@UAEHXZ     0043f750 f i RunningState.obj
 0001:0003e770       ?getWidth@Missile@@UAEHXZ  0043f770 f i RunningState.obj
 0001:0003e790       ?getX@CollidableGameImageObject@@UAEHXZ 0043f790 f i RunningState.obj
 0001:0003e7b0       ?getX@Mine@@UAEHXZ         0043f7b0 f i RunningState.obj
 0001:0003e7d0       ?getX@Missile@@UAEHXZ      0043f7d0 f i RunningState.obj
 0001:0003e7f0       ?getX@MovementPosition@@QBEHXZ 0043f7f0 f i RunningState.obj
 0001:0003e810       ?getXDbl@GameImageObject@@QBENXZ 0043f810 f i RunningState.obj
 0001:0003e830       ?getY@CollidableGameImageObject@@UAEHXZ 0043f830 f i RunningState.obj
 0001:0003e850       ?getY@Mine@@UAEHXZ         0043f850 f i RunningState.obj
 0001:0003e870       ?getY@Missile@@UAEHXZ      0043f870 f i RunningState.obj
 0001:0003e890       ?getY@MovementPosition@@QBEHXZ 0043f890 f i RunningState.obj
 0001:0003e8b0       ?getYDbl@GameImageObject@@QBENXZ 0043f8b0 f i RunningState.obj
 0001:0003e8d0       ?hasCollided@Mine@@UAE_NPAVGameImageObject@@@Z 0043f8d0 f i RunningState.obj
 0001:0003eb10       ?hasCollided@Missile@@UAE_NPAVGameImageObject@@@Z 0043fb10 f i RunningState.obj
 0001:0003ecd0       ?hasCollided@Ship@@UAE_NPAVGameImageObject@@@Z 0043fcd0 f i RunningState.obj
 0001:0003ef10       ?hasMovementFinished@MovementPosition@@QBE_NH@Z 0043ff10 f i RunningState.obj
 0001:0003ef50       ?max_size@?$_Default_allocator_traits@V?$allocator@PAVCollidableInterface@@@std@@@std@@SAIABV?$allocator@PAVCollidableInterface@@@2@@Z 0043ff50 f i RunningState.obj
 0001:0003ef60       ?max_size@?$_Default_allocator_traits@V?$allocator@PAVMine@@@std@@@std@@SAIABV?$allocator@PAVMine@@@2@@Z 0043ff60 f i RunningState.obj
 0001:0003ef70       ?max_size@?$_Default_allocator_traits@V?$allocator@PAVMissile@@@std@@@std@@SAIABV?$allocator@PAVMissile@@@2@@Z 0043ff70 f i RunningState.obj
 0001:0003ef80       ?max_size@?$_Default_allocator_traits@V?$allocator@PAVVirus@@@std@@@std@@SAIABV?$allocator@PAVVirus@@@2@@Z 0043ff80 f i RunningState.obj
 0001:0003ef90       ?max_size@?$vector@PAVCollidableInterface@@V?$allocator@PAVCollidableInterface@@@std@@@std@@QBEIXZ 0043ff90 f i RunningState.obj
 0001:0003efe0       ?max_size@?$vector@PAVMine@@V?$allocator@PAVMine@@@std@@@std@@QBEIXZ 0043ffe0 f i RunningState.obj
 0001:0003f030       ?max_size@?$vector@PAVMissile@@V?$allocator@PAVMissile@@@std@@@std@@QBEIXZ 00440030 f i RunningState.obj
 0001:0003f080       ?max_size@?$vector@PAVVirus@@V?$allocator@PAVVirus@@@std@@@std@@QBEIXZ 00440080 f i RunningState.obj
 0001:0003f0d0       ?onCollision@Mine@@UAEXXZ  004400d0 f i RunningState.obj
 0001:0003f120       ?onCollision@Missile@@UAEXXZ 00440120 f i RunningState.obj
 0001:0003f170       ?onCollision@Ship@@UAEXXZ  00440170 f i RunningState.obj
 0001:0003f1c0       ?push_back@?$vector@PAVCollidableInterface@@V?$allocator@PAVCollidableInterface@@@std@@@std@@QAEXABQAVCollidableInterface@@@Z 004401c0 f i RunningState.obj
 0001:0003f1e0       ?push_back@?$vector@PAVMine@@V?$allocator@PAVMine@@@std@@@std@@QAEXABQAVMine@@@Z 004401e0 f i RunningState.obj
 0001:0003f200       ?push_back@?$vector@PAVMissile@@V?$allocator@PAVMissile@@@std@@@std@@QAEXABQAVMissile@@@Z 00440200 f i RunningState.obj
 0001:0003f220       ?push_back@?$vector@PAVVirus@@V?$allocator@PAVVirus@@@std@@@std@@QAEXABQAVVirus@@@Z 00440220 f i RunningState.obj
 0001:0003f240       ?removeCollidableObject@Virus@@QAEXPAVCollidableInterface@@@Z 00440240 f i RunningState.obj
 0001:0003f370       ?removeDisplayableObject@DisplayableObjectContainer@@QAE_NPAVDisplayableObject@@@Z 00440370 f i RunningState.obj
 0001:0003f4e0       ?setPositionDbl@GameImageObject@@QAEXNN@Z 004404e0 f i RunningState.obj
 0001:0003f550       ?setScore@EzyjddEngineCW4@@QAEXH@Z 00440550 f i RunningState.obj
 0001:0003f570       ?setup@MovementPosition@@QAEXHHHHHH@Z 00440570 f i RunningState.obj
 0001:0003f5e0       ?size@?$vector@PAVMine@@V?$allocator@PAVMine@@@std@@@std@@QBEIXZ 004405e0 f i RunningState.obj
 0001:0003f610       ?size@?$vector@PAVMissile@@V?$allocator@PAVMissile@@@std@@@std@@QBEIXZ 00440610 f i RunningState.obj
 0001:0003f640       ?size@?$vector@PAVVirus@@V?$allocator@PAVVirus@@@std@@@std@@QBEIXZ 00440640 f i RunningState.obj
 0001:0003f670       ?startMovement@Virus@@QAEXXZ 00440670 f i RunningState.obj
 0001:0003fa60       ?virtDoUpdate@Missile@@UAEXH@Z 00440a60 f i RunningState.obj
 0001:0003fc00       ?virtDoUpdate@Virus@@UAEXH@Z 00440c00 f i RunningState.obj
 0001:0003fe70       ?virtDraw@Missile@@UAEXXZ  00440e70 f i RunningState.obj
 0001:000402f0       ??0LevelInstructionsState@@QAE@PAVBaseEngine@@@Z 004412f0 f   LevelInstructionsState.obj
 0001:000404a0       ??1LevelInstructionsState@@UAE@XZ 004414a0 f   LevelInstructionsState.obj
 0001:00040500       ?initialiseObjects@LevelInstructionsState@@UAEHXZ 00441500 f   LevelInstructionsState.obj
 0001:000416e0       ?setupBackgroundBuffer@LevelInstructionsState@@UAEXXZ 004426e0 f   LevelInstructionsState.obj
 0001:00041840       ?keyDown@LevelInstructionsState@@UAEXH@Z 00442840 f   LevelInstructionsState.obj
 0001:00041930       ?prepareState@LevelInstructionsState@@QAEXH@Z 00442930 f   LevelInstructionsState.obj
 0001:00041f60       ??0FlashingTextObject@@QAE@PAVBaseEngine@@HHPBDHHH@Z 00442f60 f i LevelInstructionsState.obj
 0001:00042020       ??1FlashingTextObject@@UAE@XZ 00443020 f i LevelInstructionsState.obj
 0001:00042040       ??_EFlashingTextObject@@UAEPAXI@Z 00443040 f i LevelInstructionsState.obj
 0001:00042040       ??_GFlashingTextObject@@UAEPAXI@Z 00443040 f i LevelInstructionsState.obj
 0001:00042080       ?virtDoUpdate@FlashingTextObject@@UAEXH@Z 00443080 f i LevelInstructionsState.obj
 0001:00042110       ?virtDraw@FlashingTextObject@@UAEXXZ 00443110 f i LevelInstructionsState.obj
 0001:000421a0       ?mapCoordinates@CroppedCoordinateMapping@@UAE_NAAN0ABVSimpleImage@@@Z 004431a0 f i SimpleImage.obj
 0001:00042240       ??0SimpleImage@@QAE@XZ     00443240 f   SimpleImage.obj
 0001:00042270       ??0SimpleImage@@QAE@V?$shared_ptr@VRawImageData@@@std@@@Z 00443270 f   SimpleImage.obj
 0001:000422b0       ?exists@SimpleImage@@QBE_NXZ 004432b0 f   SimpleImage.obj
 0001:000422d0       ?renderImage@SimpleImage@@QBEXPAVDrawingSurface@@HHHHHH@Z 004432d0 f   SimpleImage.obj
 0001:000423e0       ?renderImageWithMask@SimpleImage@@QBEXPAVDrawingSurface@@HHHHHHH@Z 004433e0 f   SimpleImage.obj
 0001:00042520       ?renderImageWithMaskAndTransparency@SimpleImage@@QBEXPAVDrawingSurface@@HHHHHHHH@Z 00443520 f   SimpleImage.obj
 0001:000426f0       ?adjustXYWidthHeight@SimpleImage@@SA_NPAVDrawingSurface@@AAH11111@Z 004436f0 f   SimpleImage.obj
 0001:000428f0       ?renderImageBlit@SimpleImage@@QAEXPAVBaseEngine@@PAVDrawingSurface@@HHHHHHHH@Z 004438f0 f   SimpleImage.obj
 0001:00042ba0       ?renderImageApplyingMapping@SimpleImage@@QBEXPAVBaseEngine@@PAVDrawingSurface@@HHHHPAVCoordinateMapping@@@Z 00443ba0 f   SimpleImage.obj
 0001:000431b0       ??BDrawingSurface@@QAEPAUSDL_Surface@@XZ 004441b0 f i SimpleImage.obj
 0001:000431d0       ?getSurface@RawImageData@@QAEPAUSDL_Surface@@XZ 004441d0 f i SimpleImage.obj
 0001:000431f0       ?rawGetPixel@DrawingSurface@@QBEIHH@Z 004441f0 f i SimpleImage.obj
 0001:00043260       ??0JasonsDemoA@@QAE@XZ     00444260 f   JasonsDemoA.obj
 0001:000432d0       ??1JasonsDemoA@@UAE@XZ     004442d0 f   JasonsDemoA.obj
 0001:00043310       ?virtSetupBackgroundBuffer@JasonsDemoA@@UAEXXZ 00444310 f   JasonsDemoA.obj
 0001:00043550       ?virtMouseDown@JasonsDemoA@@UAEXHHH@Z 00444550 f   JasonsDemoA.obj
 0001:00043670       ?virtKeyDown@JasonsDemoA@@UAEXH@Z 00444670 f   JasonsDemoA.obj
 0001:000436a0       ?virtInitialiseObjects@JasonsDemoA@@UAEHXZ 004446a0 f   JasonsDemoA.obj
 0001:00043890       ??E?$_Vector_const_iterator@V?$_Vector_val@U?$_Simple_types@PAVDisplayableObject@@@std@@@std@@@std@@QAE?AV01@H@Z 00444890 f i JasonsDemoA.obj
 0001:00043940       ??_EJasonsDemoA@@UAEPAXI@Z 00444940 f i JasonsDemoA.obj
 0001:00043940       ??_GJasonsDemoA@@UAEPAXI@Z 00444940 f i JasonsDemoA.obj
 0001:00043980       ?drawBackgroundOval@BaseEngine@@QAEXHHHHI@Z 00444980 f i JasonsDemoA.obj
 0001:000439c0       ?getMapValue@TileManager@@QBEHHH@Z 004449c0 f i JasonsDemoA.obj
 0001:000439f0       ?getMapXForScreenX@TileManager@@QBEHH@Z 004449f0 f i JasonsDemoA.obj
 0001:00043a20       ?getMapYForScreenY@TileManager@@QBEHH@Z 00444a20 f i JasonsDemoA.obj
 0001:00043a50       ?getTileHeight@TileManager@@QBEHXZ 00444a50 f i JasonsDemoA.obj
 0001:00043a70       ?getTileWidth@TileManager@@QBEHXZ 00444a70 f i JasonsDemoA.obj
 0001:00043a90       ?isValidTilePosition@TileManager@@QBE_NHH@Z 00444a90 f i JasonsDemoA.obj
 0001:00043b20       ?setAllObjectsVisible@DisplayableObjectContainer@@QBEX_N@Z 00444b20 f i JasonsDemoA.obj
 0001:00043c30       ?setAndRedrawMapValueAt@TileManager@@QAEXHHHPAVBaseEngine@@PAVDrawingSurface@@@Z 00444c30 f i JasonsDemoA.obj
 0001:00043cd0       ?setMapValue@TileManager@@QAEHHHH@Z 00444cd0 f i JasonsDemoA.obj
 0001:00043d10       ?setTopLeftPositionOnScreen@TileManager@@QAEXHH@Z 00444d10 f i JasonsDemoA.obj
 0001:00043d40       ??0JasonsObjectA@@QAE@PAVBaseEngine@@@Z 00444d40 f   JasonsObjectA.obj
 0001:00043d80       ??1JasonsObjectA@@UAE@XZ   00444d80 f   JasonsObjectA.obj
 0001:00043da0       ?virtDraw@JasonsObjectA@@UAEXXZ 00444da0 f   JasonsObjectA.obj
 0001:00043df0       ?virtDoUpdate@JasonsObjectA@@UAEXH@Z 00444df0 f   JasonsObjectA.obj
 0001:00043fd0       ??_GJasonsObjectA@@UAEPAXI@Z 00444fd0 f i JasonsObjectA.obj
 0001:00043fd0       ??_EJasonsObjectA@@UAEPAXI@Z 00444fd0 f i JasonsObjectA.obj
 0001:00044010       ??0JasonsTileManager@@QAE@XZ 00445010 f   JasonsTileManager.obj
 0001:00044040       ??1JasonsTileManager@@UAE@XZ 00445040 f   JasonsTileManager.obj
 0001:00044060       ?virtDrawTileAt@JasonsTileManager@@UBEXPAVBaseEngine@@PAVDrawingSurface@@HHHH@Z 00445060 f   JasonsTileManager.obj
 0001:00044110       ??0TileManager@@QAE@HHHH@Z 00445110 f i JasonsTileManager.obj
 0001:000441a0       ??1TileManager@@UAE@XZ     004451a0 f i JasonsTileManager.obj
 0001:000441f0       ??_EJasonsTileManager@@UAEPAXI@Z 004451f0 f i JasonsTileManager.obj
 0001:000441f0       ??_GJasonsTileManager@@UAEPAXI@Z 004451f0 f i JasonsTileManager.obj
 0001:00044230       ??_ETileManager@@UAEPAXI@Z 00445230 f i JasonsTileManager.obj
 0001:00044230       ??_GTileManager@@UAEPAXI@Z 00445230 f i JasonsTileManager.obj
 0001:00044270       ?setMapSize@TileManager@@QAEXHH@Z 00445270 f i JasonsTileManager.obj
 0001:00044320       ?virtInitialise@PlayingCardsDemo@@UAEHXZ 00445320 f   PlayingCardsDemo.obj
 0001:00044370       ?virtSetupBackgroundBuffer@PlayingCardsDemo@@UAEXXZ 00445370 f   PlayingCardsDemo.obj
 0001:00044390       ?virtInitialiseObjects@PlayingCardsDemo@@UAEHXZ 00445390 f   PlayingCardsDemo.obj
 0001:000449f0       ?virtMouseDown@PlayingCardsDemo@@UAEXHHH@Z 004459f0 f   PlayingCardsDemo.obj
 0001:00044a10       ?virtKeyDown@PlayingCardsDemo@@UAEXH@Z 00445a10 f   PlayingCardsDemo.obj
 0001:00044b10       ?virtKeyUp@PlayingCardsDemo@@UAEXH@Z 00445b10 f   PlayingCardsDemo.obj
 0001:00044b30       ?virtMouseWheel@PlayingCardsDemo@@UAEXHHHH@Z 00445b30 f   PlayingCardsDemo.obj
 0001:00044e30       ??$?8VRawImageData@@@std@@YA_NABV?$shared_ptr@VRawImageData@@@0@$$T@Z 00445e30 f i PlayingCardsDemo.obj
 0001:00044e60       ??$_Random_shuffle1@V?$_Vector_iterator@V?$_Vector_val@U?$_Simple_types@PAVDisplayableObject@@@std@@@std@@@std@@V?$_Rng_from_urng@HU_Rand_urng_from_func@std@@@2@@std@@YAXV?$_Vector_iterator@V?$_Vector_val@U?$_Simple_types@PAVDisplayableObject@@@std@@@std@@@0@0AAV?$_Rng_from_urng@HU_Rand_urng_from_func@std@@@0@@Z 00445e60 f i PlayingCardsDemo.obj
 0001:00045030       ??$for_each@V?$_Vector_const_iterator@V?$_Vector_val@U?$_Simple_types@PAVDisplayableObject@@@std@@@std@@@std@@V<lambda_30e6a374895662ded208c9cbe5dce392>@@@std@@YA?AV<lambda_30e6a374895662ded208c9cbe5dce392>@@V?$_Vector_const_iterator@V?$_Vector_val@U?$_Simple_types@PAVDisplayableObject@@@std@@@std@@@0@0V1@@Z 00446030 f i PlayingCardsDemo.obj
 0001:00045120       ??$for_each@V?$_Vector_iterator@V?$_Vector_val@U?$_Simple_types@PAVDisplayableObject@@@std@@@std@@@std@@V<lambda_357b4ee994050758da51b6d8503d100a>@@@std@@YA?AV<lambda_357b4ee994050758da51b6d8503d100a>@@V?$_Vector_iterator@V?$_Vector_val@U?$_Simple_types@PAVDisplayableObject@@@std@@@std@@@0@0V1@@Z 00446120 f i PlayingCardsDemo.obj
 0001:00045210       ??$iter_swap@PAPAVDisplayableObject@@PAPAV1@@std@@YAXPAPAVDisplayableObject@@0@Z 00446210 f i PlayingCardsDemo.obj
 0001:00045230       ??$move@AAPAVDisplayableObject@@@std@@YA$$QAPAVDisplayableObject@@AAPAV1@@Z 00446230 f i PlayingCardsDemo.obj
 0001:00045240       ??$random_shuffle@V?$_Vector_iterator@V?$_Vector_val@U?$_Simple_types@PAVDisplayableObject@@@std@@@std@@@std@@@std@@YAXV?$_Vector_iterator@V?$_Vector_val@U?$_Simple_types@PAVDisplayableObject@@@std@@@std@@@0@0@Z 00446240 f i PlayingCardsDemo.obj
 0001:000452f0       ??$shuffle@V?$_Vector_iterator@V?$_Vector_val@U?$_Simple_types@PAVDisplayableObject@@@std@@@std@@@std@@AAU_Rand_urng_from_func@2@@std@@YAXV?$_Vector_iterator@V?$_Vector_val@U?$_Simple_types@PAVDisplayableObject@@@std@@@std@@@0@0AAU_Rand_urng_from_func@0@@Z 004462f0 f i PlayingCardsDemo.obj
 0001:000453b0       ??$swap@PAVDisplayableObject@@$0A@@std@@YAXAAPAVDisplayableObject@@0@Z 004463b0 f i PlayingCardsDemo.obj
 0001:00045400       ??0<lambda_30e6a374895662ded208c9cbe5dce392>@@QAE@ABH00@Z 00446400 f i PlayingCardsDemo.obj
 0001:00045440       ??0<lambda_357b4ee994050758da51b6d8503d100a>@@QAE@ABH00@Z 00446440 f i PlayingCardsDemo.obj
 0001:00045480       ??0?$_Rng_from_urng@HU_Rand_urng_from_func@std@@@std@@QAE@AAU_Rand_urng_from_func@1@@Z 00446480 f i PlayingCardsDemo.obj
 0001:00045500       ??0CardContainer@@QAE@PAVBaseEngine@@HHV?$basic_string@DU?$char_traits@D@std@@V?$allocator@D@2@@std@@@Z 00446500 f i PlayingCardsDemo.obj
 0001:00045600       ??0CardOrTile@@QAE@PAVBaseEngine@@HHV?$basic_string@DU?$char_traits@D@std@@V?$allocator@D@2@@std@@HHHH1HHHHHHH_N2@Z 00446600 f i PlayingCardsDemo.obj
 0001:000457f0       ??0CardOrTile@@QAE@PAVBaseEngine@@HHV?$basic_string@DU?$char_traits@D@std@@V?$allocator@D@2@@std@@H_N2@Z 004467f0 f i PlayingCardsDemo.obj
 0001:00045a10       ??0CoordinateMappingRotateAndColour@@QAE@XZ 00446a10 f i PlayingCardsDemo.obj
 0001:00045ad0       ??0DragableToken@@QAE@PAVBaseEngine@@HHH_N@Z 00446ad0 f i PlayingCardsDemo.obj
 0001:00045ba0       ??0DragableTokenContainer@@QAE@HHPAVBaseEngine@@HH_N1@Z 00446ba0 f i PlayingCardsDemo.obj
 0001:00045c80       ??0TokenTray@@QAE@PAVBaseEngine@@HH@Z 00446c80 f i PlayingCardsDemo.obj
 0001:00045cd0       ??1CardContainer@@UAE@XZ   00446cd0 f i PlayingCardsDemo.obj
 0001:00045d20       ??1CardOrTile@@UAE@XZ      00446d20 f i PlayingCardsDemo.obj
 0001:00045d80       ??1CoordinateMappingRotateAndColour@@UAE@XZ 00446d80 f i PlayingCardsDemo.obj
 0001:00045da0       ??1DragableToken@@UAE@XZ   00446da0 f i PlayingCardsDemo.obj
 0001:00045dc0       ??1DragableTokenContainer@@UAE@XZ 00446dc0 f i PlayingCardsDemo.obj
 0001:00045df0       ??1TokenTray@@UAE@XZ       00446df0 f i PlayingCardsDemo.obj
 0001:00045e20       ??A?$vector@PAVDisplayableObject@@V?$allocator@PAVDisplayableObject@@@std@@@std@@QBEABQAVDisplayableObject@@I@Z 00446e20 f i PlayingCardsDemo.obj
 0001:00045ed0       ??R<lambda_30e6a374895662ded208c9cbe5dce392>@@QBE@PAVDisplayableObject@@@Z 00446ed0 f i PlayingCardsDemo.obj
 0001:00045f20       ??R<lambda_357b4ee994050758da51b6d8503d100a>@@QBE@PAVDisplayableObject@@@Z 00446f20 f i PlayingCardsDemo.obj
 0001:00045f70       ??R?$_Rng_from_urng@HU_Rand_urng_from_func@std@@@std@@QAEHH@Z 00446f70 f i PlayingCardsDemo.obj
 0001:00046050       ??R_Rand_urng_from_func@std@@QAEIXZ 00447050 f i PlayingCardsDemo.obj
 0001:00046065       ??_ECardContainer@@WDM@AEPAXI@Z 00447065 f i PlayingCardsDemo.obj
 0001:0004606f       ??_ECardOrTile@@WDM@AEPAXI@Z 0044706f f i PlayingCardsDemo.obj
 0001:00046079       ??_EDragableTokenContainer@@WDM@AEPAXI@Z 00447079 f i PlayingCardsDemo.obj
 0001:00046083       ??_ETokenTray@@WDM@AEPAXI@Z 00447083 f i PlayingCardsDemo.obj
 0001:00046090       ??_ECardContainer@@UAEPAXI@Z 00447090 f i PlayingCardsDemo.obj
 0001:00046090       ??_GCardContainer@@UAEPAXI@Z 00447090 f i PlayingCardsDemo.obj
 0001:000460d0       ??_GCardOrTile@@UAEPAXI@Z  004470d0 f i PlayingCardsDemo.obj
 0001:000460d0       ??_ECardOrTile@@UAEPAXI@Z  004470d0 f i PlayingCardsDemo.obj
 0001:00046110       ??_GCoordinateMappingRotateAndColour@@UAEPAXI@Z 00447110 f i PlayingCardsDemo.obj
 0001:00046110       ??_ECoordinateMappingRotateAndColour@@UAEPAXI@Z 00447110 f i PlayingCardsDemo.obj
 0001:00046150       ??_GDragableToken@@UAEPAXI@Z 00447150 f i PlayingCardsDemo.obj
 0001:00046150       ??_EDragableToken@@UAEPAXI@Z 00447150 f i PlayingCardsDemo.obj
 0001:00046190       ??_EDragableTokenContainer@@UAEPAXI@Z 00447190 f i PlayingCardsDemo.obj
 0001:00046190       ??_GDragableTokenContainer@@UAEPAXI@Z 00447190 f i PlayingCardsDemo.obj
 0001:000461d0       ??_GTokenTray@@UAEPAXI@Z   004471d0 f i PlayingCardsDemo.obj
 0001:000461d0       ??_ETokenTray@@UAEPAXI@Z   004471d0 f i PlayingCardsDemo.obj
 0001:00046210       ?_Get_bits@?$_Rng_from_urng@HU_Rand_urng_from_func@std@@@std@@AAEIXZ 00447210 f i PlayingCardsDemo.obj
 0001:00046260       ?addCardToContainer@CardContainer@@QAE_NPAVCardOrTile@@_N@Z 00447260 f i PlayingCardsDemo.obj
 0001:000462b0       ?bringToFront@CardOrTile@@UAEXXZ 004472b0 f i PlayingCardsDemo.obj
 0001:000462f0       ?bringToFront@DragableTokenContainer@@UAEXXZ 004472f0 f i PlayingCardsDemo.obj
 0001:00046320       ?changePixelColour@CoordinateMappingRotateAndColour@@UAE_NHHAAHPAVDrawingSurface@@@Z 00447320 f i PlayingCardsDemo.obj
 0001:00046700       ?checkForAndHandleTokenClick@DragableTokenContainer@@QAE_NHH@Z 00447700 f i PlayingCardsDemo.obj
 0001:000467a0       ?createToken@TokenTray@@QAEXIHH@Z 004477a0 f i PlayingCardsDemo.obj
 0001:00046880       ?destroyable@DragableToken@@UAE_NXZ 00447880 f i PlayingCardsDemo.obj
 0001:00046890       ?doDragRedraw@DragableTokenContainer@@UAEXXZ 00447890 f i PlayingCardsDemo.obj
 0001:000468b0       ?drawForegroundLine@BaseEngine@@QAEXHHHHI@Z 004478b0 f i PlayingCardsDemo.obj
 0001:00046920       ?drawTokensOnItem@DragableTokenContainer@@QAEXXZ 00447920 f i PlayingCardsDemo.obj
 0001:00046a40       ?getContentCount@DisplayableObjectContainer@@QBEHXZ 00447a40 f i PlayingCardsDemo.obj
 0001:00046a60       ?getContentItem@DisplayableObjectContainer@@QBEPAVDisplayableObject@@H@Z 00447a60 f i PlayingCardsDemo.obj
 0001:00046a90       ?getDrawingRegionBottom@DisplayableObject@@QBEHXZ 00447a90 f i PlayingCardsDemo.obj
 0001:00046ac0       ?getDrawingRegionLeft@DisplayableObject@@QBEHXZ 00447ac0 f i PlayingCardsDemo.obj
 0001:00046ae0       ?getDrawingRegionRight@DisplayableObject@@QBEHXZ 00447ae0 f i PlayingCardsDemo.obj
 0001:00046b10       ?getDrawingRegionTop@DisplayableObject@@QBEHXZ 00447b10 f i PlayingCardsDemo.obj
 0001:00046b30       ?getFont@BaseEngine@@QAEPAVFont@@PBDH@Z 00447b30 f i PlayingCardsDemo.obj
 0001:00046b60       ?getPixel@DrawingSurface@@QAEIHH@Z 00447b60 f i PlayingCardsDemo.obj
 0001:00046bd0       ?getRawImageData@SimpleImage@@QAE?AV?$shared_ptr@VRawImageData@@@std@@XZ 00447bd0 f i PlayingCardsDemo.obj
 0001:00046c10       ?getTopCardFromContainer@CardContainer@@QAEPAVDisplayableObject@@_N@Z 00447c10 f i PlayingCardsDemo.obj
 0001:00046ce0       ?getTopObjectForNotifyValue@DisplayableObjectContainer@@QBEPAVDisplayableObject@@HHHH@Z 00447ce0 f i PlayingCardsDemo.obj
 0001:00046da0       ?getXCentre@DisplayableObject@@QBEHXZ 00447da0 f i PlayingCardsDemo.obj
 0001:00046dd0       ?getYCentre@DisplayableObject@@QBEHXZ 00447dd0 f i PlayingCardsDemo.obj
 0001:00046e00       ?handleTokenWasClicked@DragableToken@@QAEXXZ 00447e00 f i PlayingCardsDemo.obj
 0001:00046e80       ?mapCoordinates@CoordinateMappingRotateAndColour@@UAE_NAAN0ABVSimpleImage@@@Z 00447e80 f i PlayingCardsDemo.obj
 0001:000471a0       ?max@_Rand_urng_from_func@std@@SAIXZ 004481a0 f i PlayingCardsDemo.obj
 0001:000471b0       ?min@_Rand_urng_from_func@std@@SAIXZ 004481b0 f i PlayingCardsDemo.obj
 0001:000471c0       ?notifyAllObjects@DisplayableObjectContainer@@QBEXHHH@Z 004481c0 f i PlayingCardsDemo.obj
 0001:00047250       ?notifyTopObjectAboutMouseClick@BaseEngine@@QAEX_N@Z 00448250 f i PlayingCardsDemo.obj
 0001:00047270       ?readyBackImage@CardOrTile@@QAEXXZ 00448270 f i PlayingCardsDemo.obj
 0001:00047550       ?readyFrontImage@CardOrTile@@QAEXXZ 00448550 f i PlayingCardsDemo.obj
 0001:00047810       ?removeTopCardFromContainer@CardContainer@@QAEPAVDisplayableObject@@_N@Z 00448810 f i PlayingCardsDemo.obj
 0001:00047890       ?setDefaultColour@DisplayableObject@@QAEXH@Z 00448890 f i PlayingCardsDemo.obj
 0001:000478b0       ?setPosition@DragableTokenContainer@@UAEXHH@Z 004488b0 f i PlayingCardsDemo.obj
 0001:00047910       ?setSize@DisplayableObject@@QAEXHH@Z 00448910 f i PlayingCardsDemo.obj
 0001:00047940       ?setTransparencyColour@CoordinateMappingRotateAndColour@@QAEXH@Z 00448940 f i PlayingCardsDemo.obj
 0001:00047960       ?setTransparencyPixel@CardOrTile@@QAEXHH@Z 00448960 f i PlayingCardsDemo.obj
 0001:000479a0       ?showCorrectImage@CardOrTile@@QAEXXZ 004489a0 f i PlayingCardsDemo.obj
 0001:000479e0       ?shuffle@DisplayableObjectContainer@@QAEXXZ 004489e0 f i PlayingCardsDemo.obj
 0001:00047a30       ?updateTransparency@CardOrTile@@QAEXXZ 00448a30 f i PlayingCardsDemo.obj
 0001:00047cf0       ?virtDraw@CardContainer@@UAEXXZ 00448cf0 f i PlayingCardsDemo.obj
 0001:000483e0       ?virtDraw@CardOrTile@@UAEXXZ 004493e0 f i PlayingCardsDemo.obj
 0001:000486d0       ?virtDraw@DragableToken@@UAEXXZ 004496d0 f i PlayingCardsDemo.obj
 0001:00048a30       ?virtDraw@DragableTokenContainer@@UAEXXZ 00449a30 f i PlayingCardsDemo.obj
 0001:00048c20       ?virtDraw@TokenTray@@UAEXXZ 00449c20 f i PlayingCardsDemo.obj
 0001:00049190       ?virtMouseDown@DragableToken@@UAEXHHH@Z 0044a190 f i PlayingCardsDemo.obj
 0001:000491a0       ?virtMouseDown@DragableTokenContainer@@UAEXHHH@Z 0044a1a0 f i PlayingCardsDemo.obj
 0001:00049250       ?virtMouseMoved@DragableToken@@UAEXHH@Z 0044a250 f i PlayingCardsDemo.obj
 0001:000492c0       ?virtMouseMoved@DragableTokenContainer@@UAEXHH@Z 0044a2c0 f i PlayingCardsDemo.obj
 0001:00049340       ?virtMouseUp@CardContainer@@UAEXHHH@Z 0044a340 f i PlayingCardsDemo.obj
 0001:00049390       ?virtMouseUp@CardOrTile@@UAEXHHH@Z 0044a390 f i PlayingCardsDemo.obj
 0001:00049480       ?virtMouseUp@DragableToken@@UAEXHHH@Z 0044a480 f i PlayingCardsDemo.obj
 0001:00049680       ?virtMouseUp@DragableTokenContainer@@UAEXHHH@Z 0044a680 f i PlayingCardsDemo.obj
 0001:00049720       ?virtNotify@CardContainer@@UAEJHHH@Z 0044a720 f i PlayingCardsDemo.obj
 0001:000497a0       ?virtNotify@DragableToken@@UAEJHHH@Z 0044a7a0 f i PlayingCardsDemo.obj
 0001:000498a0       ?virtNotify@DragableTokenContainer@@UAEJHHH@Z 0044a8a0 f i PlayingCardsDemo.obj
 0001:00049900       ?virtSingleItemMouseDown@CardContainer@@UAE_NHHH@Z 0044a900 f i PlayingCardsDemo.obj
 0001:00049b20       ?virtSingleItemMouseDown@CardOrTile@@UAE_NHHH@Z 0044ab20 f i PlayingCardsDemo.obj
 0001:00049cc0       ?virtSingleItemMouseDown@DragableToken@@UAE_NHHH@Z 0044acc0 f i PlayingCardsDemo.obj
 0001:00049d70       ?virtSingleItemMouseDown@DragableTokenContainer@@UAE_NHHH@Z 0044ad70 f i PlayingCardsDemo.obj
 0001:00049e00       ?virtSingleItemMouseDown@TokenTray@@UAE_NHHH@Z 0044ae00 f i PlayingCardsDemo.obj
 0001:0004a140       ??0RawImageData@@QAE@ABV?$shared_ptr@VRawImageData@@@std@@H@Z 0044b140 f   RawImage.obj
 0001:0004a280       ??0RawImageData@@QAE@HHABV?$shared_ptr@VRawImageData@@@std@@@Z 0044b280 f   RawImage.obj
 0001:0004a490       ?virtSetupBackgroundBuffer@SimpleDemo@@UAEXXZ 0044b490 f   SimpleDemo.obj
 0001:0004a5d0       ?virtInitialiseObjects@SimpleDemo@@UAEHXZ 0044b5d0 f   SimpleDemo.obj
 0001:0004a680       ?virtDrawStringsUnderneath@SimpleDemo@@UAEXXZ 0044b680 f   SimpleDemo.obj
 0001:0004a730       ?virtDrawStringsOnTop@SimpleDemo@@UAEXXZ 0044b730 f   SimpleDemo.obj
 0001:0004a7b0       ?virtMouseDown@SimpleDemo@@UAEXHHH@Z 0044b7b0 f   SimpleDemo.obj
 0001:0004a7d0       ?virtKeyDown@SimpleDemo@@UAEXH@Z 0044b7d0 f   SimpleDemo.obj
 0001:0004a910       ??0StarfieldDemo@@QAE@XZ   0044b910 f   StarfieldDemo.obj
 0001:0004a950       ??1StarfieldDemo@@UAE@XZ   0044b950 f   StarfieldDemo.obj
 0001:0004a980       ?virtSetupBackgroundBuffer@StarfieldDemo@@UAEXXZ 0044b980 f   StarfieldDemo.obj
 0001:0004aac0       ?virtMainLoopDoBeforeUpdate@StarfieldDemo@@UAEXXZ 0044bac0 f   StarfieldDemo.obj
 0001:0004ab00       ?copyAllBackgroundBuffer@StarfieldDemo@@UAEXXZ 0044bb00 f   StarfieldDemo.obj
 0001:0004ac40       ??_GStarfieldDemo@@UAEPAXI@Z 0044bc40 f i StarfieldDemo.obj
 0001:0004ac40       ??_EStarfieldDemo@@UAEPAXI@Z 0044bc40 f i StarfieldDemo.obj
 0001:0004ac80       ??0StartupState@@QAE@PAVBaseEngine@@@Z 0044bc80 f   StartupState.obj
 0001:0004add0       ??1StartupState@@UAE@XZ    0044bdd0 f   StartupState.obj
 0001:0004ae20       ?initialiseObjects@StartupState@@UAEHXZ 0044be20 f   StartupState.obj
 0001:0004b1b0       ?setupBackgroundBuffer@StartupState@@UAEXXZ 0044c1b0 f   StartupState.obj
 0001:0004b360       ?keyDown@StartupState@@UAEXH@Z 0044c360 f   StartupState.obj
 0001:0004b600       ?updateAllObjects@StartupState@@UAEXH@Z 0044c600 f   StartupState.obj
 0001:0004b790       ?mapCoordinates@StartupState@@UAE_NAAN0ABVSimpleImage@@@Z 0044c790 f   StartupState.obj
 0001:0004bd50       ??0GlowingTextObject@@QAE@PAVBaseEngine@@HHPBDHH@Z 0044cd50 f i StartupState.obj
 0001:0004bdf0       ??1GlowingTextObject@@UAE@XZ 0044cdf0 f i StartupState.obj
 0001:0004be20       ??_EGlowingTextObject@@UAEPAXI@Z 0044ce20 f i StartupState.obj
 0001:0004be20       ??_GGlowingTextObject@@UAEPAXI@Z 0044ce20 f i StartupState.obj
 0001:0004be60       ?virtDoUpdate@GlowingTextObject@@UAEXH@Z 0044ce60 f i StartupState.obj
 0001:0004bf90       ?virtDraw@GlowingTextObject@@UAEXXZ 0044cf90 f i StartupState.obj
 0001:0004c000       ?drawAllTiles@TileManager@@QBEXPAVBaseEngine@@PAVDrawingSurface@@@Z 0044d000 f   TileManager.obj
 0001:0004c0a0       ?drawSomeTiles@TileManager@@QBEXPAVBaseEngine@@PAVDrawingSurface@@HHHH@Z 0044d0a0 f   TileManager.obj
 0001:0004c140       ?virtDrawTileAt@TileManager@@UBEXPAVBaseEngine@@PAVDrawingSurface@@HHHH@Z 0044d140 f   TileManager.obj
 0001:0004c230       ??0BouncingBall@@QAE@PAVBouncingBallMain@@HHHHPBDHH@Z 0044d230 f   BouncingBall.obj
 0001:0004c300       ??1BouncingBall@@UAE@XZ    0044d300 f   BouncingBall.obj
 0001:0004c320       ?virtDraw@BouncingBall@@UAEXXZ 0044d320 f   BouncingBall.obj
 0001:0004c5f0       ?virtDoUpdate@BouncingBall@@UAEXH@Z 0044d5f0 f   BouncingBall.obj
 0001:0004c610       ??0BouncingBall1@@QAE@PAVBouncingBallMain@@HHHHPBDHHPAVTileManager@@@Z 0044d610 f   BouncingBall.obj
 0001:0004c6b0       ?setMovement@BouncingBall1@@QAEXHHHHHHH@Z 0044d6b0 f   BouncingBall.obj
 0001:0004c720       ?virtDoUpdate@BouncingBall1@@UAEXH@Z 0044d720 f   BouncingBall.obj
 0001:0004c890       ??0BouncingBall2@@QAE@PAVBouncingBallMain@@HHHHPBDHH@Z 0044d890 f   BouncingBall.obj
 0001:0004c910       ?setPosition@BouncingBall2@@QAEXNN@Z 0044d910 f   BouncingBall.obj
 0001:0004c940       ?setSpeed@BouncingBall2@@QAEXNN@Z 0044d940 f   BouncingBall.obj
 0001:0004c970       ?virtDoUpdate@BouncingBall2@@UAEXH@Z 0044d970 f   BouncingBall.obj
 0001:0004cf60       ??1BouncingBall1@@UAE@XZ   0044df60 f i BouncingBall.obj
 0001:0004cf80       ??1BouncingBall2@@UAE@XZ   0044df80 f i BouncingBall.obj
 0001:0004cfa0       ??_EBouncingBall1@@UAEPAXI@Z 0044dfa0 f i BouncingBall.obj
 0001:0004cfa0       ??_GBouncingBall1@@UAEPAXI@Z 0044dfa0 f i BouncingBall.obj
 0001:0004cfe0       ??_GBouncingBall2@@UAEPAXI@Z 0044dfe0 f i BouncingBall.obj
 0001:0004cfe0       ??_EBouncingBall2@@UAEPAXI@Z 0044dfe0 f i BouncingBall.obj
 0001:0004d020       ??_EBouncingBall@@UAEPAXI@Z 0044e020 f i BouncingBall.obj
 0001:0004d020       ??_GBouncingBall@@UAEPAXI@Z 0044e020 f i BouncingBall.obj
 0001:0004d060       ?reverse@MovementPosition@@QAEXXZ 0044e060 f i BouncingBall.obj
 0001:0004d0f0       ?virtMouseDown@BouncingBall@@UAEXHHH@Z 0044e0f0 f i BouncingBall.obj
 0001:0004d130       ?virtSetupBackgroundBuffer@BouncingBallMain@@UAEXXZ 0044e130 f   BouncingBallMain.obj
 0001:0004db20       ?virtInitialiseObjects@BouncingBallMain@@UAEHXZ 0044eb20 f   BouncingBallMain.obj
 0001:0004ddf0       ?virtDrawStringsUnderneath@BouncingBallMain@@UAEXXZ 0044edf0 f   BouncingBallMain.obj
 0001:0004de30       ?virtMouseDown@BouncingBallMain@@UAEXHHH@Z 0044ee30 f   BouncingBallMain.obj
 0001:0004de70       ?virtKeyDown@BouncingBallMain@@UAEXH@Z 0044ee70 f   BouncingBallMain.obj
 0001:0004e1f0       ??$?HDU?$char_traits@D@std@@V?$allocator@D@1@@std@@YA?AV?$basic_string@DU?$char_traits@D@std@@V?$allocator@D@2@@0@$$QAV10@0@Z 0044f1f0 f i BouncingBallMain.obj
 0001:0004e2d0       ??$?HDU?$char_traits@D@std@@V?$allocator@D@1@@std@@YA?AV?$basic_string@DU?$char_traits@D@std@@V?$allocator@D@2@@0@$$QAV10@ABV10@@Z 0044f2d0 f i BouncingBallMain.obj
 0001:0004e320       ??0SimpleImage@@QAE@ABV0@@Z 0044f320 f i BouncingBallMain.obj
 0001:0004e370       ?append@?$basic_string@DU?$char_traits@D@std@@V?$allocator@D@2@@std@@QAEAAV12@ABV12@@Z 0044f370 f i BouncingBallMain.obj
 0001:0004e3a0       ?capacity@?$basic_string@DU?$char_traits@D@std@@V?$allocator@D@2@@std@@QBEIXZ 0044f3a0 f i BouncingBallMain.obj
 0001:0004e3c0       ?drawBackgroundLine@BaseEngine@@QAEXHHHHI@Z 0044f3c0 f i BouncingBallMain.obj
 0001:0004e430       ?drawBackgroundPolygon@BaseEngine@@QAEXNNNNNNNNI@Z 0044f430 f i BouncingBallMain.obj
 0001:0004e4f0       ?drawBackgroundPolygon@BaseEngine@@QAEXNNNNNNNNNNI@Z 0044f4f0 f i BouncingBallMain.obj
 0001:0004e5c0       ?drawBackgroundPolygon@BaseEngine@@QAEXNNNNNNNNNNNNI@Z 0044f5c0 f i BouncingBallMain.obj
 0001:0004e6b0       ?drawBackgroundPolygon@BaseEngine@@QAEXNNNNNNNNNNNNNNI@Z 0044f6b0 f i BouncingBallMain.obj
 0001:0004e7b0       ?drawBackgroundPolygon@BaseEngine@@QAEXNNNNNNNNNNNNNNNNI@Z 0044f7b0 f i BouncingBallMain.obj
 0001:0004e8f0       ?drawBackgroundTriangle@BaseEngine@@QAEXHHHHHHI@Z 0044f8f0 f i BouncingBallMain.obj
 0001:0004e980       ?drawBackgroundVerticalSidedRegion@BaseEngine@@QAEXNNNNNNI@Z 0044f980 f i BouncingBallMain.obj
 0001:0004ea10       ?getImageURL@RawImageData@@QAEABV?$basic_string@DU?$char_traits@D@std@@V?$allocator@D@2@@std@@XZ 0044fa10 f i BouncingBallMain.obj
 0001:0004ea30       ?getImageURL@SimpleImage@@QAE?BV?$basic_string@DU?$char_traits@D@std@@V?$allocator@D@2@@std@@XZ 0044fa30 f i BouncingBallMain.obj
 0001:0004eac0       ?insert@?$basic_string@DU?$char_traits@D@std@@V?$allocator@D@2@@std@@QAEAAV12@IABV12@@Z 0044fac0 f i BouncingBallMain.obj
 0001:0004eb00       ?resizeTo@ImageManager@@QAE?AVSimpleImage@@V2@HH@Z 0044fb00 f i BouncingBallMain.obj
 0001:0004f040       ?shrinkBy@ImageManager@@QAE?AVSimpleImage@@V2@H@Z 00450040 f i BouncingBallMain.obj
 0001:0004f490       ?virtInitialise@ZoomingDemo@@UAEHXZ 00450490 f   ZoomingDemo.obj
 0001:0004f4e0       ?virtSetupBackgroundBuffer@ZoomingDemo@@UAEXXZ 004504e0 f   ZoomingDemo.obj
 0001:0004f500       ?virtInitialiseObjects@ZoomingDemo@@UAEHXZ 00450500 f   ZoomingDemo.obj
 0001:0004f6c0       ?virtDrawStringsUnderneath@ZoomingDemo@@UAEXXZ 004506c0 f   ZoomingDemo.obj
 0001:0004f770       ?virtDrawStringsOnTop@ZoomingDemo@@UAEXXZ 00450770 f   ZoomingDemo.obj
 0001:0004f7f0       ?virtMouseDown@ZoomingDemo@@UAEXHHH@Z 004507f0 f   ZoomingDemo.obj
 0001:0004f840       ?virtKeyDown@ZoomingDemo@@UAEXH@Z 00450840 f   ZoomingDemo.obj
 0001:0004f940       ?virtMouseWheel@ZoomingDemo@@UAEXHHHH@Z 00450940 f   ZoomingDemo.obj
 0001:0004fb40       ??0SimpleFlashingDragableImageObject@@QAE@HHPAVBaseEngine@@V?$basic_string@DU?$char_traits@D@std@@V?$allocator@D@2@@std@@1_N2@Z 00450b40 f i ZoomingDemo.obj
 0001:0004fd40       ??1SimpleFlashingDragableImageObject@@UAE@XZ 00450d40 f i ZoomingDemo.obj
 0001:0004fd80       ??_GSimpleFlashingDragableImageObject@@UAEPAXI@Z 00450d80 f i ZoomingDemo.obj
 0001:0004fd80       ??_ESimpleFlashingDragableImageObject@@UAEPAXI@Z 00450d80 f i ZoomingDemo.obj
 0001:0004fdc0       ?virtDoUpdate@SimpleFlashingDragableImageObject@@UAEXH@Z 00450dc0 f i ZoomingDemo.obj
 0001:0004fe20       ?virtDraw@SimpleFlashingDragableImageObject@@UAEXXZ 00450e20 f i ZoomingDemo.obj
 0001:0004ff10       ?virtMouseDown@SimpleFlashingDragableImageObject@@UAEXHHH@Z 00450f10 f i ZoomingDemo.obj
 0001:0004ff80       ?virtMouseMoved@SimpleFlashingDragableImageObject@@UAEXHH@Z 00450f80 f i ZoomingDemo.obj
 0001:0004ffe0       ?virtMouseUp@SimpleFlashingDragableImageObject@@UAEXHHH@Z 00450fe0 f i ZoomingDemo.obj
 0001:00050000       ??0MazeDemoMain@@QAE@XZ    00451000 f   MazeDemoMain.obj
 0001:00050080       ??1MazeDemoMain@@UAE@XZ    00451080 f   MazeDemoMain.obj
 0001:000500c0       ?virtSetupBackgroundBuffer@MazeDemoMain@@UAEXXZ 004510c0 f   MazeDemoMain.obj
 0001:000502b0       ?virtInitialiseObjects@MazeDemoMain@@UAEHXZ 004512b0 f   MazeDemoMain.obj
 0001:000504b0       ?virtDrawStringsUnderneath@MazeDemoMain@@UAEXXZ 004514b0 f   MazeDemoMain.obj
 0001:00050540       ?virtMouseDown@MazeDemoMain@@UAEXHHH@Z 00451540 f   MazeDemoMain.obj
 0001:00050550       ?virtKeyDown@MazeDemoMain@@UAEXH@Z 00451550 f   MazeDemoMain.obj
 0001:000507a0       ??0MazeDemoTileManager@@QAE@XZ 004517a0 f i MazeDemoMain.obj
 0001:000507d0       ??0TileManager@@QAE@HH@Z   004517d0 f i MazeDemoMain.obj
 0001:00050850       ??1MazeDemoTileManager@@UAE@XZ 00451850 f i MazeDemoMain.obj
 0001:00050880       ??_EMazeDemoMain@@UAEPAXI@Z 00451880 f i MazeDemoMain.obj
 0001:00050880       ??_GMazeDemoMain@@UAEPAXI@Z 00451880 f i MazeDemoMain.obj
 0001:000508c0       ??_GMazeDemoTileManager@@UAEPAXI@Z 004518c0 f i MazeDemoMain.obj
 0001:000508c0       ??_EMazeDemoTileManager@@UAEPAXI@Z 004518c0 f i MazeDemoMain.obj
 0001:00050900       ??0MazeDemoObject@@QAE@PAVMazeDemoMain@@HH@Z 00451900 f   MazeDemoObject.obj
 0001:000509e0       ??1MazeDemoObject@@UAE@XZ  004519e0 f   MazeDemoObject.obj
 0001:00050a00       ?virtDraw@MazeDemoObject@@UAEXXZ 00451a00 f   MazeDemoObject.obj
 0001:00050ab0       ?virtDoUpdate@MazeDemoObject@@UAEXH@Z 00451ab0 f   MazeDemoObject.obj
 0001:00051120       ??_EMazeDemoObject@@UAEPAXI@Z 00452120 f i MazeDemoObject.obj
 0001:00051120       ??_GMazeDemoObject@@UAEPAXI@Z 00452120 f i MazeDemoObject.obj
 0001:00051160       ?GetTileManager@MazeDemoMain@@QAEAAVMazeDemoTileManager@@XZ 00452160 f i MazeDemoObject.obj
 0001:00051180       ?checkCircles@CollisionDetection@@SA_NHHHHH@Z 00452180 f i MazeDemoObject.obj
 0001:000511e0       ?drawForegroundOval@BaseEngine@@QAEXHHHHI@Z 004521e0 f i MazeDemoObject.obj
 0001:00051220       ?getDisplayableObject@DisplayableObjectContainer@@QBEPAVDisplayableObject@@H@Z 00452220 f i MazeDemoObject.obj
 0001:00051260       ?getXDiffForDirection@MazeDemoObject@@QAEHH@Z 00452260 f i MazeDemoObject.obj
 0001:000512d0       ?getYDiffForDirection@MazeDemoObject@@QAEHH@Z 004522d0 f i MazeDemoObject.obj
 0001:00051340       ?virtDrawTileAt@MazeDemoTileManager@@UBEXPAVBaseEngine@@PAVDrawingSurface@@HHHH@Z 00452340 f   MazeDemoTileManager.obj
 0001:00051517       _SDL_RWFromFile            00452517 f   SDL2:SDL2.dll
 0001:0005151d       _SDL_OpenAudioDevice       0045251d f   SDL2:SDL2.dll
 0001:00051523       _SDL_PauseAudioDevice      00452523 f   SDL2:SDL2.dll
 0001:00051529       _SDL_LoadWAV_RW            00452529 f   SDL2:SDL2.dll
 0001:0005152f       _SDL_FreeWAV               0045252f f   SDL2:SDL2.dll
 0001:00051535       _SDL_QueueAudio            00452535 f   SDL2:SDL2.dll
 0001:0005153b       _SDL_ClearQueuedAudio      0045253b f   SDL2:SDL2.dll
 0001:00051541       _SDL_CloseAudioDevice      00452541 f   SDL2:SDL2.dll
 0001:00051547       _SDL_CreateRGBSurface      00452547 f   SDL2:SDL2.dll
 0001:0005154d       _SDL_FreeSurface           0045254d f   SDL2:SDL2.dll
 0001:00051553       _SDL_UpperBlit             00452553 f   SDL2:SDL2.dll
 0001:00051559       _SDL_CloseAudio            00452559 f   SDL2:SDL2.dll
 0001:0005155f       _SDL_LockSurface           0045255f f   SDL2:SDL2.dll
 0001:00051565       _SDL_UnlockSurface         00452565 f   SDL2:SDL2.dll
 0001:0005156b       _SDL_FillRect              0045256b f   SDL2:SDL2.dll
 0001:00051571       _SDL_Init                  00452571 f   SDL2:SDL2.dll
 0001:00051577       _SDL_Quit                  00452577 f   SDL2:SDL2.dll
 0001:0005157d       _SDL_GetError              0045257d f   SDL2:SDL2.dll
 0001:00051583       _SDL_CreateWindow          00452583 f   SDL2:SDL2.dll
 0001:00051589       _SDL_PollEvent             00452589 f   SDL2:SDL2.dll
 0001:0005158f       _SDL_WaitEvent             0045258f f   SDL2:SDL2.dll
 0001:00051595       _SDL_CreateRenderer        00452595 f   SDL2:SDL2.dll
 0001:0005159b       _SDL_CreateTexture         0045259b f   SDL2:SDL2.dll
 0001:000515a1       _SDL_UpdateTexture         004525a1 f   SDL2:SDL2.dll
 0001:000515a7       _SDL_RenderCopy            004525a7 f   SDL2:SDL2.dll
 0001:000515ad       _SDL_RenderPresent         004525ad f   SDL2:SDL2.dll
 0001:000515b3       _SDL_GetTicks              004525b3 f   SDL2:SDL2.dll
 0001:000515b9       _SDL_SetClipRect           004525b9 f   SDL2:SDL2.dll
 0001:000515bf       _SDL_UpperBlitScaled       004525bf f   SDL2:SDL2.dll
 0001:000515c5       _IMG_Load                  004525c5 f   SDL2_image:SDL2_image.dll
 0001:000515cb       _TTF_RenderText_Solid      004525cb f   SDL2_ttf:SDL2_ttf.dll
 0001:000515d1       _TTF_Init                  004525d1 f   SDL2_ttf:SDL2_ttf.dll
 0001:000515d7       _TTF_Quit                  004525d7 f   SDL2_ttf:SDL2_ttf.dll
 0001:000515dd       _TTF_OpenFont              004525dd f   SDL2_ttf:SDL2_ttf.dll
 0001:000515e3       _TTF_CloseFont             004525e3 f   SDL2_ttf:SDL2_ttf.dll
 0001:000515e9       ??0_Lockit@std@@QAE@H@Z    004525e9 f   msvcprtd:MSVCP140D.dll
 0001:000515ef       ??1_Lockit@std@@QAE@XZ     004525ef f   msvcprtd:MSVCP140D.dll
 0001:000515f5       ?uncaught_exception@std@@YA_NXZ 004525f5 f   msvcprtd:MSVCP140D.dll
 0001:000515fb       ?_Xlength_error@std@@YAXPBD@Z 004525fb f   msvcprtd:MSVCP140D.dll
 0001:00051601       ?good@ios_base@std@@QBE_NXZ 00452601 f   msvcprtd:MSVCP140D.dll
 0001:00051607       ?flags@ios_base@std@@QBEHXZ 00452607 f   msvcprtd:MSVCP140D.dll
 0001:0005160d       ?width@ios_base@std@@QBE_JXZ 0045260d f   msvcprtd:MSVCP140D.dll
 0001:00051613       ?width@ios_base@std@@QAE_J_J@Z 00452613 f   msvcprtd:MSVCP140D.dll
 0001:00051619       ?sputc@?$basic_streambuf@DU?$char_traits@D@std@@@std@@QAEHD@Z 00452619 f   msvcprtd:MSVCP140D.dll
 0001:0005161f       ?sputn@?$basic_streambuf@DU?$char_traits@D@std@@@std@@QAE_JPBD_J@Z 0045261f f   msvcprtd:MSVCP140D.dll
 0001:00051625       ?setstate@?$basic_ios@DU?$char_traits@D@std@@@std@@QAEXH_N@Z 00452625 f   msvcprtd:MSVCP140D.dll
 0001:0005162b       ?tie@?$basic_ios@DU?$char_traits@D@std@@@std@@QBEPAV?$basic_ostream@DU?$char_traits@D@std@@@2@XZ 0045262b f   msvcprtd:MSVCP140D.dll
 0001:00051631       ?rdbuf@?$basic_ios@DU?$char_traits@D@std@@@std@@QBEPAV?$basic_streambuf@DU?$char_traits@D@std@@@2@XZ 00452631 f   msvcprtd:MSVCP140D.dll
 0001:00051637       ?fill@?$basic_ios@DU?$char_traits@D@std@@@std@@QBEDXZ 00452637 f   msvcprtd:MSVCP140D.dll
 0001:0005163d       ?widen@?$basic_ios@DU?$char_traits@D@std@@@std@@QBEDD@Z 0045263d f   msvcprtd:MSVCP140D.dll
 0001:00051643       ?_Osfx@?$basic_ostream@DU?$char_traits@D@std@@@std@@QAEXXZ 00452643 f   msvcprtd:MSVCP140D.dll
 0001:00051649       ??6?$basic_ostream@DU?$char_traits@D@std@@@std@@QAEAAV01@P6AAAV01@AAV01@@Z@Z 00452649 f   msvcprtd:MSVCP140D.dll
 0001:0005164f       ?put@?$basic_ostream@DU?$char_traits@D@std@@@std@@QAEAAV12@D@Z 0045264f f   msvcprtd:MSVCP140D.dll
 0001:00051655       ?flush@?$basic_ostream@DU?$char_traits@D@std@@@std@@QAEAAV12@XZ 00452655 f   msvcprtd:MSVCP140D.dll
 0001:0005165b       ?_Xout_of_range@std@@YAXPBD@Z 0045265b f   msvcprtd:MSVCP140D.dll
 0001:00051670       ??0_Fac_node@std@@QAE@PAU01@PAV_Facet_base@1@@Z 00452670 f i msvcprtd:locale0_implib.obj
 0001:000516a0       ??1_Fac_node@std@@QAE@XZ   004526a0 f i msvcprtd:locale0_implib.obj
 0001:00051720       ??1_Fac_tidy_reg_t@std@@QAE@XZ 00452720 f i msvcprtd:locale0_implib.obj
 0001:00051780       ??2_Fac_node@std@@SAPAXI@Z 00452780 f i msvcprtd:locale0_implib.obj
 0001:000517e0       ??3_Fac_node@std@@SAXPAX@Z 004527e0 f i msvcprtd:locale0_implib.obj
 0001:00051800       ??_G_Fac_node@std@@QAEPAXI@Z 00452800 f i msvcprtd:locale0_implib.obj
 0001:00051860       ?_Facet_Register@std@@YAXPAV_Facet_base@1@@Z 00452860 f   msvcprtd:locale0_implib.obj
 0001:00051910       ?__empty_global_delete@@YAXPAXIW4align_val_t@std@@@Z 00452910 f i msvcprtd:locale0_implib.obj
 0001:00051920       ?__empty_global_delete@@YAXPAXW4align_val_t@std@@@Z 00452920 f i msvcprtd:locale0_implib.obj
 0001:00051925       ??Bid@locale@std@@QAEIXZ   00452925 f   msvcprtd:MSVCP140D.dll
 0001:0005192b       ?_Getgloballocale@locale@std@@CAPAV_Locimp@12@XZ 0045292b f   msvcprtd:MSVCP140D.dll
 0001:00051931       ?always_noconv@codecvt_base@std@@QBE_NXZ 00452931 f   msvcprtd:MSVCP140D.dll
 0001:00051937       ?is@?$ctype@D@std@@QBE_NFD@Z 00452937 f   msvcprtd:MSVCP140D.dll
 0001:0005193d       ?_Getcat@?$ctype@D@std@@SAIPAPBVfacet@locale@2@PBV42@@Z 0045293d f   msvcprtd:MSVCP140D.dll
 0001:00051943       ?in@?$codecvt@DDU_Mbstatet@@@std@@QBEHAAU_Mbstatet@@PBD1AAPBDPAD3AAPAD@Z 00452943 f   msvcprtd:MSVCP140D.dll
 0001:00051949       ?out@?$codecvt@DDU_Mbstatet@@@std@@QBEHAAU_Mbstatet@@PBD1AAPBDPAD3AAPAD@Z 00452949 f   msvcprtd:MSVCP140D.dll
 0001:0005194f       ?unshift@?$codecvt@DDU_Mbstatet@@@std@@QBEHAAU_Mbstatet@@PAD1AAPAD@Z 0045294f f   msvcprtd:MSVCP140D.dll
 0001:00051955       ?_Getcat@?$codecvt@DDU_Mbstatet@@@std@@SAIPAPBVfacet@locale@2@PBV42@@Z 00452955 f   msvcprtd:MSVCP140D.dll
 0001:0005195b       ??Bios_base@std@@QBE_NXZ   0045295b f   msvcprtd:MSVCP140D.dll
 0001:00051961       ?eof@ios_base@std@@QBE_NXZ 00452961 f   msvcprtd:MSVCP140D.dll
 0001:00051967       ?getloc@ios_base@std@@QBE?AVlocale@2@XZ 00452967 f   msvcprtd:MSVCP140D.dll
 0001:0005196d       ??0?$basic_streambuf@DU?$char_traits@D@std@@@std@@IAE@XZ 0045296d f   msvcprtd:MSVCP140D.dll
 0001:00051973       ??1?$basic_streambuf@DU?$char_traits@D@std@@@std@@UAE@XZ 00452973 f   msvcprtd:MSVCP140D.dll
 0001:00051979       ?getloc@?$basic_streambuf@DU?$char_traits@D@std@@@std@@QBE?AVlocale@2@XZ 00452979 f   msvcprtd:MSVCP140D.dll
 0001:0005197f       ?sbumpc@?$basic_streambuf@DU?$char_traits@D@std@@@std@@QAEHXZ 0045297f f   msvcprtd:MSVCP140D.dll
 0001:00051985       ?sgetc@?$basic_streambuf@DU?$char_traits@D@std@@@std@@QAEHXZ 00452985 f   msvcprtd:MSVCP140D.dll
 0001:0005198b       ?snextc@?$basic_streambuf@DU?$char_traits@D@std@@@std@@QAEHXZ 0045298b f   msvcprtd:MSVCP140D.dll
 0001:00051991       ?eback@?$basic_streambuf@DU?$char_traits@D@std@@@std@@IBEPADXZ 00452991 f   msvcprtd:MSVCP140D.dll
 0001:00051997       ?gptr@?$basic_streambuf@DU?$char_traits@D@std@@@std@@IBEPADXZ 00452997 f   msvcprtd:MSVCP140D.dll
 0001:0005199d       ?pptr@?$basic_streambuf@DU?$char_traits@D@std@@@std@@IBEPADXZ 0045299d f   msvcprtd:MSVCP140D.dll
 0001:000519a3       ?egptr@?$basic_streambuf@DU?$char_traits@D@std@@@std@@IBEPADXZ 004529a3 f   msvcprtd:MSVCP140D.dll
 0001:000519a9       ?gbump@?$basic_streambuf@DU?$char_traits@D@std@@@std@@IAEXH@Z 004529a9 f   msvcprtd:MSVCP140D.dll
 0001:000519af       ?setg@?$basic_streambuf@DU?$char_traits@D@std@@@std@@IAEXPAD00@Z 004529af f   msvcprtd:MSVCP140D.dll
 0001:000519b5       ?epptr@?$basic_streambuf@DU?$char_traits@D@std@@@std@@IBEPADXZ 004529b5 f   msvcprtd:MSVCP140D.dll
 0001:000519bb       ?_Gndec@?$basic_streambuf@DU?$char_traits@D@std@@@std@@IAEPADXZ 004529bb f   msvcprtd:MSVCP140D.dll
 0001:000519c1       ?_Gninc@?$basic_streambuf@DU?$char_traits@D@std@@@std@@IAEPADXZ 004529c1 f   msvcprtd:MSVCP140D.dll
 0001:000519c7       ?_Gnavail@?$basic_streambuf@DU?$char_traits@D@std@@@std@@IBE_JXZ 004529c7 f   msvcprtd:MSVCP140D.dll
 0001:000519cd       ?pbump@?$basic_streambuf@DU?$char_traits@D@std@@@std@@IAEXH@Z 004529cd f   msvcprtd:MSVCP140D.dll
 0001:000519d3       ?_Pninc@?$basic_streambuf@DU?$char_traits@D@std@@@std@@IAEPADXZ 004529d3 f   msvcprtd:MSVCP140D.dll
 0001:000519d9       ?_Pnavail@?$basic_streambuf@DU?$char_traits@D@std@@@std@@IBE_JXZ 004529d9 f   msvcprtd:MSVCP140D.dll
 0001:000519df       ?_Init@?$basic_streambuf@DU?$char_traits@D@std@@@std@@IAEXXZ 004529df f   msvcprtd:MSVCP140D.dll
 0001:000519e5       ?_Init@?$basic_streambuf@DU?$char_traits@D@std@@@std@@IAEXPAPAD0PAH001@Z 004529e5 f   msvcprtd:MSVCP140D.dll
 0001:000519eb       ?xsgetn@?$basic_streambuf@DU?$char_traits@D@std@@@std@@MAE_JPAD_J@Z 004529eb f   msvcprtd:MSVCP140D.dll
 0001:000519f1       ?xsputn@?$basic_streambuf@DU?$char_traits@D@std@@@std@@MAE_JPBD_J@Z 004529f1 f   msvcprtd:MSVCP140D.dll
 0001:000519f7       ??1?$basic_ios@DU?$char_traits@D@std@@@std@@UAE@XZ 004529f7 f   msvcprtd:MSVCP140D.dll
 0001:000519fd       ?clear@?$basic_ios@DU?$char_traits@D@std@@@std@@QAEXH_N@Z 004529fd f   msvcprtd:MSVCP140D.dll
 0001:00051a03       ??0?$basic_ios@DU?$char_traits@D@std@@@std@@IAE@XZ 00452a03 f   msvcprtd:MSVCP140D.dll
 0001:00051a09       ??6?$basic_ostream@DU?$char_traits@D@std@@@std@@QAEAAV01@I@Z 00452a09 f   msvcprtd:MSVCP140D.dll
 0001:00051a0f       ?_Ipfx@?$basic_istream@DU?$char_traits@D@std@@@std@@QAE_N_N@Z 00452a0f f   msvcprtd:MSVCP140D.dll
 0001:00051a15       ??5?$basic_istream@DU?$char_traits@D@std@@@std@@QAEAAV01@AAI@Z 00452a15 f   msvcprtd:MSVCP140D.dll
 0001:00051a1b       ??0?$basic_iostream@DU?$char_traits@D@std@@@std@@QAE@PAV?$basic_streambuf@DU?$char_traits@D@std@@@1@@Z 00452a1b f   msvcprtd:MSVCP140D.dll
 0001:00051a21       ??1?$basic_iostream@DU?$char_traits@D@std@@@std@@UAE@XZ 00452a21 f   msvcprtd:MSVCP140D.dll
 0001:00051a27       ?_Fiopen@std@@YAPAU_iobuf@@PBDHH@Z 00452a27 f   msvcprtd:MSVCP140D.dll
 0001:00051a2d       ?showmanyc@?$basic_streambuf@DU?$char_traits@D@std@@@std@@MAE_JXZ 00452a2d f   msvcprtd:MSVCP140D.dll
 0001:00051a33       ?_Xbad_function_call@std@@YAXXZ 00452a33 f   msvcprtd:MSVCP140D.dll
 0001:00051a39       ??6?$basic_ostream@DU?$char_traits@D@std@@@std@@QAEAAV01@H@Z 00452a39 f   msvcprtd:MSVCP140D.dll
 0001:00051a3f       ??6?$basic_ostream@DU?$char_traits@D@std@@@std@@QAEAAV01@N@Z 00452a3f f   msvcprtd:MSVCP140D.dll
 0001:00051a45       ??5?$basic_istream@DU?$char_traits@D@std@@@std@@QAEAAV01@AAH@Z 00452a45 f   msvcprtd:MSVCP140D.dll
 0001:00051a4b       ??5?$basic_istream@DU?$char_traits@D@std@@@std@@QAEAAV01@AAN@Z 00452a4b f   msvcprtd:MSVCP140D.dll
 0001:00051a51       ?_Xbad_alloc@std@@YAXXZ    00452a51 f   msvcprtd:MSVCP140D.dll
 0001:00051e30       ?configure_argv@__scrt_narrow_argv_policy@@SAHXZ 00452e30 f i MSVCRTD:exe_main.obj
 0001:00051e50       ?initialize_environment@__scrt_narrow_environment_policy@@SAHXZ 00452e50 f i MSVCRTD:exe_main.obj
 0001:00051eb0       ?set_app_type@__scrt_main_policy@@SAXXZ 00452eb0 f i MSVCRTD:exe_main.obj
 0001:00051ed0       ?set_commode@__scrt_file_policy@@SAXXZ 00452ed0 f i MSVCRTD:exe_main.obj
 0001:00051ef0       ?set_fmode@__scrt_file_policy@@SAXXZ 00452ef0 f i MSVCRTD:exe_main.obj
 0001:00051f10       _mainCRTStartup            00452f10 f   MSVCRTD:exe_main.obj
 0001:00051f20       ??2@YAPAXI@Z               00452f20 f   MSVCRTD:new_scalar.obj
 0001:00051f80       ??3@YAXPAXI@Z              00452f80 f   MSVCRTD:delete_scalar_size.obj
 0001:00051fa0       @__security_check_cookie@4 00452fa0 f   MSVCRTD:secchk.obj
 0001:00051fc0       ??1type_info@@UAE@XZ       00452fc0 f   MSVCRTD:std_type_info_static.obj
 0001:00051fe0       ??_Gtype_info@@UAEPAXI@Z   00452fe0 f i MSVCRTD:std_type_info_static.obj
 0001:00051fe0       ??_Etype_info@@UAEPAXI@Z   00452fe0 f i MSVCRTD:std_type_info_static.obj
 0001:00052020       ??_U@YAPAXI@Z              00453020 f   MSVCRTD:new_array.obj
 0001:00052040       ??_V@YAXPAX@Z              00453040 f   MSVCRTD:delete_array.obj
 0001:000521a0       _NtCurrentTeb              004531a0 f i MSVCRTD:utility.obj
 0001:000521b0       ___scrt_acquire_startup_lock 004531b0 f   MSVCRTD:utility.obj
 0001:00052210       ___scrt_dllmain_after_initialize_c 00453210 f   MSVCRTD:utility.obj
 0001:00052250       ___scrt_dllmain_before_initialize_c 00453250 f   MSVCRTD:utility.obj
 0001:00052280       ___scrt_dllmain_crt_thread_attach 00453280 f   MSVCRTD:utility.obj
 0001:000522c0       ___scrt_dllmain_crt_thread_detach 004532c0 f   MSVCRTD:utility.obj
 0001:000522e0       ___scrt_dllmain_exception_filter 004532e0 f   MSVCRTD:utility.obj
 0001:00052340       ___scrt_dllmain_uninitialize_c 00453340 f   MSVCRTD:utility.obj
 0001:00052380       ___scrt_dllmain_uninitialize_critical 00453380 f   MSVCRTD:utility.obj
 0001:000523a0       ___scrt_initialize_crt     004533a0 f   MSVCRTD:utility.obj
 0001:00052400       ___scrt_initialize_onexit_tables 00453400 f   MSVCRTD:utility.obj
 0001:00052510       ___scrt_is_nonwritable_in_current_image 00453510 f   MSVCRTD:utility.obj
 0001:00052690       ___scrt_release_startup_lock 00453690 f   MSVCRTD:utility.obj
 0001:000526c0       ___scrt_uninitialize_crt   004536c0 f   MSVCRTD:utility.obj
 0001:00052710       __onexit                   00453710 f   MSVCRTD:utility.obj
 0001:00052790       _at_quick_exit             00453790 f   MSVCRTD:utility.obj
 0001:000527e0       _atexit                    004537e0 f   MSVCRTD:utility.obj
 0001:00052820       @_guard_check_icall_nop@4  00453820 f i MSVCRTD:guard_support.obj
 0001:00052830       _ReadNoFence               00453830 f i MSVCRTD:guard_support.obj
 0001:00052850       _ReadPointerNoFence        00453850 f i MSVCRTD:guard_support.obj
 0001:00052870       __guard_icall_checks_enforced 00453870 f i MSVCRTD:guard_support.obj
 0001:00052940       ___security_init_cookie    00453940 f   MSVCRTD:gs_support.obj
 0001:000529e0       __matherr                  004539e0 f   MSVCRTD:matherr.obj
 0001:000529f0       __get_startup_argv_mode    004539f0 f   MSVCRTD:argv_mode.obj
 0001:00052a00       __get_startup_commit_mode  00453a00 f   MSVCRTD:commit_mode.obj
 0001:00052a10       __get_startup_file_mode    00453a10 f   MSVCRTD:file_mode.obj
 0001:00052a20       __get_startup_new_mode     00453a20 f   MSVCRTD:new_mode.obj
 0001:00052a30       __get_startup_thread_locale_mode 00453a30 f   MSVCRTD:thread_locale.obj
 0001:00052a40       ?__scrt_initialize_type_info@@YAXXZ 00453a40 f   MSVCRTD:tncleanup.obj
 0001:00052a60       ?__scrt_uninitialize_type_info@@YAXXZ 00453a60 f   MSVCRTD:tncleanup.obj
 0001:00052a80       __should_initialize_environment 00453a80 f   MSVCRTD:env_mode.obj
 0001:00052a90       __initialize_default_precision 00453a90 f   MSVCRTD:default_precision.obj
 0001:00052ac0       __initialize_invalid_parameter_handler 00453ac0 f   MSVCRTD:invalid_parameter_handler.obj
 0001:00052ad0       __initialize_denormal_control 00453ad0 f   MSVCRTD:denormal_control.obj
 0001:00052ae0       ___local_stdio_scanf_options 00453ae0 f i MSVCRTD:default_local_stdio_options.obj
 0001:00052af0       ___scrt_initialize_default_local_stdio_options 00453af0 f   MSVCRTD:default_local_stdio_options.obj
 0001:00052b40       ___scrt_is_user_matherr_present 00453b40 f   MSVCRTD:matherr_detection.obj
 0001:00052b70       ___scrt_get_dyn_tls_init_callback 00453b70 f   MSVCRTD:dyn_tls_init.obj
 0001:00052b80       ___scrt_get_dyn_tls_dtor_callback 00453b80 f   MSVCRTD:dyn_tls_dtor.obj
 0001:00052b90       ___scrt_fastfail           00453b90 f   MSVCRTD:utility_desktop.obj
 0001:00052d20       ___scrt_get_show_window_mode 00453d20 f   MSVCRTD:utility_desktop.obj
 0001:00052d70       ___scrt_initialize_mta     00453d70 f   MSVCRTD:utility_desktop.obj
 0001:00052d80       ___scrt_initialize_winrt   00453d80 f   MSVCRTD:utility_desktop.obj
 0001:00052d90       ___scrt_is_managed_app     00453d90 f   MSVCRTD:utility_desktop.obj
 0001:00052e40       ___scrt_set_unhandled_exception_filter 00453e40 f   MSVCRTD:utility_desktop.obj
 0001:00052e60       ___scrt_exe_initialize_mta 00453e60 f   MSVCRTD:utility_desktop.obj
 0001:00052e60       ___scrt_stub_for_initialize_mta 00453e60 f   MSVCRTD:utility_desktop.obj
 0001:00052e70       ___scrt_unhandled_exception_filter@4 00453e70 f   MSVCRTD:utility_desktop.obj
 0001:00052f10       __crt_debugger_hook        00453f10 f   MSVCRTD:utility_desktop.obj
 0001:00052f30       __RTC_Initialize           00453f30 f   MSVCRTD:initsect.obj
 0001:00052f70       __RTC_Terminate            00453f70 f   MSVCRTD:initsect.obj
 0001:00052fb0       __except_handler4          00453fb0 f   MSVCRTD:chandler4gs.obj
 0001:00053000       ??0bad_alloc@std@@QAE@XZ   00454000 f i MSVCRTD:throw_bad_alloc.obj
 0001:00053030       ?__scrt_throw_std_bad_alloc@@YAXXZ 00454030 f   MSVCRTD:throw_bad_alloc.obj
 0001:00053060       ?__scrt_throw_std_bad_array_new_length@@YAXXZ 00454060 f   MSVCRTD:throw_bad_alloc.obj
 0001:00053090       ??3@YAXPAX@Z               00454090 f   MSVCRTD:delete_scalar.obj
 0001:000530b0       ___raise_securityfailure   004540b0 f   MSVCRTD:gs_report.obj
 0001:000530f0       ___report_gsfailure        004540f0 f   MSVCRTD:gs_report.obj
 0001:00053240       ___report_rangecheckfailure 00454240 f   MSVCRTD:gs_report.obj
 0001:00053250       ___report_securityfailure  00454250 f   MSVCRTD:gs_report.obj
 0001:00053360       ___report_securityfailureEx 00454360 f   MSVCRTD:gs_report.obj
 0001:000534d0       ___isa_available_init      004544d0 f   MSVCRTD:cpu_disp.obj
 0001:000538d0       ___scrt_is_ucrt_dll_in_use 004548d0 f   MSVCRTD:ucrt_detection.obj
 0001:000538fd       __purecall                 004548fd f   vcruntimed:VCRUNTIME140D.dll
 0001:00053903       _memcmp                    00454903 f   vcruntimed:VCRUNTIME140D.dll
 0001:00053909       _memcpy                    00454909 f   vcruntimed:VCRUNTIME140D.dll
 0001:0005390f       _memmove                   0045490f f   vcruntimed:VCRUNTIME140D.dll
 0001:00053915       _memset                    00454915 f   vcruntimed:VCRUNTIME140D.dll
 0001:0005391b       ___std_exception_copy      0045491b f   vcruntimed:VCRUNTIME140D.dll
 0001:00053921       ___std_exception_destroy   00454921 f   vcruntimed:VCRUNTIME140D.dll
 0001:00053927       __CxxThrowException@8      00454927 f   vcruntimed:VCRUNTIME140D.dll
 0001:0005392d       ___CxxFrameHandler3        0045492d f   vcruntimed:VCRUNTIME140D.dll
 0001:00053933       ___RTDynamicCast           00454933 f   vcruntimed:VCRUNTIME140D.dll
 0001:00053939       ___std_type_info_destroy_list 00454939 f   vcruntimed:VCRUNTIME140D.dll
 0001:0005393f       ___current_exception       0045493f f   vcruntimed:VCRUNTIME140D.dll
 0001:00053945       ___current_exception_context 00454945 f   vcruntimed:VCRUNTIME140D.dll
 0001:0005394b       __except_handler4_common   0045494b f   vcruntimed:VCRUNTIME140D.dll
 0001:00053951       __invalid_parameter        00454951 f   ucrtd:ucrtbased.dll
 0001:00053957       __CrtDbgReport             00454957 f   ucrtd:ucrtbased.dll
 0001:0005395d       _atan                      0045495d f   ucrtd:ucrtbased.dll
 0001:00053963       _cos                       00454963 f   ucrtd:ucrtbased.dll
 0001:00053969       _sin                       00454969 f   ucrtd:ucrtbased.dll
 0001:0005396f       _sqrt                      0045496f f   ucrtd:ucrtbased.dll
 0001:00053975       ___acrt_iob_func           00454975 f   ucrtd:ucrtbased.dll
 0001:0005397b       ___stdio_common_vfprintf   0045497b f   ucrtd:ucrtbased.dll
 0001:00053981       _strlen                    00454981 f   ucrtd:ucrtbased.dll
 0001:00053987       _srand                     00454987 f   ucrtd:ucrtbased.dll
 0001:0005398d       __get_stream_buffer_pointers 0045498d f   ucrtd:ucrtbased.dll
 0001:00053993       _fclose                    00454993 f   ucrtd:ucrtbased.dll
 0001:00053999       _fflush                    00454999 f   ucrtd:ucrtbased.dll
 0001:0005399f       _fgetc                     0045499f f   ucrtd:ucrtbased.dll
 0001:000539a5       _fgetpos                   004549a5 f   ucrtd:ucrtbased.dll
 0001:000539ab       _fputc                     004549ab f   ucrtd:ucrtbased.dll
 0001:000539b1       _fread                     004549b1 f   ucrtd:ucrtbased.dll
 0001:000539b7       _fsetpos                   004549b7 f   ucrtd:ucrtbased.dll
 0001:000539bd       __fseeki64                 004549bd f   ucrtd:ucrtbased.dll
 0001:000539c3       _fwrite                    004549c3 f   ucrtd:ucrtbased.dll
 0001:000539c9       _setvbuf                   004549c9 f   ucrtd:ucrtbased.dll
 0001:000539cf       _ungetc                    004549cf f   ucrtd:ucrtbased.dll
 0001:000539d5       __lock_file                004549d5 f   ucrtd:ucrtbased.dll
 0001:000539db       __unlock_file              004549db f   ucrtd:ucrtbased.dll
 0001:000539e1       __time64                   004549e1 f   ucrtd:ucrtbased.dll
 0001:000539e7       _rand                      004549e7 f   ucrtd:ucrtbased.dll
 0001:000539ed       ___stdio_common_vsprintf   004549ed f   ucrtd:ucrtbased.dll
 0001:000539f3       _atoi                      004549f3 f   ucrtd:ucrtbased.dll
 0001:000539f9       _fgets                     004549f9 f   ucrtd:ucrtbased.dll
 0001:000539ff       _fopen                     004549ff f   ucrtd:ucrtbased.dll
 0001:00053a05       __CrtDumpMemoryLeaks       00454a05 f   ucrtd:ucrtbased.dll
 0001:00053a0b       _puts                      00454a0b f   ucrtd:ucrtbased.dll
 0001:00053a11       _strcmp                    00454a11 f   ucrtd:ucrtbased.dll
 0001:00053a17       _strcpy                    00454a17 f   ucrtd:ucrtbased.dll
 0001:00053a1d       _pow                       00454a1d f   ucrtd:ucrtbased.dll
 0001:00053a23       __free_dbg                 00454a23 f   ucrtd:ucrtbased.dll
 0001:00053a29       __malloc_dbg               00454a29 f   ucrtd:ucrtbased.dll
 0001:00053a2f       __seh_filter_exe           00454a2f f   ucrtd:ucrtbased.dll
 0001:00053a35       __set_app_type             00454a35 f   ucrtd:ucrtbased.dll
 0001:00053a3b       ___setusermatherr          00454a3b f   ucrtd:ucrtbased.dll
 0001:00053a41       __configure_narrow_argv    00454a41 f   ucrtd:ucrtbased.dll
 0001:00053a47       __initialize_narrow_environment 00454a47 f   ucrtd:ucrtbased.dll
 0001:00053a4d       __get_initial_narrow_environment 00454a4d f   ucrtd:ucrtbased.dll
 0001:00053a53       __initterm                 00454a53 f   ucrtd:ucrtbased.dll
 0001:00053a59       __initterm_e               00454a59 f   ucrtd:ucrtbased.dll
 0001:00053a5f       _exit                      00454a5f f   ucrtd:ucrtbased.dll
 0001:00053a65       __exit                     00454a65 f   ucrtd:ucrtbased.dll
 0001:00053a6b       __set_fmode                00454a6b f   ucrtd:ucrtbased.dll
 0001:00053a71       ___p___argc                00454a71 f   ucrtd:ucrtbased.dll
 0001:00053a77       ___p___argv                00454a77 f   ucrtd:ucrtbased.dll
 0001:00053a7d       __cexit                    00454a7d f   ucrtd:ucrtbased.dll
 0001:00053a83       __c_exit                   00454a83 f   ucrtd:ucrtbased.dll
 0001:00053a89       __register_thread_local_exe_atexit_callback 00454a89 f   ucrtd:ucrtbased.dll
 0001:00053a8f       __configthreadlocale       00454a8f f   ucrtd:ucrtbased.dll
 0001:00053a95       __set_new_mode             00454a95 f   ucrtd:ucrtbased.dll
 0001:00053a9b       ___p__commode              00454a9b f   ucrtd:ucrtbased.dll
 0001:00053aa1       __callnewh                 00454aa1 f   ucrtd:ucrtbased.dll
 0001:00053aa7       _malloc                    00454aa7 f   ucrtd:ucrtbased.dll
 0001:00053aad       __seh_filter_dll           00454aad f   ucrtd:ucrtbased.dll
 0001:00053ab3       __initialize_onexit_table  00454ab3 f   ucrtd:ucrtbased.dll
 0001:00053ab9       __register_onexit_function 00454ab9 f   ucrtd:ucrtbased.dll
 0001:00053abf       __execute_onexit_table     00454abf f   ucrtd:ucrtbased.dll
 0001:00053ac5       __crt_atexit               00454ac5 f   ucrtd:ucrtbased.dll
 0001:00053acb       __crt_at_quick_exit        00454acb f   ucrtd:ucrtbased.dll
 0001:00053ad1       __controlfp_s              00454ad1 f   ucrtd:ucrtbased.dll
 0001:00053ad7       _terminate                 00454ad7 f   ucrtd:ucrtbased.dll
 0001:00053c20       _WinMain@16                00454c20 f   SDL2main:SDL_windows_main.obj
 0001:00053c30       _main                      00454c30 f   SDL2main:SDL_windows_main.obj
 0001:00053d80       _wmain                     00454d80 f   SDL2main:SDL_windows_main.obj
 0001:00053d85       _QueryPerformanceCounter@4 00454d85 f   kernel32:KERNEL32.dll
 0001:00053d8b       _GetCurrentProcessId@0     00454d8b f   kernel32:KERNEL32.dll
 0001:00053d91       _GetCurrentThreadId@0      00454d91 f   kernel32:KERNEL32.dll
 0001:00053d97       _GetSystemTimeAsFileTime@4 00454d97 f   kernel32:KERNEL32.dll
 0001:00053d9d       _InitializeSListHead@4     00454d9d f   kernel32:KERNEL32.dll
 0001:00053da3       _IsDebuggerPresent@0       00454da3 f   kernel32:KERNEL32.dll
 0001:00053da9       _UnhandledExceptionFilter@4 00454da9 f   kernel32:KERNEL32.dll
 0001:00053daf       _SetUnhandledExceptionFilter@4 00454daf f   kernel32:KERNEL32.dll
 0001:00053db5       _GetStartupInfoW@4         00454db5 f   kernel32:KERNEL32.dll
 0001:00053dbb       _IsProcessorFeaturePresent@4 00454dbb f   kernel32:KERNEL32.dll
 0001:00053dc1       _GetModuleHandleW@4        00454dc1 f   kernel32:KERNEL32.dll
 0001:00053dc7       _GetCurrentProcess@0       00454dc7 f   kernel32:KERNEL32.dll
 0001:00053dcd       _TerminateProcess@8        00454dcd f   kernel32:KERNEL32.dll
 0001:00053dd3       _GetCommandLineW@0         00454dd3 f   kernel32:KERNEL32.dll
 0001:00053dd9       _VirtualAlloc@16           00454dd9 f   kernel32:KERNEL32.dll
 0001:00053ddf       _VirtualFree@12            00454ddf f   kernel32:KERNEL32.dll
 0001:00053de5       _WideCharToMultiByte@32    00454de5 f   kernel32:KERNEL32.dll
 0001:00053deb       _SDL_SetMainReady          00454deb f   SDL2:SDL2.dll
 0001:00053df1       _SDL_ShowSimpleMessageBox  00454df1 f   SDL2:SDL2.dll
 0001:00053e00       ___acrt_initialize         00454e00 f   MSVCRTD:ucrt_stubs.obj
 0001:00053e00       ___scrt_stub_for_acrt_initialize 00454e00 f   MSVCRTD:ucrt_stubs.obj
 0001:00053e00       ___vcrt_initialize         00454e00 f   MSVCRTD:ucrt_stubs.obj
 0001:00053e10       ___scrt_stub_for_acrt_thread_attach 00454e10 f   MSVCRTD:ucrt_stubs.obj
 0001:00053e10       ___acrt_thread_attach      00454e10 f   MSVCRTD:ucrt_stubs.obj
 0001:00053e10       ___vcrt_thread_attach      00454e10 f   MSVCRTD:ucrt_stubs.obj
 0001:00053e20       ___scrt_stub_for_acrt_thread_detach 00454e20 f   MSVCRTD:ucrt_stubs.obj
 0001:00053e20       ___acrt_thread_detach      00454e20 f   MSVCRTD:ucrt_stubs.obj
 0001:00053e20       ___vcrt_thread_detach      00454e20 f   MSVCRTD:ucrt_stubs.obj
 0001:00053e30       ___vcrt_uninitialize       00454e30 f   MSVCRTD:ucrt_stubs.obj
 0001:00053e30       ___acrt_uninitialize       00454e30 f   MSVCRTD:ucrt_stubs.obj
 0001:00053e30       ___scrt_stub_for_acrt_uninitialize 00454e30 f   MSVCRTD:ucrt_stubs.obj
 0001:00053e40       ___scrt_stub_for_acrt_uninitialize_critical 00454e40 f   MSVCRTD:ucrt_stubs.obj
 0001:00053e40       ___vcrt_uninitialize_critical 00454e40 f   MSVCRTD:ucrt_stubs.obj
 0001:00053e40       ___acrt_uninitialize_critical 00454e40 f   MSVCRTD:ucrt_stubs.obj
 0001:00053e50       ___scrt_stub_for_is_c_termination_complete 00454e50 f   MSVCRTD:ucrt_stubs.obj
 0001:00053e50       __is_c_termination_complete 00454e50 f   MSVCRTD:ucrt_stubs.obj
 0001:00053e60       __filter_x86_sse2_floating_point_exception_default 00454e60 f   MSVCRTD:x86_exception_filter.obj
 0001:00053e60       __filter_x86_sse2_floating_point_exception 00454e60 f   MSVCRTD:x86_exception_filter.obj
 0002:00000000       ___xc_a                    0045e000     MSVCRTD:initializers.obj
 0002:0000030c       ___xc_z                    0045e30c     MSVCRTD:initializers.obj
 0002:00000410       ___xi_a                    0045e410     MSVCRTD:initializers.obj
 0002:0000071c       ___xi_z                    0045e71c     MSVCRTD:initializers.obj
 0002:00000820       ___xp_a                    0045e820     MSVCRTD:initializers.obj
 0002:00000924       ___xp_z                    0045e924     MSVCRTD:initializers.obj
 0002:00000a28       ___xt_a                    0045ea28     MSVCRTD:initializers.obj
 0002:00000b2c       ___xt_z                    0045eb2c     MSVCRTD:initializers.obj
 0002:0000112c       ??_7exception@std@@6B@     0045f12c     LoseGameState.obj
 0002:00001138       ??_C@_0BC@EOODALEL@Unknown?5exception@ 0045f138     LoseGameState.obj
 0002:00001154       ??_7bad_alloc@std@@6B@     0045f154     LoseGameState.obj
 0002:00001164       ??_7bad_array_new_length@std@@6B@ 0045f164     LoseGameState.obj
 0002:00001170       ??_C@_0BF@KINCDENJ@bad?5array?5new?5length@ 0045f170     LoseGameState.obj
 0002:0000118c       ??_C@_0BB@FCMFBGOM@invalid?5argument@ 0045f18c     LoseGameState.obj
 0002:000011a0       ??_C@_02DKCKIIND@?$CFs@    0045f1a0     LoseGameState.obj
 0002:000011a8       ??_C@_0GI@DLOLCDJM@C?3?2Program?5Files?5?$CIx86?$CJ?2Microsof@ 0045f1a8     LoseGameState.obj
 0002:00001228       ??_C@_1NA@HECJLOLD@?$AAC?$AA?3?$AA?2?$AAP?$AAr?$AAo?$AAg?$AAr?$AAa?$AAm?$AA?5?$AAF?$AAi?$AAl?$AAe@ 0045f228     LoseGameState.obj
 0002:00001328       ??_C@_1EK@NIFDJFDG@?$AAs?$AAt?$AAd?$AA?3?$AA?3?$AA_?$AAA?$AAd?$AAj?$AAu?$AAs?$AAt?$AA_?$AAm?$AAa@ 0045f328     LoseGameState.obj
 0002:00001380       ??_C@_1CG@JNLFBNGN@?$AA?$CC?$AAi?$AAn?$AAv?$AAa?$AAl?$AAi?$AAd?$AA?5?$AAa?$AAr?$AAg?$AAu?$AAm?$AAe@ 0045f380     LoseGameState.obj
 0002:000013b0       ??_C@_0BJ@LFDBABJJ@ITERATOR?5LIST?5CORRUPTED?$CB@ 0045f3b0     LoseGameState.obj
 0002:000013d0       ??_C@_1EE@KLDMFDFL@?$AAs?$AAt?$AAd?$AA?3?$AA?3?$AA_?$AAI?$AAt?$AAe?$AAr?$AAa?$AAt?$AAo?$AAr?$AA_@ 0045f3d0     LoseGameState.obj
 0002:00001424       ??_C@_1DG@PLBPCAEM@?$AA?$CC?$AAI?$AAT?$AAE?$AAR?$AAA?$AAT?$AAO?$AAR?$AA?5?$AAL?$AAI?$AAS?$AAT?$AA?5@ 0045f424     LoseGameState.obj
 0002:00001464       ??_C@_0BB@GCADKGJO@map?1set?5too?5long@ 0045f464     LoseGameState.obj
 0002:00001478       ??_C@_0DC@BNOGMHFL@Error?5creating?5surface?5in?5RawIm@ 0045f478     LoseGameState.obj
 0002:000014b4       ??_C@_0BD@IFIGDDIC@?7?7?$CL?$CL?$CL?5Load?5image?3?5@ 0045f4b4     LoseGameState.obj
 0002:000014cc       ??_C@_0DJ@OJEPJEDH@ImageManager?3?3getImagePtrbyURL?$CI@ 0045f4cc     LoseGameState.obj
 0002:00001510       ??_C@_0BJ@LOCNEGOL@Failed?5to?5load?5image?5?$CFs?6@ 0045f510     LoseGameState.obj
 0002:00001530       ??_C@_02JDPG@rb@           0045f530     LoseGameState.obj
 0002:00001538       ??_7LoseGameState@@6B@     0045f538     LoseGameState.obj
 0002:00001564       ??_7SimpleTextObject@@6B@  0045f564     LoseGameState.obj
 0002:000015a8       ??_7ScrollingTextObject@@6B@ 0045f5a8     LoseGameState.obj
 0002:000015ec       ??_7DragableBaseClassObject@@6B@ 0045f5ec     LoseGameState.obj
 0002:00001644       ??_7DragableImageObject@@6B@ 0045f644     LoseGameState.obj
 0002:0000169c       ??_7MappableImageObject@@6B@ 0045f69c     LoseGameState.obj
 0002:000016f4       ??_7CoordinateMapping@@6B@ 0045f6f4     LoseGameState.obj
 0002:00001704       ??_7CoordinateMappingRotate@@6B@ 0045f704     LoseGameState.obj
 0002:00001714       ??_7GameImageObject@@6BMappableImageObject@@@ 0045f714     LoseGameState.obj
 0002:0000176c       ??_7GameImageObject@@6BCoordinateMapping@@@ 0045f76c     LoseGameState.obj
 0002:00001778       ??_C@_0BO@PFKOHNJC@vector?5subscript?5out?5of?5range@ 0045f778     LoseGameState.obj
 0002:000017a0       ??_C@_0GH@LCOHIJDN@C?3?2Program?5Files?5?$CIx86?$CJ?2Microsof@ 0045f7a0     LoseGameState.obj
 0002:00001820       ??_C@_1MO@ODIJIEME@?$AAC?$AA?3?$AA?2?$AAP?$AAr?$AAo?$AAg?$AAr?$AAa?$AAm?$AA?5?$AAF?$AAi?$AAl?$AAe@ 0045f820     LoseGameState.obj
 0002:00001918       ??_C@_1BME@NCIPHHDN@?$AAs?$AAt?$AAd?$AA?3?$AA?3?$AAv?$AAe?$AAc?$AAt?$AAo?$AAr?$AA?$DM?$AAc?$AAl?$AAa@ 0045f918     LoseGameState.obj
 0002:00001b38       ??_C@_1EA@LEKOKFNB@?$AA?$CC?$AAv?$AAe?$AAc?$AAt?$AAo?$AAr?$AA?5?$AAs?$AAu?$AAb?$AAs?$AAc?$AAr?$AAi@ 0045fb38     LoseGameState.obj
 0002:00001b88       ??_C@_1MK@PODALHBD@?$AAs?$AAt?$AAd?$AA?3?$AA?3?$AAv?$AAe?$AAc?$AAt?$AAo?$AAr?$AA?$DM?$AAc?$AAl?$AAa@ 0045fb88     LoseGameState.obj
 0002:00001c80       ??_C@_0GJ@DKHJDABM@C?3?2Program?5Files?5?$CIx86?$CJ?2Microsof@ 0045fc80     LoseGameState.obj
 0002:00001d00       ??_C@_0BP@OLDKBHLM@map?1set?5iterators?5incompatible@ 0045fd00     LoseGameState.obj
 0002:00001d28       ??_C@_0GG@IMKNMLNM@C?3?2Program?5Files?5?$CIx86?$CJ?2Microsof@ 0045fd28     LoseGameState.obj
 0002:00001da8       ??_C@_1MM@HBODJDNH@?$AAC?$AA?3?$AA?2?$AAP?$AAr?$AAo?$AAg?$AAr?$AAa?$AAm?$AA?5?$AAF?$AAi?$AAl?$AAe@ 0045fda8     LoseGameState.obj
 0002:00001ea0       ??_C@_1EC@JLIDLCDH@?$AA?$CC?$AAm?$AAa?$AAp?$AA?1?$AAs?$AAe?$AAt?$AA?5?$AAi?$AAt?$AAe?$AAr?$AAa?$AAt@ 0045fea0     LoseGameState.obj
 0002:00001ef0       ??_C@_1BPG@KHABJGCD@?$AAs?$AAt?$AAd?$AA?3?$AA?3?$AA_?$AAT?$AAr?$AAe?$AAe?$AA_?$AAc?$AAo?$AAn?$AAs@ 0045fef0     LoseGameState.obj
 0002:0000214c       ??_C@_0DG@LCFNIIPB@cannot?5dereference?5value?9initia@ 0046014c     LoseGameState.obj
 0002:00002190       ??_C@_1BPE@BBFPAJEC@?$AAs?$AAt?$AAd?$AA?3?$AA?3?$AA_?$AAT?$AAr?$AAe?$AAe?$AA_?$AAc?$AAo?$AAn?$AAs@ 00460190     LoseGameState.obj
 0002:000023e8       ??_C@_1HA@ILGCNILF@?$AA?$CC?$AAc?$AAa?$AAn?$AAn?$AAo?$AAt?$AA?5?$AAd?$AAe?$AAr?$AAe?$AAf?$AAe?$AAr@ 004603e8     LoseGameState.obj
 0002:00002470       ??_C@_0CI@OKFEHCEB@cannot?5dereference?5end?5map?1set?5@ 00460470     LoseGameState.obj
 0002:000024a0       ??_C@_1FE@NKHAAGMB@?$AA?$CC?$AAc?$AAa?$AAn?$AAn?$AAo?$AAt?$AA?5?$AAd?$AAe?$AAr?$AAe?$AAf?$AAe?$AAr@ 004604a0     LoseGameState.obj
 0002:00002508       ??_7?$_Ref_count@VRawImageData@@@std@@6B@ 00460508     LoseGameState.obj
 0002:0000251c       ??_C@_0DA@GGPHOHEL@map?1set?5erase?5iterator?5from?5inc@ 0046051c     LoseGameState.obj
 0002:00002558       ??_C@_1DJG@KIJFPGMB@?$AAs?$AAt?$AAd?$AA?3?$AA?3?$AA_?$AAT?$AAr?$AAe?$AAe?$AA?$DM?$AAc?$AAl?$AAa?$AAs@ 00460558     LoseGameState.obj
 0002:000029a8       ??_C@_1GE@FENJBJJO@?$AA?$CC?$AAm?$AAa?$AAp?$AA?1?$AAs?$AAe?$AAt?$AA?5?$AAe?$AAr?$AAa?$AAs?$AAe?$AA?5@ 004609a8     LoseGameState.obj
 0002:00002a20       ??_C@_0CE@JAJNKOFK@cannot?5erase?5map?1set?5end?$CI?$CJ?5iter@ 00460a20     LoseGameState.obj
 0002:00002a50       ??_C@_1EM@MEAEPHLP@?$AA?$CC?$AAc?$AAa?$AAn?$AAn?$AAo?$AAt?$AA?5?$AAe?$AAr?$AAa?$AAs?$AAe?$AA?5?$AAm@ 00460a50     LoseGameState.obj
 0002:00002aac       ??_C@_0BA@FOIKENOD@vector?5too?5long@ 00460aac     LoseGameState.obj
 0002:00002ac0       ??_C@_0BA@JFNIOLAK@string?5too?5long@ 00460ac0     LoseGameState.obj
 0002:00002ad8       ??_C@_1NC@OOPBDKNL@?$AAC?$AA?3?$AA?2?$AAP?$AAr?$AAo?$AAg?$AAr?$AAa?$AAm?$AA?5?$AAF?$AAi?$AAl?$AAe@ 00460ad8     LoseGameState.obj
 0002:00002bd4       ??_C@_0BD@FEEMDEPI@invalid?5comparator@ 00460bd4     LoseGameState.obj
 0002:00002bec       ??_C@_1CI@JONCLBEJ@?$AAs?$AAt?$AAd?$AA?3?$AA?3?$AA_?$AAD?$AAe?$AAb?$AAu?$AAg?$AA_?$AAl?$AAt?$AA_@ 00460bec     LoseGameState.obj
 0002:00002c1c       ??_C@_1CK@NDNHPKPI@?$AA?$CC?$AAi?$AAn?$AAv?$AAa?$AAl?$AAi?$AAd?$AA?5?$AAc?$AAo?$AAm?$AAp?$AAa?$AAr@ 00460c1c     LoseGameState.obj
 0002:00002c50       __real@3f1a36e2eb1c432d    00460c50     LoseGameState.obj
 0002:00002c60       __real@3fe0000000000000    00460c60     LoseGameState.obj
 0002:00002c70       __real@400921fb54442d18    00460c70     LoseGameState.obj
 0002:00003188       ??_7FilterPoints@@6B@      00461188     ZoomInFirstState.obj
 0002:000031a0       ??_C@_0CN@GHCLOPHF@Error?5in?5setting?5pixel?9?5should?5@ 004611a0     ZoomInFirstState.obj
 0002:000031d8       ??_C@_0JM@GIEKPEHN@WARNING?3?5Attempted?5write?5to?5sur@ 004611d8     ZoomInFirstState.obj
 0002:00003298       ??_7FilterPointsScaling@@6B@ 00461298     ZoomInFirstState.obj
 0002:000032b4       ??_7FilterPointsTranslation@@6B@ 004612b4     ZoomInFirstState.obj
 0002:000032d0       ??_7ZoomInFirstState@@6B@  004612d0     ZoomInFirstState.obj
 0002:000032f8       __real@4034000000000000    004612f8     ZoomInFirstState.obj
 0002:00003308       __real@408f400000000000    00461308     ZoomInFirstState.obj
 0002:00003820       ??_7ZoomInState@@6B@       00461820     ZoomInState.obj
 0002:00003848       ??_C@_0BI@CFPLBAOH@invalid?5string?5position@ 00461848     ZoomInState.obj
 0002:00003864       ??_C@_0BJ@HAJGEHKO@transposed?5pointer?5range@ 00461864     ZoomInState.obj
 0002:00003884       ??_C@_1CG@LJCPDKEJ@?$AAs?$AAt?$AAd?$AA?3?$AA?3?$AA_?$AAV?$AAe?$AAr?$AAi?$AAf?$AAy?$AA_?$AAr?$AAa@ 00461884     ZoomInState.obj
 0002:000038b4       ??_C@_1DG@FJIKMGFD@?$AA?$CC?$AAt?$AAr?$AAa?$AAn?$AAs?$AAp?$AAo?$AAs?$AAe?$AAd?$AA?5?$AAp?$AAo?$AAi@ 004618b4     ZoomInState.obj
 0002:00003e00       ??_7ZoomOutState@@6B@      00461e00     ZoomOutState.obj
 0002:000043c0       ??_7ControlsState@@6B@     004623c0     ControlsState.obj
 0002:000048e4       ??_7WinGameState@@6B@      004628e4     WinGameState.obj
 0002:00004edc       ??_7bad_cast@std@@6B@      00462edc     EzyjddEngineCW4.obj
 0002:00004ee8       ??_C@_08EPJLHIJG@bad?5cast@ 00462ee8     EzyjddEngineCW4.obj
 0002:00004ef8       ??_7EzyjddEngineCW4@@6BDisplayableObjectContainer@@@ 00462ef8     EzyjddEngineCW4.obj
 0002:00004fa4       ??_7EzyjddEngineCW4@@6BFilterPoints@@@ 00462fa4     EzyjddEngineCW4.obj
 0002:00004fc0       ??_7?$basic_filebuf@DU?$char_traits@D@std@@@std@@6B@ 00462fc0     EzyjddEngineCW4.obj
 0002:0000500c       ??_7?$basic_fstream@DU?$char_traits@D@std@@@std@@6B@ 0046300c     EzyjddEngineCW4.obj
 0002:00005014       ??_8?$basic_fstream@DU?$char_traits@D@std@@@std@@7B?$basic_istream@DU?$char_traits@D@std@@@1@@ 00463014     EzyjddEngineCW4.obj
 0002:00005020       ??_8?$basic_fstream@DU?$char_traits@D@std@@@std@@7B?$basic_ostream@DU?$char_traits@D@std@@@1@@ 00463020     EzyjddEngineCW4.obj
 0002:00005030       ??_C@_1KC@CMKICNOA@?$AAs?$AAt?$AAd?$AA?3?$AA?3?$AAv?$AAe?$AAc?$AAt?$AAo?$AAr?$AA?$DM?$AAc?$AAl?$AAa@ 00463030     EzyjddEngineCW4.obj
 0002:000050f4       ??_C@_0BI@PJHAPDF@vector?5empty?5before?5pop@ 004630f4     EzyjddEngineCW4.obj
 0002:00005110       ??_C@_1JM@PMAOMFKM@?$AAs?$AAt?$AAd?$AA?3?$AA?3?$AAv?$AAe?$AAc?$AAt?$AAo?$AAr?$AA?$DM?$AAc?$AAl?$AAa@ 00463110     EzyjddEngineCW4.obj
 0002:000051cc       ??_C@_1DE@IPIBMNGD@?$AA?$CC?$AAv?$AAe?$AAc?$AAt?$AAo?$AAr?$AA?5?$AAe?$AAm?$AAp?$AAt?$AAy?$AA?5?$AAb@ 004631cc     EzyjddEngineCW4.obj
 0002:0000520c       ??_C@_0DE@CHADHGFF@can?8t?5dereference?5value?9initial@ 0046320c     EzyjddEngineCW4.obj
 0002:00005250       ??_C@_1GM@FNBFNBEL@?$AA?$CC?$AAc?$AAa?$AAn?$AA?8?$AAt?$AA?5?$AAd?$AAe?$AAr?$AAe?$AAf?$AAe?$AAr?$AAe@ 00463250     EzyjddEngineCW4.obj
 0002:000052d4       ??_C@_0CP@MDHADBHN@can?8t?5dereference?5out?5of?5range?5@ 004632d4     EzyjddEngineCW4.obj
 0002:00005310       ??_C@_1GC@JDCKOLAC@?$AA?$CC?$AAc?$AAa?$AAn?$AA?8?$AAt?$AA?5?$AAd?$AAe?$AAr?$AAe?$AAf?$AAe?$AAr?$AAe@ 00463310     EzyjddEngineCW4.obj
 0002:00005388       ??_C@_0GI@MCCGCPHF@C?3?2Program?5Files?5?$CIx86?$CJ?2Microsof@ 00463388     EzyjddEngineCW4.obj
 0002:00005408       ??_C@_1NA@JKKFEHGC@?$AAC?$AA?3?$AA?2?$AAP?$AAr?$AAo?$AAg?$AAr?$AAa?$AAm?$AA?5?$AAF?$AAi?$AAl?$AAe@ 00463408     EzyjddEngineCW4.obj
 0002:00005504       ??_C@_0DC@KEKNBAEB@can?8t?5increment?5value?9initializ@ 00463504     EzyjddEngineCW4.obj
 0002:00005540       ??_C@_1NO@CGCBMABO@?$AAs?$AAt?$AAd?$AA?3?$AA?3?$AA_?$AAV?$AAe?$AAc?$AAt?$AAo?$AAr?$AA_?$AAc?$AAo@ 00463540     EzyjddEngineCW4.obj
 0002:00005650       ??_C@_1GI@EDCILPL@?$AA?$CC?$AAc?$AAa?$AAn?$AA?8?$AAt?$AA?5?$AAi?$AAn?$AAc?$AAr?$AAe?$AAm?$AAe?$AAn@ 00463650     EzyjddEngineCW4.obj
 0002:000056cc       ??_C@_0CJ@OAAAAGPM@can?8t?5increment?5vector?5iterator@ 004636cc     EzyjddEngineCW4.obj
 0002:00005700       ??_C@_1FG@LDPPKMGP@?$AA?$CC?$AAc?$AAa?$AAn?$AA?8?$AAt?$AA?5?$AAi?$AAn?$AAc?$AAr?$AAe?$AAm?$AAe?$AAn@ 00463700     EzyjddEngineCW4.obj
 0002:00005768       ??_C@_1NM@FMNAMDNB@?$AAs?$AAt?$AAd?$AA?3?$AA?3?$AA_?$AAV?$AAe?$AAc?$AAt?$AAo?$AAr?$AA_?$AAc?$AAo@ 00463768     EzyjddEngineCW4.obj
 0002:00005870       ??_C@_0BP@PFIPNLNI@front?$CI?$CJ?5called?5on?5empty?5string@ 00463870     EzyjddEngineCW4.obj
 0002:00005898       ??_C@_1LC@BJDDPGPA@?$AAs?$AAt?$AAd?$AA?3?$AA?3?$AAb?$AAa?$AAs?$AAi?$AAc?$AA_?$AAs?$AAt?$AAr?$AAi@ 00463898     EzyjddEngineCW4.obj
 0002:00005970       ??_C@_1EC@DINNLDHA@?$AA?$CC?$AAf?$AAr?$AAo?$AAn?$AAt?$AA?$CI?$AA?$CJ?$AA?5?$AAc?$AAa?$AAl?$AAl?$AAe?$AAd@ 00463970     EzyjddEngineCW4.obj
 0002:000059c0       ??_C@_0BO@CAOBBIOC@vector?5iterators?5incompatible@ 004639c0     EzyjddEngineCW4.obj
 0002:000059e8       ??_C@_1NG@LDHIOOAO@?$AAs?$AAt?$AAd?$AA?3?$AA?3?$AA_?$AAV?$AAe?$AAc?$AAt?$AAo?$AAr?$AA_?$AAc?$AAo@ 004639e8     EzyjddEngineCW4.obj
 0002:00005ae8       ??_C@_1EA@DJDGNIII@?$AA?$CC?$AAv?$AAe?$AAc?$AAt?$AAo?$AAr?$AA?5?$AAi?$AAt?$AAe?$AAr?$AAa?$AAt?$AAo@ 00463ae8     EzyjddEngineCW4.obj
 0002:00005b38       ??_7?$_Ref_count_obj2@VStartupState@@@std@@6B@ 00463b38     EzyjddEngineCW4.obj
 0002:00005b50       ??_7?$_Ref_count_obj2@VInstructionsState@@@std@@6B@ 00463b50     EzyjddEngineCW4.obj
 0002:00005b68       ??_7?$_Ref_count_obj2@VControlsState@@@std@@6B@ 00463b68     EzyjddEngineCW4.obj
 0002:00005b80       ??_7?$_Ref_count_obj2@VLevelInstructionsState@@@std@@6B@ 00463b80     EzyjddEngineCW4.obj
 0002:00005b98       ??_7?$_Ref_count_obj2@VRunningState@@@std@@6B@ 00463b98     EzyjddEngineCW4.obj
 0002:00005bb0       ??_7?$_Ref_count_obj2@VZoomInFirstState@@@std@@6B@ 00463bb0     EzyjddEngineCW4.obj
 0002:00005bc8       ??_7?$_Ref_count_obj2@VZoomInState@@@std@@6B@ 00463bc8     EzyjddEngineCW4.obj
 0002:00005be0       ??_7?$_Ref_count_obj2@VZoomOutState@@@std@@6B@ 00463be0     EzyjddEngineCW4.obj
 0002:00005bf8       ??_7?$_Ref_count_obj2@VPausedState@@@std@@6B@ 00463bf8     EzyjddEngineCW4.obj
 0002:00005c10       ??_7?$_Ref_count_obj2@VHighScoresState@@@std@@6B@ 00463c10     EzyjddEngineCW4.obj
 0002:00005c28       ??_7?$_Ref_count_obj2@VWinGameState@@@std@@6B@ 00463c28     EzyjddEngineCW4.obj
 0002:00005c40       ??_7?$_Ref_count_obj2@VLoseGameState@@@std@@6B@ 00463c40     EzyjddEngineCW4.obj
 0002:00005c54       ??_C@_0CG@PHHCFCMA@vector?5emplace?5iterator?5outside@ 00463c54     EzyjddEngineCW4.obj
 0002:00005c88       ??_C@_1JK@GOHNDFDI@?$AAs?$AAt?$AAd?$AA?3?$AA?3?$AAv?$AAe?$AAc?$AAt?$AAo?$AAr?$AA?$DM?$AAc?$AAl?$AAa@ 00463c88     EzyjddEngineCW4.obj
 0002:00005d40       ??_C@_1FA@JJEJIKGE@?$AA?$CC?$AAv?$AAe?$AAc?$AAt?$AAo?$AAr?$AA?5?$AAe?$AAm?$AAp?$AAl?$AAa?$AAc?$AAe@ 00463d40     EzyjddEngineCW4.obj
 0002:00006264       ??_7EngineState@@6B@       00464264     EngineState.obj
 0002:0000676c       ??_7DragableObject@@6B@    0046476c     DraggingDemo.obj
 0002:000067c4       ??_7ImageObject@@6B@       004647c4     DraggingDemo.obj
 0002:00006a48       ?MY_PI@DrawingSurface@@2NB 00464a48     DrawingSurface.obj
 0002:00006cd8       ??_C@_0LN@HOLHFHJI@WARNING?3?5Attempted?5blit?5to?5lock@ 00464cd8     DrawingSurface.obj
 0002:00006dc0       __real@3fe0c152382d7365    00464dc0     DrawingSurface.obj
 0002:00006dd0       __real@3ff0000000000000    00464dd0     DrawingSurface.obj
 0002:00006de0       __real@3ff8000000000000    00464de0     DrawingSurface.obj
 0002:00006df0       __real@3ff921fb54442d18    00464df0     DrawingSurface.obj
 0002:00006e00       __real@4000000000000000    00464e00     DrawingSurface.obj
 0002:00006e10       __real@4008000000000000    00464e10     DrawingSurface.obj
 0002:00006e20       __real@400f6a7a2955385e    00464e20     DrawingSurface.obj
 0002:00006e30       __real@4010000000000000    00464e30     DrawingSurface.obj
 0002:00006e40       __real@401921fb54442d18    00464e40     DrawingSurface.obj
 0002:00007314       ??_7FlashingDemo@@6BDisplayableObjectContainer@@@ 00465314     FlashingDemo.obj
 0002:000073c0       ??_7FlashingDemo@@6BFilterPoints@@@ 004653c0     FlashingDemo.obj
 0002:00007934       ??_7HighScoresState@@6B@   00465934     HighScoresState.obj
 0002:0000795c       ??_C@_0CB@EJBNKHHC@invalid?5to?5pop_back?5empty?5strin@ 0046595c     HighScoresState.obj
 0002:00007988       ??_C@_1LI@HCBEBID@?$AAs?$AAt?$AAd?$AA?3?$AA?3?$AAb?$AAa?$AAs?$AAi?$AAc?$AA_?$AAs?$AAt?$AAr?$AAi@ 00465988     HighScoresState.obj
 0002:00007a68       ??_C@_1EG@GNALHNOG@?$AA?$CC?$AAi?$AAn?$AAv?$AAa?$AAl?$AAi?$AAd?$AA?5?$AAt?$AAo?$AA?5?$AAp?$AAo?$AAp@ 00465a68     HighScoresState.obj
 0002:0000801c       ??_7BouncingObject@@6B@    0046601c     ImageObjectDemo.obj
 0002:00008060       ??_7BouncingImageObject@@6B@ 00466060     ImageObjectDemo.obj
 0002:000080a0       __real@0000000000000000    004660a0     ImageObjectDemo.obj
 0002:000080b0       __real@3f747ae147ae147b    004660b0     ImageObjectDemo.obj
 0002:000080c0       __real@4004000000000000    004660c0     ImageObjectDemo.obj
 0002:000080d0       __xmm@80000000000000008000000000000000 004660d0     ImageObjectDemo.obj
 0002:000085e4       ??_7InstructionsState@@6B@ 004665e4     InstructionsState.obj
 0002:00008b50       ??_7JigsawPiece@@6BDragableImageObject@@@ 00466b50     JigsawDemo.obj
 0002:00008bac       ??_7JigsawPiece@@6BCoordinateMapping@@@ 00466bac     JigsawDemo.obj
 0002:00008bb8       ??_C@_0CA@ONKMLLKE@?$CF05dx?$CF07dy?$CF07dr?$CF02dc?$CF07dr?$CF07d?$AN?6@ 00466bb8     JigsawDemo.obj
 0002:00008be0       ??_C@_0BI@OPENOKOK@checkJoinBottom?5success@ 00466be0     JigsawDemo.obj
 0002:00008bfc       ??_C@_0BF@IKBLDNLD@checkJoinTop?5success@ 00466bfc     JigsawDemo.obj
 0002:00008c18       ??_C@_0BH@OIGOFELM@checkJoinRight?5success@ 00466c18     JigsawDemo.obj
 0002:00008c34       ??_C@_0BG@NHPDEGHB@checkJoinLeft?5success@ 00466c34     JigsawDemo.obj
 0002:00008c50       ??_C@_0CE@EAMOGAIE@vector?5erase?5iterator?5outside?5r@ 00466c50     JigsawDemo.obj
 0002:00008c80       ??_C@_1LO@PHHLNKEP@?$AAs?$AAt?$AAd?$AA?3?$AA?3?$AAv?$AAe?$AAc?$AAt?$AAo?$AAr?$AA?$DM?$AAc?$AAl?$AAa@ 00466c80     JigsawDemo.obj
 0002:00008d68       ??_C@_1EM@BEMPOGMM@?$AA?$CC?$AAv?$AAe?$AAc?$AAt?$AAo?$AAr?$AA?5?$AAe?$AAr?$AAa?$AAs?$AAe?$AA?5?$AAi@ 00466d68     JigsawDemo.obj
 0002:00008dc8       ??_C@_1OK@EOCJDFAL@?$AAs?$AAt?$AAd?$AA?3?$AA?3?$AA_?$AAV?$AAe?$AAc?$AAt?$AAo?$AAr?$AA_?$AAc?$AAo@ 00466dc8     JigsawDemo.obj
 0002:00008ee4       ??_7?$_Func_impl_no_alloc@V<lambda_2870de01b601283699da779de20905fc>@@XPAVDisplayableObject@@@std@@6B@ 00466ee4     JigsawDemo.obj
 0002:00008f08       ??_7?$_Func_impl_no_alloc@V<lambda_4d3c514b9e5ad6cc29096aa3b57f98f2>@@XPAVDisplayableObject@@@std@@6B@ 00466f08     JigsawDemo.obj
 0002:00008f2c       ??_7?$_Func_impl_no_alloc@V<lambda_369f3aee610e50bbd15c3a78d9c8686f>@@XPAVDisplayableObject@@@std@@6B@ 00466f2c     JigsawDemo.obj
 0002:00008f50       ??_7?$_Func_impl_no_alloc@V<lambda_817584b2460f1bcab806f46a25c321a8>@@XPAVDisplayableObject@@@std@@6B@ 00466f50     JigsawDemo.obj
 0002:00008f74       ??_7?$_Func_impl_no_alloc@V<lambda_341a6657abb2758c42a6873833e6116f>@@XPAVDisplayableObject@@@std@@6B@ 00466f74     JigsawDemo.obj
 0002:00009000       ??_C@_0DI@PBEELKIF@vector?5iterators?5in?5range?5are?5f@ 00467000     JigsawDemo.obj
 0002:00009048       ??_C@_1HE@KBMFDAFB@?$AA?$CC?$AAv?$AAe?$AAc?$AAt?$AAo?$AAr?$AA?5?$AAi?$AAt?$AAe?$AAr?$AAa?$AAt?$AAo@ 00467048     JigsawDemo.obj
 0002:000090d4       ??_C@_0CB@LIAHLBAO@vector?5iterator?5range?5transpose@ 004670d4     JigsawDemo.obj
 0002:00009100       ??_C@_1EG@ODKBEHFN@?$AA?$CC?$AAv?$AAe?$AAc?$AAt?$AAo?$AAr?$AA?5?$AAi?$AAt?$AAe?$AAr?$AAa?$AAt?$AAo@ 00467100     JigsawDemo.obj
 0002:00009158       __real@4051800000000000    00467158     JigsawDemo.obj
 0002:00009ba8       ??_7DisplayableObjectContainer@@6B@ 00467ba8     BaseEngine.obj
 0002:00009bb8       ??_7BaseEngine@@6BDisplayableObjectContainer@@@ 00467bb8     BaseEngine.obj
 0002:00009c64       ??_7BaseEngine@@6BFilterPoints@@@ 00467c64     BaseEngine.obj
 0002:00009c80       ??_C@_1PA@DMJFJEGO@?$AAs?$AAt?$AAd?$AA?3?$AA?3?$AA_?$AAV?$AAe?$AAc?$AAt?$AAo?$AAr?$AA_?$AAc?$AAo@ 00467c80     BaseEngine.obj
 0002:00009da0       ??_C@_1PC@LAHDNGHL@?$AAs?$AAt?$AAd?$AA?3?$AA?3?$AA_?$AAV?$AAe?$AAc?$AAt?$AAo?$AAr?$AA_?$AAc?$AAo@ 00467da0     BaseEngine.obj
 0002:0000a38c       ??_7DisplayableObject@@6B@ 0046838c     DisplayableObject.obj
 0002:0000a6b4       ??_C@_0BI@GMOFELCF@Free?5font?3?5?$CFd?5point?5?$CFs?6@ 004686b4     FontManager.obj
 0002:0000abd8       __real@4059000000000000    00468bd8     ImageMappingDemo.obj
 0002:0000abe8       __real@c059000000000000    00468be8     ImageMappingDemo.obj
 0002:0000b0d0       ??_7PausedState@@6B@       004690d0     PausedState.obj
 0002:0000b0f8       ?sVirusDirection@RunningState@@0QBW4VirusDirection@@B 004690f8     RunningState.obj
 0002:0000b108       ?sFlowFactorX@RunningState@@0QBNB 00469108     RunningState.obj
 0002:0000b128       ?sFlowFactorY@RunningState@@0QBNB 00469128     RunningState.obj
 0002:0000b148       ?sNumViruses@RunningState@@0QBHB 00469148     RunningState.obj
 0002:0000b158       ?sNumMines@RunningState@@0QBHB 00469158     RunningState.obj
 0002:0000b820       ??_7CollidableInterface@@6B@ 00469820     RunningState.obj
 0002:0000b844       ??_7CollidableGameImageObject@@6BMappableImageObject@@@ 00469844     RunningState.obj
 0002:0000b89c       ??_7CollidableGameImageObject@@6BCoordinateMapping@@@ 0046989c     RunningState.obj
 0002:0000b8ac       ??_7CollidableGameImageObject@@6B@ 004698ac     RunningState.obj
 0002:0000b8d0       ??_7CollisionCallbacks@@6B@ 004698d0     RunningState.obj
 0002:0000b8ec       ??_7Ship@@6BMappableImageObject@@@ 004698ec     RunningState.obj
 0002:0000b944       ??_7Ship@@6BCoordinateMapping@@@ 00469944     RunningState.obj
 0002:0000b954       ??_7Ship@@6B@              00469954     RunningState.obj
 0002:0000b978       ??_7Mine@@6BMappableImageObject@@@ 00469978     RunningState.obj
 0002:0000b9d0       ??_7Mine@@6BCoordinateMapping@@@ 004699d0     RunningState.obj
 0002:0000b9e0       ??_7Mine@@6B@              004699e0     RunningState.obj
 0002:0000ba04       ??_7Missile@@6BDisplayableObject@@@ 00469a04     RunningState.obj
 0002:0000ba48       ??_7Missile@@6BCollidableInterface@@@ 00469a48     RunningState.obj
 0002:0000ba6c       ??_7VirusCallbacks@@6B@    00469a6c     RunningState.obj
 0002:0000ba78       ??_7Virus@@6BMappableImageObject@@@ 00469a78     RunningState.obj
 0002:0000bad0       ??_7Virus@@6BCoordinateMapping@@@ 00469ad0     RunningState.obj
 0002:0000bae0       ??_7RunningState@@6BEngineState@@@ 00469ae0     RunningState.obj
 0002:0000bb0c       ??_7RunningState@@6BCollisionCallbacks@@@ 00469b0c     RunningState.obj
 0002:0000bb28       ??_7RunningState@@6BVirusCallbacks@@@ 00469b28     RunningState.obj
 0002:0000bb30       ??_C@_1JG@PHFLGMDE@?$AAs?$AAt?$AAd?$AA?3?$AA?3?$AAv?$AAe?$AAc?$AAt?$AAo?$AAr?$AA?$DM?$AAc?$AAl?$AAa@ 00469b30     RunningState.obj
 0002:0000bbe8       ??_C@_1IK@FGOOFBMB@?$AAs?$AAt?$AAd?$AA?3?$AA?3?$AAv?$AAe?$AAc?$AAt?$AAo?$AAr?$AA?$DM?$AAc?$AAl?$AAa@ 00469be8     RunningState.obj
 0002:0000bc90       ??_C@_1KC@PALLADBJ@?$AAs?$AAt?$AAd?$AA?3?$AA?3?$AAv?$AAe?$AAc?$AAt?$AAo?$AAr?$AA?$DM?$AAc?$AAl?$AAa@ 00469c90     RunningState.obj
 0002:0000bd58       ??_C@_1JG@PCICODMO@?$AAs?$AAt?$AAd?$AA?3?$AA?3?$AAv?$AAe?$AAc?$AAt?$AAo?$AAr?$AA?$DM?$AAc?$AAl?$AAa@ 00469d58     RunningState.obj
 0002:0000be10       ??_C@_1JK@KNCOBOOH@?$AAs?$AAt?$AAd?$AA?3?$AA?3?$AAv?$AAe?$AAc?$AAt?$AAo?$AAr?$AA?$DM?$AAc?$AAl?$AAa@ 00469e10     RunningState.obj
 0002:0000bec8       ??_C@_1IO@EEHABBC@?$AAs?$AAt?$AAd?$AA?3?$AA?3?$AAv?$AAe?$AAc?$AAt?$AAo?$AAr?$AA?$DM?$AAc?$AAl?$AAa@ 00469ec8     RunningState.obj
 0002:0000bf78       ??_C@_1MG@CLPKMABJ@?$AAs?$AAt?$AAd?$AA?3?$AA?3?$AAv?$AAe?$AAc?$AAt?$AAo?$AAr?$AA?$DM?$AAc?$AAl?$AAa@ 00469f78     RunningState.obj
 0002:0000c068       ??_C@_1NK@DOLACCEO@?$AAs?$AAt?$AAd?$AA?3?$AA?3?$AA_?$AAV?$AAe?$AAc?$AAt?$AAo?$AAr?$AA_?$AAc?$AAo@ 0046a068     RunningState.obj
 0002:0000c170       ??_C@_1NI@CAMHLIOB@?$AAs?$AAt?$AAd?$AA?3?$AA?3?$AA_?$AAV?$AAe?$AAc?$AAt?$AAo?$AAr?$AA_?$AAc?$AAo@ 0046a170     RunningState.obj
 0002:0000c278       ??_C@_1NO@HCPOBIAF@?$AAs?$AAt?$AAd?$AA?3?$AA?3?$AA_?$AAV?$AAe?$AAc?$AAt?$AAo?$AAr?$AA_?$AAc?$AAo@ 0046a278     RunningState.obj
 0002:0000c388       ??_C@_1NM@IJDDDJA@?$AAs?$AAt?$AAd?$AA?3?$AA?3?$AA_?$AAV?$AAe?$AAc?$AAt?$AAo?$AAr?$AA_?$AAc?$AAo@ 0046a388     RunningState.obj
 0002:0000c490       ??_C@_1NI@EJBOPOFD@?$AAs?$AAt?$AAd?$AA?3?$AA?3?$AA_?$AAV?$AAe?$AAc?$AAt?$AAo?$AAr?$AA_?$AAc?$AAo@ 0046a490     RunningState.obj
 0002:0000c598       ??_C@_1NG@HAOCOKAN@?$AAs?$AAt?$AAd?$AA?3?$AA?3?$AA_?$AAV?$AAe?$AAc?$AAt?$AAo?$AAr?$AA_?$AAc?$AAo@ 0046a598     RunningState.obj
 0002:0000c698       ??_C@_1PG@OCNJKDKJ@?$AAs?$AAt?$AAd?$AA?3?$AA?3?$AA_?$AAV?$AAe?$AAc?$AAt?$AAo?$AAr?$AA_?$AAc?$AAo@ 0046a698     RunningState.obj
 0002:0000c7c0       ??_C@_1PE@HMIOIANC@?$AAs?$AAt?$AAd?$AA?3?$AA?3?$AA_?$AAV?$AAe?$AAc?$AAt?$AAo?$AAr?$AA_?$AAc?$AAo@ 0046a7c0     RunningState.obj
 0002:0000c8e8       ??_C@_1NC@JCGGBCEC@?$AAs?$AAt?$AAd?$AA?3?$AA?3?$AA_?$AAV?$AAe?$AAc?$AAt?$AAo?$AAr?$AA_?$AAc?$AAo@ 0046a8e8     RunningState.obj
 0002:0000c9e8       ??_C@_1NG@PAHMPCMJ@?$AAs?$AAt?$AAd?$AA?3?$AA?3?$AA_?$AAV?$AAe?$AAc?$AAt?$AAo?$AAr?$AA_?$AAc?$AAo@ 0046a9e8     RunningState.obj
 0002:0000cae8       ??_C@_1NA@HOKOLLOL@?$AAs?$AAt?$AAd?$AA?3?$AA?3?$AA_?$AAV?$AAe?$AAc?$AAt?$AAo?$AAr?$AA_?$AAc?$AAo@ 0046aae8     RunningState.obj
 0002:0000cbe8       ??_C@_1OO@EFFCIAEC@?$AAs?$AAt?$AAd?$AA?3?$AA?3?$AA_?$AAV?$AAe?$AAc?$AAt?$AAo?$AAr?$AA_?$AAc?$AAo@ 0046abe8     RunningState.obj
 0002:0000cd08       __real@3fa47ae147ae147b    0046ad08     RunningState.obj
 0002:0000cd18       __real@4030000000000000    0046ad18     RunningState.obj
 0002:0000cd28       __real@4075400000000000    0046ad28     RunningState.obj
 0002:0000cd38       __real@4079000000000000    0046ad38     RunningState.obj
 0002:0000cd48       __real@407d600000000000    0046ad48     RunningState.obj
 0002:0000cd58       __real@407f400000000000    0046ad58     RunningState.obj
 0002:0000cd68       __real@40f86a0000000000    0046ad68     RunningState.obj
 0002:0000d6c4       ??_7LevelInstructionsState@@6B@ 0046b6c4     LevelInstructionsState.obj
 0002:0000d6f0       ??_7FlashingTextObject@@6B@ 0046b6f0     LevelInstructionsState.obj
 0002:0000dbf4       ??_7CroppedCoordinateMapping@@6B@ 0046bbf4     SimpleImage.obj
 0002:0000e0f0       ??_7JasonsDemoA@@6BDisplayableObjectContainer@@@ 0046c0f0     JasonsDemoA.obj
 0002:0000e19c       ??_7JasonsDemoA@@6BFilterPoints@@@ 0046c19c     JasonsDemoA.obj
 0002:0000e67c       ??_7JasonsObjectA@@6B@     0046c67c     JasonsObjectA.obj
 0002:0000eb84       ??_7TileManager@@6B@       0046cb84     JasonsTileManager.obj
 0002:0000eb94       ??_7JasonsTileManager@@6B@ 0046cb94     JasonsTileManager.obj
 0002:0000f0d8       ??_7DragableTokenContainer@@6BDragableBaseClassObject@@@ 0046d0d8     PlayingCardsDemo.obj
 0002:0000f134       ??_7DragableTokenContainer@@6BDisplayableObjectContainer@@@ 0046d134     PlayingCardsDemo.obj
 0002:0000f140       ??_C@_0BI@NHFDFHOB@Cornerstone?5Regular?4ttf@ 0046d140     PlayingCardsDemo.obj
 0002:0000f15c       ??_C@_05JLAFMLMB@Token@    0046d15c     PlayingCardsDemo.obj
 0002:0000f164       ??_C@_05FKOOCFCH@Cntnr@    0046d164     PlayingCardsDemo.obj
 0002:0000f170       ??_7DragableToken@@6B@     0046d170     PlayingCardsDemo.obj
 0002:0000f1b8       ??_7TokenTray@@6BDragableBaseClassObject@@@ 0046d1b8     PlayingCardsDemo.obj
 0002:0000f214       ??_7TokenTray@@6BDisplayableObjectContainer@@@ 0046d214     PlayingCardsDemo.obj
 0002:0000f220       ??_C@_06OIOKNNNI@Tokens@   0046d220     PlayingCardsDemo.obj
 0002:0000f22c       ??_7CardContainer@@6BDragableBaseClassObject@@@ 0046d22c     PlayingCardsDemo.obj
 0002:0000f288       ??_7CardContainer@@6BDisplayableObjectContainer@@@ 0046d288     PlayingCardsDemo.obj
 0002:0000f294       ??_C@_07PDLKMNNH@Shuffle@  0046d294     PlayingCardsDemo.obj
 0002:0000f2a0       ??_C@_04HMPDNAFK@Draw@     0046d2a0     PlayingCardsDemo.obj
 0002:0000f2a8       ??_C@_07KLFFMLGM@DISCARD@  0046d2a8     PlayingCardsDemo.obj
 0002:0000f2b4       ??_C@_04FJDFPLDD@DECK@     0046d2b4     PlayingCardsDemo.obj
 0002:0000f2c0       ??_7CoordinateMappingRotateAndColour@@6B@ 0046d2c0     PlayingCardsDemo.obj
 0002:0000f2d4       ??_7CardOrTile@@6BDragableBaseClassObject@@@ 0046d2d4     PlayingCardsDemo.obj
 0002:0000f330       ??_7CardOrTile@@6BDisplayableObjectContainer@@@ 0046d330     PlayingCardsDemo.obj
 0002:0000f33c       ??_C@_04IPBPFFEL@Load@     0046d33c     PlayingCardsDemo.obj
 0002:0000f344       ??_C@_06CMLPEGNC@Failed@   0046d344     PlayingCardsDemo.obj
 0002:0000f350       __real@406fe00000000000    0046d350     PlayingCardsDemo.obj
 0002:00010214       ??_7StarfieldDemo@@6BDisplayableObjectContainer@@@ 0046e214     StarfieldDemo.obj
 0002:000102c0       ??_7StarfieldDemo@@6BFilterPoints@@@ 0046e2c0     StarfieldDemo.obj
 0002:00010880       ??_7StartupState@@6BEngineState@@@ 0046e880     StartupState.obj
 0002:000108ac       ??_7StartupState@@6BCoordinateMapping@@@ 0046e8ac     StartupState.obj
 0002:000108bc       ??_7GlowingTextObject@@6B@ 0046e8bc     StartupState.obj
 0002:00010900       __real@40af400000000000    0046e900     StartupState.obj
 0002:00011294       ??_7BouncingBall@@6B@      0046f294     BouncingBall.obj
 0002:000112d8       ??_7BouncingBall1@@6B@     0046f2d8     BouncingBall.obj
 0002:0001131c       ??_7BouncingBall2@@6B@     0046f31c     BouncingBall.obj
 0002:00011360       __real@3f847ae147ae147b    0046f360     BouncingBall.obj
 0002:00011877       ??_C@_00CNPNBAHC@@         0046f877     BouncingBallMain.obj
 0002:00011878       ??_C@_01IPJKGB@?$CD@       0046f878     BouncingBallMain.obj
 0002:0001187c       ??_C@_02KLCDNAMD@?$CDS@    0046f87c     BouncingBallMain.obj
 0002:00011880       ??_C@_02LCDIOBIC@?$CDR@    0046f880     BouncingBallMain.obj
 0002:00011888       __real@3fe999999999999a    0046f888     BouncingBallMain.obj
 0002:00011898       __real@3ff199999999999a    0046f898     BouncingBallMain.obj
 0002:000118a8       __real@3ff3333333333333    0046f8a8     BouncingBallMain.obj
 0002:000118b8       __real@4049000000000000    0046f8b8     BouncingBallMain.obj
 0002:000118c8       __real@4062c00000000000    0046f8c8     BouncingBallMain.obj
 0002:000118d8       __real@4066800000000000    0046f8d8     BouncingBallMain.obj
 0002:000118e8       __real@4069000000000000    0046f8e8     BouncingBallMain.obj
 0002:000118f8       __real@406f400000000000    0046f8f8     BouncingBallMain.obj
 0002:00011908       __real@4071300000000000    0046f908     BouncingBallMain.obj
 0002:00011918       __real@4072c00000000000    0046f918     BouncingBallMain.obj
 0002:00011928       __real@4074500000000000    0046f928     BouncingBallMain.obj
 0002:00011938       __real@4075e00000000000    0046f938     BouncingBallMain.obj
 0002:00011948       __real@4077700000000000    0046f948     BouncingBallMain.obj
 0002:00011958       __real@4079a00000000000    0046f958     BouncingBallMain.obj
 0002:00011968       __real@407c200000000000    0046f968     BouncingBallMain.obj
 0002:00011978       __real@4081300000000000    0046f978     BouncingBallMain.obj
 0002:00011988       __real@4082c00000000000    0046f988     BouncingBallMain.obj
 0002:00011998       __real@4084500000000000    0046f998     BouncingBallMain.obj
 0002:000119a8       __real@4087700000000000    0046f9a8     BouncingBallMain.obj
 0002:00011f18       ??_7SimpleFlashingDragableImageObject@@6B@ 0046ff18     ZoomingDemo.obj
 0002:00012548       ??_7MazeDemoTileManager@@6B@ 00470548     MazeDemoMain.obj
 0002:00012558       ??_7MazeDemoMain@@6BDisplayableObjectContainer@@@ 00470558     MazeDemoMain.obj
 0002:00012604       ??_7MazeDemoMain@@6BFilterPoints@@@ 00470604     MazeDemoMain.obj
 0002:00012ae4       ??_7MazeDemoObject@@6B@    00470ae4     MazeDemoObject.obj
 0002:00012fe8       ??_C@_0DO@NMAMPKB@d?3?2agent?2_work?24?2s?2src?2vctools?2@ 00470fe8     msvcprtd:locale0_implib.obj
 0002:00013038       ??_7type_info@@6B@         00471038     MSVCRTD:std_type_info_static.obj
 0002:00013040       ??_C@_0P@GHFPNOJB@bad?5allocation@ 00471040     MSVCRTD:throw_bad_alloc.obj
 0002:00013060       ??_C@_0BJ@HFNMHALN@Out?5of?5memory?5?9?5aborting@ 00471060     SDL2main:SDL_windows_main.obj
 0002:00013080       ??_C@_0M@HFFOIJBL@Fatal?5Error@ 00471080     SDL2main:SDL_windows_main.obj
 0002:000130c8       __load_config_used         004710c8     MSVCRTD:loadcfg.obj
 0002:00013400       ??_R4exception@std@@6B@    00471400     LoseGameState.obj
 0002:00013418       ??_R3exception@std@@8      00471418     LoseGameState.obj
 0002:0001342c       ??_R2exception@std@@8      0047142c     LoseGameState.obj
 0002:00013434       ??_R1A@?0A@EA@exception@std@@8 00471434     LoseGameState.obj
 0002:00013458       ??_R4bad_alloc@std@@6B@    00471458     LoseGameState.obj
 0002:00013470       ??_R3bad_alloc@std@@8      00471470     LoseGameState.obj
 0002:00013484       ??_R2bad_alloc@std@@8      00471484     LoseGameState.obj
 0002:00013490       ??_R1A@?0A@EA@bad_alloc@std@@8 00471490     LoseGameState.obj
 0002:000134b4       ??_R4bad_array_new_length@std@@6B@ 004714b4     LoseGameState.obj
 0002:000134cc       ??_R3bad_array_new_length@std@@8 004714cc     LoseGameState.obj
 0002:000134e0       ??_R2bad_array_new_length@std@@8 004714e0     LoseGameState.obj
 0002:000134f0       ??_R1A@?0A@EA@bad_array_new_length@std@@8 004714f0     LoseGameState.obj
 0002:00013514       ??_R3_Ref_count_base@std@@8 00471514     LoseGameState.obj
 0002:00013528       ??_R2_Ref_count_base@std@@8 00471528     LoseGameState.obj
 0002:00013530       ??_R1A@?0A@EA@_Ref_count_base@std@@8 00471530     LoseGameState.obj
 0002:00013554       ??_R4CoordinateMapping@@6B@ 00471554     LoseGameState.obj
 0002:0001356c       ??_R3CoordinateMapping@@8  0047156c     LoseGameState.obj
 0002:00013580       ??_R2CoordinateMapping@@8  00471580     LoseGameState.obj
 0002:00013588       ??_R1A@?0A@EA@CoordinateMapping@@8 00471588     LoseGameState.obj
 0002:000135ac       ??_R4LoseGameState@@6B@    004715ac     LoseGameState.obj
 0002:000135c4       ??_R3LoseGameState@@8      004715c4     LoseGameState.obj
 0002:000135d8       ??_R2LoseGameState@@8      004715d8     LoseGameState.obj
 0002:000135e4       ??_R1A@?0A@EA@LoseGameState@@8 004715e4     LoseGameState.obj
 0002:00013608       ??_R1A@?0A@EA@EngineState@@8 00471608     LoseGameState.obj
 0002:0001362c       ??_R3EngineState@@8        0047162c     LoseGameState.obj
 0002:00013640       ??_R2EngineState@@8        00471640     LoseGameState.obj
 0002:00013648       ??_R4SimpleTextObject@@6B@ 00471648     LoseGameState.obj
 0002:00013660       ??_R3SimpleTextObject@@8   00471660     LoseGameState.obj
 0002:00013674       ??_R2SimpleTextObject@@8   00471674     LoseGameState.obj
 0002:00013680       ??_R1A@?0A@EA@SimpleTextObject@@8 00471680     LoseGameState.obj
 0002:000136a4       ??_R1A@?0A@EA@DisplayableObject@@8 004716a4     LoseGameState.obj
 0002:000136c8       ??_R3DisplayableObject@@8  004716c8     LoseGameState.obj
 0002:000136dc       ??_R2DisplayableObject@@8  004716dc     LoseGameState.obj
 0002:000136e4       ??_R4ScrollingTextObject@@6B@ 004716e4     LoseGameState.obj
 0002:000136fc       ??_R3ScrollingTextObject@@8 004716fc     LoseGameState.obj
 0002:00013710       ??_R2ScrollingTextObject@@8 00471710     LoseGameState.obj
 0002:00013720       ??_R1A@?0A@EA@ScrollingTextObject@@8 00471720     LoseGameState.obj
 0002:00013744       ??_R4DragableBaseClassObject@@6B@ 00471744     LoseGameState.obj
 0002:0001375c       ??_R3DragableBaseClassObject@@8 0047175c     LoseGameState.obj
 0002:00013770       ??_R2DragableBaseClassObject@@8 00471770     LoseGameState.obj
 0002:0001377c       ??_R1A@?0A@EA@DragableBaseClassObject@@8 0047177c     LoseGameState.obj
 0002:000137a0       ??_R4DragableImageObject@@6B@ 004717a0     LoseGameState.obj
 0002:000137b8       ??_R3DragableImageObject@@8 004717b8     LoseGameState.obj
 0002:000137cc       ??_R2DragableImageObject@@8 004717cc     LoseGameState.obj
 0002:000137dc       ??_R1A@?0A@EA@DragableImageObject@@8 004717dc     LoseGameState.obj
 0002:00013800       ??_R4MappableImageObject@@6B@ 00471800     LoseGameState.obj
 0002:00013818       ??_R3MappableImageObject@@8 00471818     LoseGameState.obj
 0002:0001382c       ??_R2MappableImageObject@@8 0047182c     LoseGameState.obj
 0002:00013840       ??_R1A@?0A@EA@MappableImageObject@@8 00471840     LoseGameState.obj
 0002:00013864       ??_R4CoordinateMappingRotate@@6B@ 00471864     LoseGameState.obj
 0002:0001387c       ??_R3CoordinateMappingRotate@@8 0047187c     LoseGameState.obj
 0002:00013890       ??_R2CoordinateMappingRotate@@8 00471890     LoseGameState.obj
 0002:0001389c       ??_R1A@?0A@EA@CoordinateMappingRotate@@8 0047189c     LoseGameState.obj
 0002:000138c0       ??_R4GameImageObject@@6BMappableImageObject@@@ 004718c0     LoseGameState.obj
 0002:000138d8       ??_R3GameImageObject@@8    004718d8     LoseGameState.obj
 0002:000138ec       ??_R2GameImageObject@@8    004718ec     LoseGameState.obj
 0002:0001390c       ??_R1A@?0A@EA@GameImageObject@@8 0047190c     LoseGameState.obj
 0002:00013930       ??_R1FA@?0A@EA@CoordinateMapping@@8 00471930     LoseGameState.obj
 0002:00013954       ??_R4GameImageObject@@6BCoordinateMapping@@@ 00471954     LoseGameState.obj
 0002:0001396c       ??_R4?$_Ref_count@VRawImageData@@@std@@6B@ 0047196c     LoseGameState.obj
 0002:00013984       ??_R3?$_Ref_count@VRawImageData@@@std@@8 00471984     LoseGameState.obj
 0002:00013998       ??_R2?$_Ref_count@VRawImageData@@@std@@8 00471998     LoseGameState.obj
 0002:000139a4       ??_R1A@?0A@EA@?$_Ref_count@VRawImageData@@@std@@8 004719a4     LoseGameState.obj
 0002:000139c8       ??_R4FilterPoints@@6B@     004719c8     ZoomInFirstState.obj
 0002:000139e0       ??_R3FilterPoints@@8       004719e0     ZoomInFirstState.obj
 0002:000139f4       ??_R2FilterPoints@@8       004719f4     ZoomInFirstState.obj
 0002:000139fc       ??_R1A@?0A@EA@FilterPoints@@8 004719fc     ZoomInFirstState.obj
 0002:00013a20       ??_R4FilterPointsScaling@@6B@ 00471a20     ZoomInFirstState.obj
 0002:00013a38       ??_R3FilterPointsScaling@@8 00471a38     ZoomInFirstState.obj
 0002:00013a4c       ??_R2FilterPointsScaling@@8 00471a4c     ZoomInFirstState.obj
 0002:00013a58       ??_R1A@?0A@EA@FilterPointsScaling@@8 00471a58     ZoomInFirstState.obj
 0002:00013a7c       ??_R4FilterPointsTranslation@@6B@ 00471a7c     ZoomInFirstState.obj
 0002:00013a94       ??_R3FilterPointsTranslation@@8 00471a94     ZoomInFirstState.obj
 0002:00013aa8       ??_R2FilterPointsTranslation@@8 00471aa8     ZoomInFirstState.obj
 0002:00013ab4       ??_R1A@?0A@EA@FilterPointsTranslation@@8 00471ab4     ZoomInFirstState.obj
 0002:00013ad8       ??_R4ZoomInFirstState@@6B@ 00471ad8     ZoomInFirstState.obj
 0002:00013af0       ??_R3ZoomInFirstState@@8   00471af0     ZoomInFirstState.obj
 0002:00013b04       ??_R2ZoomInFirstState@@8   00471b04     ZoomInFirstState.obj
 0002:00013b10       ??_R1A@?0A@EA@ZoomInFirstState@@8 00471b10     ZoomInFirstState.obj
 0002:00013b34       ??_R4ZoomInState@@6B@      00471b34     ZoomInState.obj
 0002:00013b4c       ??_R3ZoomInState@@8        00471b4c     ZoomInState.obj
 0002:00013b60       ??_R2ZoomInState@@8        00471b60     ZoomInState.obj
 0002:00013b6c       ??_R1A@?0A@EA@ZoomInState@@8 00471b6c     ZoomInState.obj
 0002:00013b90       ??_R4ZoomOutState@@6B@     00471b90     ZoomOutState.obj
 0002:00013ba8       ??_R3ZoomOutState@@8       00471ba8     ZoomOutState.obj
 0002:00013bbc       ??_R2ZoomOutState@@8       00471bbc     ZoomOutState.obj
 0002:00013bc8       ??_R1A@?0A@EA@ZoomOutState@@8 00471bc8     ZoomOutState.obj
 0002:00013bec       ??_R4ControlsState@@6B@    00471bec     ControlsState.obj
 0002:00013c04       ??_R3ControlsState@@8      00471c04     ControlsState.obj
 0002:00013c18       ??_R2ControlsState@@8      00471c18     ControlsState.obj
 0002:00013c24       ??_R1A@?0A@EA@ControlsState@@8 00471c24     ControlsState.obj
 0002:00013c48       ??_R4WinGameState@@6B@     00471c48     WinGameState.obj
 0002:00013c60       ??_R3WinGameState@@8       00471c60     WinGameState.obj
 0002:00013c74       ??_R2WinGameState@@8       00471c74     WinGameState.obj
 0002:00013c80       ??_R1A@?0A@EA@WinGameState@@8 00471c80     WinGameState.obj
 0002:00013ca4       ??_R4?$basic_filebuf@DU?$char_traits@D@std@@@std@@6B@ 00471ca4     EzyjddEngineCW4.obj
 0002:00013cbc       ??_R3?$basic_filebuf@DU?$char_traits@D@std@@@std@@8 00471cbc     EzyjddEngineCW4.obj
 0002:00013cd0       ??_R2?$basic_filebuf@DU?$char_traits@D@std@@@std@@8 00471cd0     EzyjddEngineCW4.obj
 0002:00013cdc       ??_R1A@?0A@EA@?$basic_filebuf@DU?$char_traits@D@std@@@std@@8 00471cdc     EzyjddEngineCW4.obj
 0002:00013d00       ??_R1A@?0A@EA@?$basic_streambuf@DU?$char_traits@D@std@@@std@@8 00471d00     EzyjddEngineCW4.obj
 0002:00013d24       ??_R3?$basic_streambuf@DU?$char_traits@D@std@@@std@@8 00471d24     EzyjddEngineCW4.obj
 0002:00013d38       ??_R2?$basic_streambuf@DU?$char_traits@D@std@@@std@@8 00471d38     EzyjddEngineCW4.obj
 0002:00013d40       ??_R4?$basic_fstream@DU?$char_traits@D@std@@@std@@6B@ 00471d40     EzyjddEngineCW4.obj
 0002:00013d58       ??_R3?$basic_fstream@DU?$char_traits@D@std@@@std@@8 00471d58     EzyjddEngineCW4.obj
 0002:00013d6c       ??_R2?$basic_fstream@DU?$char_traits@D@std@@@std@@8 00471d6c     EzyjddEngineCW4.obj
 0002:00013da0       ??_R1A@?0A@EA@?$basic_fstream@DU?$char_traits@D@std@@@std@@8 00471da0     EzyjddEngineCW4.obj
 0002:00013dc4       ??_R1A@?0A@EA@?$basic_iostream@DU?$char_traits@D@std@@@std@@8 00471dc4     EzyjddEngineCW4.obj
 0002:00013de8       ??_R3?$basic_iostream@DU?$char_traits@D@std@@@std@@8 00471de8     EzyjddEngineCW4.obj
 0002:00013dfc       ??_R2?$basic_iostream@DU?$char_traits@D@std@@@std@@8 00471dfc     EzyjddEngineCW4.obj
 0002:00013e28       ??_R1A@?0A@EA@?$basic_istream@DU?$char_traits@D@std@@@std@@8 00471e28     EzyjddEngineCW4.obj
 0002:00013e4c       ??_R3?$basic_istream@DU?$char_traits@D@std@@@std@@8 00471e4c     EzyjddEngineCW4.obj
 0002:00013e60       ??_R2?$basic_istream@DU?$char_traits@D@std@@@std@@8 00471e60     EzyjddEngineCW4.obj
 0002:00013e74       ??_R1A@A@3FA@?$basic_ios@DU?$char_traits@D@std@@@std@@8 00471e74     EzyjddEngineCW4.obj
 0002:00013e98       ??_R3?$basic_ios@DU?$char_traits@D@std@@@std@@8 00471e98     EzyjddEngineCW4.obj
 0002:00013eac       ??_R2?$basic_ios@DU?$char_traits@D@std@@@std@@8 00471eac     EzyjddEngineCW4.obj
 0002:00013ebc       ??_R1A@?0A@EA@?$basic_ios@DU?$char_traits@D@std@@@std@@8 00471ebc     EzyjddEngineCW4.obj
 0002:00013ee0       ??_R1A@?0A@EA@ios_base@std@@8 00471ee0     EzyjddEngineCW4.obj
 0002:00013f04       ??_R3ios_base@std@@8       00471f04     EzyjddEngineCW4.obj
 0002:00013f18       ??_R2ios_base@std@@8       00471f18     EzyjddEngineCW4.obj
 0002:00013f24       ??_R17?0A@EA@?$_Iosb@H@std@@8 00471f24     EzyjddEngineCW4.obj
 0002:00013f48       ??_R3?$_Iosb@H@std@@8      00471f48     EzyjddEngineCW4.obj
 0002:00013f5c       ??_R2?$_Iosb@H@std@@8      00471f5c     EzyjddEngineCW4.obj
 0002:00013f64       ??_R1A@?0A@EA@?$_Iosb@H@std@@8 00471f64     EzyjddEngineCW4.obj
 0002:00013f88       ??_R1A@A@3EA@ios_base@std@@8 00471f88     EzyjddEngineCW4.obj
 0002:00013fac       ??_R17A@3EA@?$_Iosb@H@std@@8 00471fac     EzyjddEngineCW4.obj
 0002:00013fd0       ??_R1BA@?0A@EA@?$basic_ostream@DU?$char_traits@D@std@@@std@@8 00471fd0     EzyjddEngineCW4.obj
 0002:00013ff4       ??_R3?$basic_ostream@DU?$char_traits@D@std@@@std@@8 00471ff4     EzyjddEngineCW4.obj
 0002:00014008       ??_R2?$basic_ostream@DU?$char_traits@D@std@@@std@@8 00472008     EzyjddEngineCW4.obj
 0002:0001401c       ??_R1A@?0A@EA@?$basic_ostream@DU?$char_traits@D@std@@@std@@8 0047201c     EzyjddEngineCW4.obj
 0002:00014040       ??_R4bad_cast@std@@6B@     00472040     EzyjddEngineCW4.obj
 0002:00014058       ??_R3bad_cast@std@@8       00472058     EzyjddEngineCW4.obj
 0002:0001406c       ??_R2bad_cast@std@@8       0047206c     EzyjddEngineCW4.obj
 0002:00014078       ??_R1A@?0A@EA@bad_cast@std@@8 00472078     EzyjddEngineCW4.obj
 0002:0001409c       ??_R3DisplayableObjectContainer@@8 0047209c     EzyjddEngineCW4.obj
 0002:000140b0       ??_R2DisplayableObjectContainer@@8 004720b0     EzyjddEngineCW4.obj
 0002:000140b8       ??_R1A@?0A@EA@DisplayableObjectContainer@@8 004720b8     EzyjddEngineCW4.obj
 0002:000140dc       ??_R4EzyjddEngineCW4@@6BDisplayableObjectContainer@@@ 004720dc     EzyjddEngineCW4.obj
 0002:000140f4       ??_R3EzyjddEngineCW4@@8    004720f4     EzyjddEngineCW4.obj
 0002:00014108       ??_R2EzyjddEngineCW4@@8    00472108     EzyjddEngineCW4.obj
 0002:0001411c       ??_R1A@?0A@EA@EzyjddEngineCW4@@8 0047211c     EzyjddEngineCW4.obj
 0002:00014140       ??_R1A@?0A@EA@BaseEngine@@8 00472140     EzyjddEngineCW4.obj
 0002:00014164       ??_R3BaseEngine@@8         00472164     EzyjddEngineCW4.obj
 0002:00014178       ??_R2BaseEngine@@8         00472178     EzyjddEngineCW4.obj
 0002:00014188       ??_R1BM@?0A@EA@FilterPoints@@8 00472188     EzyjddEngineCW4.obj
 0002:000141ac       ??_R4EzyjddEngineCW4@@6BFilterPoints@@@ 004721ac     EzyjddEngineCW4.obj
 0002:000141c4       ??_R4?$_Ref_count_obj2@VStartupState@@@std@@6B@ 004721c4     EzyjddEngineCW4.obj
 0002:000141dc       ??_R3?$_Ref_count_obj2@VStartupState@@@std@@8 004721dc     EzyjddEngineCW4.obj
 0002:000141f0       ??_R2?$_Ref_count_obj2@VStartupState@@@std@@8 004721f0     EzyjddEngineCW4.obj
 0002:000141fc       ??_R1A@?0A@EA@?$_Ref_count_obj2@VStartupState@@@std@@8 004721fc     EzyjddEngineCW4.obj
 0002:00014220       ??_R4?$_Ref_count_obj2@VInstructionsState@@@std@@6B@ 00472220     EzyjddEngineCW4.obj
 0002:00014238       ??_R3?$_Ref_count_obj2@VInstructionsState@@@std@@8 00472238     EzyjddEngineCW4.obj
 0002:0001424c       ??_R2?$_Ref_count_obj2@VInstructionsState@@@std@@8 0047224c     EzyjddEngineCW4.obj
 0002:00014258       ??_R1A@?0A@EA@?$_Ref_count_obj2@VInstructionsState@@@std@@8 00472258     EzyjddEngineCW4.obj
 0002:0001427c       ??_R4?$_Ref_count_obj2@VControlsState@@@std@@6B@ 0047227c     EzyjddEngineCW4.obj
 0002:00014294       ??_R3?$_Ref_count_obj2@VControlsState@@@std@@8 00472294     EzyjddEngineCW4.obj
 0002:000142a8       ??_R2?$_Ref_count_obj2@VControlsState@@@std@@8 004722a8     EzyjddEngineCW4.obj
 0002:000142b4       ??_R1A@?0A@EA@?$_Ref_count_obj2@VControlsState@@@std@@8 004722b4     EzyjddEngineCW4.obj
 0002:000142d8       ??_R4?$_Ref_count_obj2@VLevelInstructionsState@@@std@@6B@ 004722d8     EzyjddEngineCW4.obj
 0002:000142f0       ??_R3?$_Ref_count_obj2@VLevelInstructionsState@@@std@@8 004722f0     EzyjddEngineCW4.obj
 0002:00014304       ??_R2?$_Ref_count_obj2@VLevelInstructionsState@@@std@@8 00472304     EzyjddEngineCW4.obj
 0002:00014310       ??_R1A@?0A@EA@?$_Ref_count_obj2@VLevelInstructionsState@@@std@@8 00472310     EzyjddEngineCW4.obj
 0002:00014334       ??_R4?$_Ref_count_obj2@VRunningState@@@std@@6B@ 00472334     EzyjddEngineCW4.obj
 0002:0001434c       ??_R3?$_Ref_count_obj2@VRunningState@@@std@@8 0047234c     EzyjddEngineCW4.obj
 0002:00014360       ??_R2?$_Ref_count_obj2@VRunningState@@@std@@8 00472360     EzyjddEngineCW4.obj
 0002:0001436c       ??_R1A@?0A@EA@?$_Ref_count_obj2@VRunningState@@@std@@8 0047236c     EzyjddEngineCW4.obj
 0002:00014390       ??_R4?$_Ref_count_obj2@VZoomInFirstState@@@std@@6B@ 00472390     EzyjddEngineCW4.obj
 0002:000143a8       ??_R3?$_Ref_count_obj2@VZoomInFirstState@@@std@@8 004723a8     EzyjddEngineCW4.obj
 0002:000143bc       ??_R2?$_Ref_count_obj2@VZoomInFirstState@@@std@@8 004723bc     EzyjddEngineCW4.obj
 0002:000143c8       ??_R1A@?0A@EA@?$_Ref_count_obj2@VZoomInFirstState@@@std@@8 004723c8     EzyjddEngineCW4.obj
 0002:000143ec       ??_R4?$_Ref_count_obj2@VZoomInState@@@std@@6B@ 004723ec     EzyjddEngineCW4.obj
 0002:00014404       ??_R3?$_Ref_count_obj2@VZoomInState@@@std@@8 00472404     EzyjddEngineCW4.obj
 0002:00014418       ??_R2?$_Ref_count_obj2@VZoomInState@@@std@@8 00472418     EzyjddEngineCW4.obj
 0002:00014424       ??_R1A@?0A@EA@?$_Ref_count_obj2@VZoomInState@@@std@@8 00472424     EzyjddEngineCW4.obj
 0002:00014448       ??_R4?$_Ref_count_obj2@VZoomOutState@@@std@@6B@ 00472448     EzyjddEngineCW4.obj
 0002:00014460       ??_R3?$_Ref_count_obj2@VZoomOutState@@@std@@8 00472460     EzyjddEngineCW4.obj
 0002:00014474       ??_R2?$_Ref_count_obj2@VZoomOutState@@@std@@8 00472474     EzyjddEngineCW4.obj
 0002:00014480       ??_R1A@?0A@EA@?$_Ref_count_obj2@VZoomOutState@@@std@@8 00472480     EzyjddEngineCW4.obj
 0002:000144a4       ??_R4?$_Ref_count_obj2@VPausedState@@@std@@6B@ 004724a4     EzyjddEngineCW4.obj
 0002:000144bc       ??_R3?$_Ref_count_obj2@VPausedState@@@std@@8 004724bc     EzyjddEngineCW4.obj
 0002:000144d0       ??_R2?$_Ref_count_obj2@VPausedState@@@std@@8 004724d0     EzyjddEngineCW4.obj
 0002:000144dc       ??_R1A@?0A@EA@?$_Ref_count_obj2@VPausedState@@@std@@8 004724dc     EzyjddEngineCW4.obj
 0002:00014500       ??_R4?$_Ref_count_obj2@VHighScoresState@@@std@@6B@ 00472500     EzyjddEngineCW4.obj
 0002:00014518       ??_R3?$_Ref_count_obj2@VHighScoresState@@@std@@8 00472518     EzyjddEngineCW4.obj
 0002:0001452c       ??_R2?$_Ref_count_obj2@VHighScoresState@@@std@@8 0047252c     EzyjddEngineCW4.obj
 0002:00014538       ??_R1A@?0A@EA@?$_Ref_count_obj2@VHighScoresState@@@std@@8 00472538     EzyjddEngineCW4.obj
 0002:0001455c       ??_R4?$_Ref_count_obj2@VWinGameState@@@std@@6B@ 0047255c     EzyjddEngineCW4.obj
 0002:00014574       ??_R3?$_Ref_count_obj2@VWinGameState@@@std@@8 00472574     EzyjddEngineCW4.obj
 0002:00014588       ??_R2?$_Ref_count_obj2@VWinGameState@@@std@@8 00472588     EzyjddEngineCW4.obj
 0002:00014594       ??_R1A@?0A@EA@?$_Ref_count_obj2@VWinGameState@@@std@@8 00472594     EzyjddEngineCW4.obj
 0002:000145b8       ??_R4?$_Ref_count_obj2@VLoseGameState@@@std@@6B@ 004725b8     EzyjddEngineCW4.obj
 0002:000145d0       ??_R3?$_Ref_count_obj2@VLoseGameState@@@std@@8 004725d0     EzyjddEngineCW4.obj
 0002:000145e4       ??_R2?$_Ref_count_obj2@VLoseGameState@@@std@@8 004725e4     EzyjddEngineCW4.obj
 0002:000145f0       ??_R1A@?0A@EA@?$_Ref_count_obj2@VLoseGameState@@@std@@8 004725f0     EzyjddEngineCW4.obj
 0002:00014614       ??_R4EngineState@@6B@      00472614     EngineState.obj
 0002:0001462c       ??_R4DragableObject@@6B@   0047262c     DraggingDemo.obj
 0002:00014644       ??_R3DragableObject@@8     00472644     DraggingDemo.obj
 0002:00014658       ??_R2DragableObject@@8     00472658     DraggingDemo.obj
 0002:00014668       ??_R1A@?0A@EA@DragableObject@@8 00472668     DraggingDemo.obj
 0002:0001468c       ??_R4ImageObject@@6B@      0047268c     DraggingDemo.obj
 0002:000146a4       ??_R3ImageObject@@8        004726a4     DraggingDemo.obj
 0002:000146b8       ??_R2ImageObject@@8        004726b8     DraggingDemo.obj
 0002:000146c4       ??_R1A@?0A@EA@ImageObject@@8 004726c4     DraggingDemo.obj
 0002:000146e8       ??_R4FlashingDemo@@6BDisplayableObjectContainer@@@ 004726e8     FlashingDemo.obj
 0002:00014700       ??_R3FlashingDemo@@8       00472700     FlashingDemo.obj
 0002:00014714       ??_R2FlashingDemo@@8       00472714     FlashingDemo.obj
 0002:00014728       ??_R1A@?0A@EA@FlashingDemo@@8 00472728     FlashingDemo.obj
 0002:0001474c       ??_R4FlashingDemo@@6BFilterPoints@@@ 0047274c     FlashingDemo.obj
 0002:00014764       ??_R4HighScoresState@@6B@  00472764     HighScoresState.obj
 0002:0001477c       ??_R3HighScoresState@@8    0047277c     HighScoresState.obj
 0002:00014790       ??_R2HighScoresState@@8    00472790     HighScoresState.obj
 0002:0001479c       ??_R1A@?0A@EA@HighScoresState@@8 0047279c     HighScoresState.obj
 0002:000147c0       ??_R4BouncingObject@@6B@   004727c0     ImageObjectDemo.obj
 0002:000147d8       ??_R3BouncingObject@@8     004727d8     ImageObjectDemo.obj
 0002:000147ec       ??_R2BouncingObject@@8     004727ec     ImageObjectDemo.obj
 0002:000147f8       ??_R1A@?0A@EA@BouncingObject@@8 004727f8     ImageObjectDemo.obj
 0002:0001481c       ??_R4BouncingImageObject@@6B@ 0047281c     ImageObjectDemo.obj
 0002:00014834       ??_R3BouncingImageObject@@8 00472834     ImageObjectDemo.obj
 0002:00014848       ??_R2BouncingImageObject@@8 00472848     ImageObjectDemo.obj
 0002:00014858       ??_R1A@?0A@EA@BouncingImageObject@@8 00472858     ImageObjectDemo.obj
 0002:0001487c       ??_R4InstructionsState@@6B@ 0047287c     InstructionsState.obj
 0002:00014894       ??_R3InstructionsState@@8  00472894     InstructionsState.obj
 0002:000148a8       ??_R2InstructionsState@@8  004728a8     InstructionsState.obj
 0002:000148b4       ??_R1A@?0A@EA@InstructionsState@@8 004728b4     InstructionsState.obj
 0002:000148d8       ??_R3?$_Func_base@XPAVDisplayableObject@@@std@@8 004728d8     JigsawDemo.obj
 0002:000148ec       ??_R2?$_Func_base@XPAVDisplayableObject@@@std@@8 004728ec     JigsawDemo.obj
 0002:000148f4       ??_R1A@?0A@EA@?$_Func_base@XPAVDisplayableObject@@@std@@8 004728f4     JigsawDemo.obj
 0002:00014918       ??_R4JigsawPiece@@6BDragableImageObject@@@ 00472918     JigsawDemo.obj
 0002:00014930       ??_R3JigsawPiece@@8        00472930     JigsawDemo.obj
 0002:00014944       ??_R2JigsawPiece@@8        00472944     JigsawDemo.obj
 0002:00014960       ??_R1A@?0A@EA@JigsawPiece@@8 00472960     JigsawDemo.obj
 0002:00014984       ??_R1EM@?0A@EA@CoordinateMapping@@8 00472984     JigsawDemo.obj
 0002:000149a8       ??_R4JigsawPiece@@6BCoordinateMapping@@@ 004729a8     JigsawDemo.obj
 0002:000149c0       ??_R4?$_Func_impl_no_alloc@V<lambda_2870de01b601283699da779de20905fc>@@XPAVDisplayableObject@@@std@@6B@ 004729c0     JigsawDemo.obj
 0002:000149d8       ??_R3?$_Func_impl_no_alloc@V<lambda_2870de01b601283699da779de20905fc>@@XPAVDisplayableObject@@@std@@8 004729d8     JigsawDemo.obj
 0002:000149ec       ??_R2?$_Func_impl_no_alloc@V<lambda_2870de01b601283699da779de20905fc>@@XPAVDisplayableObject@@@std@@8 004729ec     JigsawDemo.obj
 0002:000149f8       ??_R1A@?0A@EA@?$_Func_impl_no_alloc@V<lambda_2870de01b601283699da779de20905fc>@@XPAVDisplayableObject@@@std@@8 004729f8     JigsawDemo.obj
 0002:00014a1c       ??_R4?$_Func_impl_no_alloc@V<lambda_4d3c514b9e5ad6cc29096aa3b57f98f2>@@XPAVDisplayableObject@@@std@@6B@ 00472a1c     JigsawDemo.obj
 0002:00014a34       ??_R3?$_Func_impl_no_alloc@V<lambda_4d3c514b9e5ad6cc29096aa3b57f98f2>@@XPAVDisplayableObject@@@std@@8 00472a34     JigsawDemo.obj
 0002:00014a48       ??_R2?$_Func_impl_no_alloc@V<lambda_4d3c514b9e5ad6cc29096aa3b57f98f2>@@XPAVDisplayableObject@@@std@@8 00472a48     JigsawDemo.obj
 0002:00014a54       ??_R1A@?0A@EA@?$_Func_impl_no_alloc@V<lambda_4d3c514b9e5ad6cc29096aa3b57f98f2>@@XPAVDisplayableObject@@@std@@8 00472a54     JigsawDemo.obj
 0002:00014a78       ??_R4?$_Func_impl_no_alloc@V<lambda_369f3aee610e50bbd15c3a78d9c8686f>@@XPAVDisplayableObject@@@std@@6B@ 00472a78     JigsawDemo.obj
 0002:00014a90       ??_R3?$_Func_impl_no_alloc@V<lambda_369f3aee610e50bbd15c3a78d9c8686f>@@XPAVDisplayableObject@@@std@@8 00472a90     JigsawDemo.obj
 0002:00014aa4       ??_R2?$_Func_impl_no_alloc@V<lambda_369f3aee610e50bbd15c3a78d9c8686f>@@XPAVDisplayableObject@@@std@@8 00472aa4     JigsawDemo.obj
 0002:00014ab0       ??_R1A@?0A@EA@?$_Func_impl_no_alloc@V<lambda_369f3aee610e50bbd15c3a78d9c8686f>@@XPAVDisplayableObject@@@std@@8 00472ab0     JigsawDemo.obj
 0002:00014ad4       ??_R4?$_Func_impl_no_alloc@V<lambda_817584b2460f1bcab806f46a25c321a8>@@XPAVDisplayableObject@@@std@@6B@ 00472ad4     JigsawDemo.obj
 0002:00014aec       ??_R3?$_Func_impl_no_alloc@V<lambda_817584b2460f1bcab806f46a25c321a8>@@XPAVDisplayableObject@@@std@@8 00472aec     JigsawDemo.obj
 0002:00014b00       ??_R2?$_Func_impl_no_alloc@V<lambda_817584b2460f1bcab806f46a25c321a8>@@XPAVDisplayableObject@@@std@@8 00472b00     JigsawDemo.obj
 0002:00014b0c       ??_R1A@?0A@EA@?$_Func_impl_no_alloc@V<lambda_817584b2460f1bcab806f46a25c321a8>@@XPAVDisplayableObject@@@std@@8 00472b0c     JigsawDemo.obj
 0002:00014b30       ??_R4?$_Func_impl_no_alloc@V<lambda_341a6657abb2758c42a6873833e6116f>@@XPAVDisplayableObject@@@std@@6B@ 00472b30     JigsawDemo.obj
 0002:00014b48       ??_R3?$_Func_impl_no_alloc@V<lambda_341a6657abb2758c42a6873833e6116f>@@XPAVDisplayableObject@@@std@@8 00472b48     JigsawDemo.obj
 0002:00014b5c       ??_R2?$_Func_impl_no_alloc@V<lambda_341a6657abb2758c42a6873833e6116f>@@XPAVDisplayableObject@@@std@@8 00472b5c     JigsawDemo.obj
 0002:00014b68       ??_R1A@?0A@EA@?$_Func_impl_no_alloc@V<lambda_341a6657abb2758c42a6873833e6116f>@@XPAVDisplayableObject@@@std@@8 00472b68     JigsawDemo.obj
 0002:00014ca0       ??_R4BaseEngine@@6BDisplayableObjectContainer@@@ 00472ca0     BaseEngine.obj
 0002:00014cb8       ??_R4BaseEngine@@6BFilterPoints@@@ 00472cb8     BaseEngine.obj
 0002:00014cd0       ??_R4DisplayableObjectContainer@@6B@ 00472cd0     BaseEngine.obj
 0002:00014ce8       ??_R4DisplayableObject@@6B@ 00472ce8     DisplayableObject.obj
 0002:00014d00       ??_R4PausedState@@6B@      00472d00     PausedState.obj
 0002:00014d18       ??_R3PausedState@@8        00472d18     PausedState.obj
 0002:00014d2c       ??_R2PausedState@@8        00472d2c     PausedState.obj
 0002:00014d38       ??_R1A@?0A@EA@PausedState@@8 00472d38     PausedState.obj
 0002:00014d5c       ??_R4CollidableInterface@@6B@ 00472d5c     RunningState.obj
 0002:00014d74       ??_R3CollidableInterface@@8 00472d74     RunningState.obj
 0002:00014d88       ??_R2CollidableInterface@@8 00472d88     RunningState.obj
 0002:00014d90       ??_R1A@?0A@EA@CollidableInterface@@8 00472d90     RunningState.obj
 0002:00014db4       ??_R4CollidableGameImageObject@@6BMappableImageObject@@@ 00472db4     RunningState.obj
 0002:00014dcc       ??_R3CollidableGameImageObject@@8 00472dcc     RunningState.obj
 0002:00014de0       ??_R2CollidableGameImageObject@@8 00472de0     RunningState.obj
 0002:00014e08       ??_R1A@?0A@EA@CollidableGameImageObject@@8 00472e08     RunningState.obj
 0002:00014e2c       ??_R1IA@?0A@EA@CollidableInterface@@8 00472e2c     RunningState.obj
 0002:00014e50       ??_R4CollidableGameImageObject@@6BCoordinateMapping@@@ 00472e50     RunningState.obj
 0002:00014e68       ??_R4CollidableGameImageObject@@6B@ 00472e68     RunningState.obj
 0002:00014e80       ??_R4CollisionCallbacks@@6B@ 00472e80     RunningState.obj
 0002:00014e98       ??_R3CollisionCallbacks@@8 00472e98     RunningState.obj
 0002:00014eac       ??_R2CollisionCallbacks@@8 00472eac     RunningState.obj
 0002:00014eb4       ??_R1A@?0A@EA@CollisionCallbacks@@8 00472eb4     RunningState.obj
 0002:00014ed8       ??_R4Ship@@6BMappableImageObject@@@ 00472ed8     RunningState.obj
 0002:00014ef0       ??_R3Ship@@8               00472ef0     RunningState.obj
 0002:00014f04       ??_R2Ship@@8               00472f04     RunningState.obj
 0002:00014f30       ??_R1A@?0A@EA@Ship@@8      00472f30     RunningState.obj
 0002:00014f54       ??_R4Ship@@6BCoordinateMapping@@@ 00472f54     RunningState.obj
 0002:00014f6c       ??_R4Ship@@6B@             00472f6c     RunningState.obj
 0002:00014f84       ??_R4Mine@@6BMappableImageObject@@@ 00472f84     RunningState.obj
 0002:00014f9c       ??_R3Mine@@8               00472f9c     RunningState.obj
 0002:00014fb0       ??_R2Mine@@8               00472fb0     RunningState.obj
 0002:00014fdc       ??_R1A@?0A@EA@Mine@@8      00472fdc     RunningState.obj
 0002:00015000       ??_R4Mine@@6BCoordinateMapping@@@ 00473000     RunningState.obj
 0002:00015018       ??_R4Mine@@6B@             00473018     RunningState.obj
 0002:00015030       ??_R4Missile@@6BDisplayableObject@@@ 00473030     RunningState.obj
 0002:00015048       ??_R3Missile@@8            00473048     RunningState.obj
 0002:0001505c       ??_R2Missile@@8            0047305c     RunningState.obj
 0002:0001506c       ??_R1A@?0A@EA@Missile@@8   0047306c     RunningState.obj
 0002:00015090       ??_R1CI@?0A@EA@CollidableInterface@@8 00473090     RunningState.obj
 0002:000150b4       ??_R4Missile@@6BCollidableInterface@@@ 004730b4     RunningState.obj
 0002:000150cc       ??_R4VirusCallbacks@@6B@   004730cc     RunningState.obj
 0002:000150e4       ??_R3VirusCallbacks@@8     004730e4     RunningState.obj
 0002:000150f8       ??_R2VirusCallbacks@@8     004730f8     RunningState.obj
 0002:00015100       ??_R1A@?0A@EA@VirusCallbacks@@8 00473100     RunningState.obj
 0002:00015124       ??_R4Virus@@6BMappableImageObject@@@ 00473124     RunningState.obj
 0002:0001513c       ??_R3Virus@@8              0047313c     RunningState.obj
 0002:00015150       ??_R2Virus@@8              00473150     RunningState.obj
 0002:00015174       ??_R1A@?0A@EA@Virus@@8     00473174     RunningState.obj
 0002:00015198       ??_R4Virus@@6BCoordinateMapping@@@ 00473198     RunningState.obj
 0002:000151b0       ??_R4RunningState@@6BEngineState@@@ 004731b0     RunningState.obj
 0002:000151c8       ??_R3RunningState@@8       004731c8     RunningState.obj
 0002:000151dc       ??_R2RunningState@@8       004731dc     RunningState.obj
 0002:000151f0       ??_R1A@?0A@EA@RunningState@@8 004731f0     RunningState.obj
 0002:00015214       ??_R17?0A@EA@CollisionCallbacks@@8 00473214     RunningState.obj
 0002:00015238       ??_R1M@?0A@EA@VirusCallbacks@@8 00473238     RunningState.obj
 0002:0001525c       ??_R4RunningState@@6BCollisionCallbacks@@@ 0047325c     RunningState.obj
 0002:00015274       ??_R4RunningState@@6BVirusCallbacks@@@ 00473274     RunningState.obj
 0002:0001528c       ??_R4LevelInstructionsState@@6B@ 0047328c     LevelInstructionsState.obj
 0002:000152a4       ??_R3LevelInstructionsState@@8 004732a4     LevelInstructionsState.obj
 0002:000152b8       ??_R2LevelInstructionsState@@8 004732b8     LevelInstructionsState.obj
 0002:000152c4       ??_R1A@?0A@EA@LevelInstructionsState@@8 004732c4     LevelInstructionsState.obj
 0002:000152e8       ??_R4FlashingTextObject@@6B@ 004732e8     LevelInstructionsState.obj
 0002:00015300       ??_R3FlashingTextObject@@8 00473300     LevelInstructionsState.obj
 0002:00015314       ??_R2FlashingTextObject@@8 00473314     LevelInstructionsState.obj
 0002:00015324       ??_R1A@?0A@EA@FlashingTextObject@@8 00473324     LevelInstructionsState.obj
 0002:00015348       ??_R4CroppedCoordinateMapping@@6B@ 00473348     SimpleImage.obj
 0002:00015360       ??_R3CroppedCoordinateMapping@@8 00473360     SimpleImage.obj
 0002:00015374       ??_R2CroppedCoordinateMapping@@8 00473374     SimpleImage.obj
 0002:00015380       ??_R1A@?0A@EA@CroppedCoordinateMapping@@8 00473380     SimpleImage.obj
 0002:000153a4       ??_R4JasonsDemoA@@6BDisplayableObjectContainer@@@ 004733a4     JasonsDemoA.obj
 0002:000153bc       ??_R3JasonsDemoA@@8        004733bc     JasonsDemoA.obj
 0002:000153d0       ??_R2JasonsDemoA@@8        004733d0     JasonsDemoA.obj
 0002:000153e4       ??_R1A@?0A@EA@JasonsDemoA@@8 004733e4     JasonsDemoA.obj
 0002:00015408       ??_R4JasonsDemoA@@6BFilterPoints@@@ 00473408     JasonsDemoA.obj
 0002:00015420       ??_R4JasonsObjectA@@6B@    00473420     JasonsObjectA.obj
 0002:00015438       ??_R3JasonsObjectA@@8      00473438     JasonsObjectA.obj
 0002:0001544c       ??_R2JasonsObjectA@@8      0047344c     JasonsObjectA.obj
 0002:00015458       ??_R1A@?0A@EA@JasonsObjectA@@8 00473458     JasonsObjectA.obj
 0002:0001547c       ??_R4TileManager@@6B@      0047347c     JasonsTileManager.obj
 0002:00015494       ??_R3TileManager@@8        00473494     JasonsTileManager.obj
 0002:000154a8       ??_R2TileManager@@8        004734a8     JasonsTileManager.obj
 0002:000154b0       ??_R1A@?0A@EA@TileManager@@8 004734b0     JasonsTileManager.obj
 0002:000154d4       ??_R4JasonsTileManager@@6B@ 004734d4     JasonsTileManager.obj
 0002:000154ec       ??_R3JasonsTileManager@@8  004734ec     JasonsTileManager.obj
 0002:00015500       ??_R2JasonsTileManager@@8  00473500     JasonsTileManager.obj
 0002:0001550c       ??_R1A@?0A@EA@JasonsTileManager@@8 0047350c     JasonsTileManager.obj
 0002:00015530       ??_R4DragableTokenContainer@@6BDragableBaseClassObject@@@ 00473530     PlayingCardsDemo.obj
 0002:00015548       ??_R3DragableTokenContainer@@8 00473548     PlayingCardsDemo.obj
 0002:0001555c       ??_R2DragableTokenContainer@@8 0047355c     PlayingCardsDemo.obj
 0002:00015570       ??_R1A@?0A@EA@DragableTokenContainer@@8 00473570     PlayingCardsDemo.obj
 0002:00015594       ??_R1DM@?0A@EA@DisplayableObjectContainer@@8 00473594     PlayingCardsDemo.obj
 0002:000155b8       ??_R4DragableTokenContainer@@6BDisplayableObjectContainer@@@ 004735b8     PlayingCardsDemo.obj
 0002:000155d0       ??_R4DragableToken@@6B@    004735d0     PlayingCardsDemo.obj
 0002:000155e8       ??_R3DragableToken@@8      004735e8     PlayingCardsDemo.obj
 0002:000155fc       ??_R2DragableToken@@8      004735fc     PlayingCardsDemo.obj
 0002:00015608       ??_R1A@?0A@EA@DragableToken@@8 00473608     PlayingCardsDemo.obj
 0002:0001562c       ??_R4TokenTray@@6BDragableBaseClassObject@@@ 0047362c     PlayingCardsDemo.obj
 0002:00015644       ??_R3TokenTray@@8          00473644     PlayingCardsDemo.obj
 0002:00015658       ??_R2TokenTray@@8          00473658     PlayingCardsDemo.obj
 0002:00015674       ??_R1A@?0A@EA@TokenTray@@8 00473674     PlayingCardsDemo.obj
 0002:00015698       ??_R4TokenTray@@6BDisplayableObjectContainer@@@ 00473698     PlayingCardsDemo.obj
 0002:000156b0       ??_R4CardOrTile@@6BDragableBaseClassObject@@@ 004736b0     PlayingCardsDemo.obj
 0002:000156c8       ??_R3CardOrTile@@8         004736c8     PlayingCardsDemo.obj
 0002:000156dc       ??_R2CardOrTile@@8         004736dc     PlayingCardsDemo.obj
 0002:000156f8       ??_R1A@?0A@EA@CardOrTile@@8 004736f8     PlayingCardsDemo.obj
 0002:0001571c       ??_R4CardOrTile@@6BDisplayableObjectContainer@@@ 0047371c     PlayingCardsDemo.obj
 0002:00015734       ??_R4CardContainer@@6BDragableBaseClassObject@@@ 00473734     PlayingCardsDemo.obj
 0002:0001574c       ??_R3CardContainer@@8      0047374c     PlayingCardsDemo.obj
 0002:00015760       ??_R2CardContainer@@8      00473760     PlayingCardsDemo.obj
 0002:0001577c       ??_R1A@?0A@EA@CardContainer@@8 0047377c     PlayingCardsDemo.obj
 0002:000157a0       ??_R4CardContainer@@6BDisplayableObjectContainer@@@ 004737a0     PlayingCardsDemo.obj
 0002:000157b8       ??_R4CoordinateMappingRotateAndColour@@6B@ 004737b8     PlayingCardsDemo.obj
 0002:000157d0       ??_R3CoordinateMappingRotateAndColour@@8 004737d0     PlayingCardsDemo.obj
 0002:000157e4       ??_R2CoordinateMappingRotateAndColour@@8 004737e4     PlayingCardsDemo.obj
 0002:000157f4       ??_R1A@?0A@EA@CoordinateMappingRotateAndColour@@8 004737f4     PlayingCardsDemo.obj
 0002:00015818       ??_R4StarfieldDemo@@6BDisplayableObjectContainer@@@ 00473818     StarfieldDemo.obj
 0002:00015830       ??_R3StarfieldDemo@@8      00473830     StarfieldDemo.obj
 0002:00015844       ??_R2StarfieldDemo@@8      00473844     StarfieldDemo.obj
 0002:00015858       ??_R1A@?0A@EA@StarfieldDemo@@8 00473858     StarfieldDemo.obj
 0002:0001587c       ??_R4StarfieldDemo@@6BFilterPoints@@@ 0047387c     StarfieldDemo.obj
 0002:00015894       ??_R4StartupState@@6BEngineState@@@ 00473894     StartupState.obj
 0002:000158ac       ??_R3StartupState@@8       004738ac     StartupState.obj
 0002:000158c0       ??_R2StartupState@@8       004738c0     StartupState.obj
 0002:000158d0       ??_R1A@?0A@EA@StartupState@@8 004738d0     StartupState.obj
 0002:000158f4       ??_R17?0A@EA@CoordinateMapping@@8 004738f4     StartupState.obj
 0002:00015918       ??_R4StartupState@@6BCoordinateMapping@@@ 00473918     StartupState.obj
 0002:00015930       ??_R4GlowingTextObject@@6B@ 00473930     StartupState.obj
 0002:00015948       ??_R3GlowingTextObject@@8  00473948     StartupState.obj
 0002:0001595c       ??_R2GlowingTextObject@@8  0047395c     StartupState.obj
 0002:0001596c       ??_R1A@?0A@EA@GlowingTextObject@@8 0047396c     StartupState.obj
 0002:00015990       ??_R4BouncingBall@@6B@     00473990     BouncingBall.obj
 0002:000159a8       ??_R3BouncingBall@@8       004739a8     BouncingBall.obj
 0002:000159bc       ??_R2BouncingBall@@8       004739bc     BouncingBall.obj
 0002:000159c8       ??_R1A@?0A@EA@BouncingBall@@8 004739c8     BouncingBall.obj
 0002:000159ec       ??_R4BouncingBall1@@6B@    004739ec     BouncingBall.obj
 0002:00015a04       ??_R3BouncingBall1@@8      00473a04     BouncingBall.obj
 0002:00015a18       ??_R2BouncingBall1@@8      00473a18     BouncingBall.obj
 0002:00015a28       ??_R1A@?0A@EA@BouncingBall1@@8 00473a28     BouncingBall.obj
 0002:00015a4c       ??_R4BouncingBall2@@6B@    00473a4c     BouncingBall.obj
 0002:00015a64       ??_R3BouncingBall2@@8      00473a64     BouncingBall.obj
 0002:00015a78       ??_R2BouncingBall2@@8      00473a78     BouncingBall.obj
 0002:00015a88       ??_R1A@?0A@EA@BouncingBall2@@8 00473a88     BouncingBall.obj
 0002:00015aac       ??_R4SimpleFlashingDragableImageObject@@6B@ 00473aac     ZoomingDemo.obj
 0002:00015ac4       ??_R3SimpleFlashingDragableImageObject@@8 00473ac4     ZoomingDemo.obj
 0002:00015ad8       ??_R2SimpleFlashingDragableImageObject@@8 00473ad8     ZoomingDemo.obj
 0002:00015ae4       ??_R1A@?0A@EA@SimpleFlashingDragableImageObject@@8 00473ae4     ZoomingDemo.obj
 0002:00015b08       ??_R4MazeDemoMain@@6BDisplayableObjectContainer@@@ 00473b08     MazeDemoMain.obj
 0002:00015b20       ??_R3MazeDemoMain@@8       00473b20     MazeDemoMain.obj
 0002:00015b34       ??_R2MazeDemoMain@@8       00473b34     MazeDemoMain.obj
 0002:00015b48       ??_R1A@?0A@EA@MazeDemoMain@@8 00473b48     MazeDemoMain.obj
 0002:00015b6c       ??_R4MazeDemoMain@@6BFilterPoints@@@ 00473b6c     MazeDemoMain.obj
 0002:00015b84       ??_R4MazeDemoTileManager@@6B@ 00473b84     MazeDemoMain.obj
 0002:00015b9c       ??_R3MazeDemoTileManager@@8 00473b9c     MazeDemoMain.obj
 0002:00015bb0       ??_R2MazeDemoTileManager@@8 00473bb0     MazeDemoMain.obj
 0002:00015bbc       ??_R1A@?0A@EA@MazeDemoTileManager@@8 00473bbc     MazeDemoMain.obj
 0002:00015be0       ??_R4MazeDemoObject@@6B@   00473be0     MazeDemoObject.obj
 0002:00015bf8       ??_R3MazeDemoObject@@8     00473bf8     MazeDemoObject.obj
 0002:00015c0c       ??_R2MazeDemoObject@@8     00473c0c     MazeDemoObject.obj
 0002:00015c18       ??_R1A@?0A@EA@MazeDemoObject@@8 00473c18     MazeDemoObject.obj
 0002:00015c3c       ??_R4type_info@@6B@        00473c3c     MSVCRTD:std_type_info_static.obj
 0002:00015c54       ??_R3type_info@@8          00473c54     MSVCRTD:std_type_info_static.obj
 0002:00015c68       ??_R2type_info@@8          00473c68     MSVCRTD:std_type_info_static.obj
 0002:00015c70       ??_R1A@?0A@EA@type_info@@8 00473c70     MSVCRTD:std_type_info_static.obj
 0002:00015e9c       ___safe_se_handler_table   00473e9c     <linker-defined>
 0002:00016634       ___rtc_iaa                 00474634     MSVCRTD:initsect.obj
 0002:00016738       ___rtc_izz                 00474738     MSVCRTD:initsect.obj
 0002:0001683c       ___rtc_taa                 0047483c     MSVCRTD:initsect.obj
 0002:00016940       ___rtc_tzz                 00474940     MSVCRTD:initsect.obj
 0002:00017460       __TI3?AVbad_array_new_length@std@@ 00475460     LoseGameState.obj
 0002:00017474       __CTA3?AVbad_array_new_length@std@@ 00475474     LoseGameState.obj
 0002:00017488       __CT??_R0?AVbad_array_new_length@std@@@8??0bad_array_new_length@std@@QAE@ABV01@@Z12 00475488     LoseGameState.obj
 0002:000174a8       __CT??_R0?AVbad_alloc@std@@@8??0bad_alloc@std@@QAE@ABV01@@Z12 004754a8     LoseGameState.obj
 0002:000174c8       __CT??_R0?AVexception@std@@@8??0exception@std@@QAE@ABV01@@Z12 004754c8     LoseGameState.obj
 0002:000184b8       __TI2?AVbad_cast@std@@     004764b8     EzyjddEngineCW4.obj
 0002:000184cc       __CTA2?AVbad_cast@std@@    004764cc     EzyjddEngineCW4.obj
 0002:000184dc       __CT??_R0?AVbad_cast@std@@@8??0bad_cast@std@@QAE@ABV01@@Z12 004764dc     EzyjddEngineCW4.obj
 0002:0001a840       __TI2?AVbad_alloc@std@@    00478840     MSVCRTD:throw_bad_alloc.obj
 0002:0001a854       __CTA2?AVbad_alloc@std@@   00478854     MSVCRTD:throw_bad_alloc.obj
 0003:00000004       ?mLevelNames@LevelInstructionsState@@0PAPBDA 00479004     LevelInstructionsState.obj
 0003:0000001c       ___security_cookie_complement 0047901c     MSVCRTD:gs_cookie.obj
 0003:00000020       ___security_cookie         00479020     MSVCRTD:gs_cookie.obj
 0003:00000028       __fltused                  00479028     MSVCRTD:fltused.obj
 0003:0000002c       ___scrt_native_dllmain_reason 0047902c     MSVCRTD:utility.obj
 0003:00000030       ___scrt_default_matherr    00479030     MSVCRTD:matherr.obj
 0003:00000034       ___isa_enabled             00479034     MSVCRTD:cpu_disp.obj
 0003:00000038       ___scrt_ucrt_dll_is_in_use 00479038     MSVCRTD:ucrt_stubs.obj
 0003:00000148       ??_R0?AVbad_array_new_length@std@@@8 00479148     LoseGameState.obj
 0003:00000178       ??_R0?AVbad_alloc@std@@@8  00479178     LoseGameState.obj
 0003:0000019c       ??_R0?AVexception@std@@@8  0047919c     LoseGameState.obj
 0003:000001c0       ??_R0?AV_Ref_count_base@std@@@8 004791c0     LoseGameState.obj
 0003:000001e8       ??_R0?AVCoordinateMapping@@@8 004791e8     LoseGameState.obj
 0003:00000210       ??_R0?AVLoseGameState@@@8  00479210     LoseGameState.obj
 0003:00000234       ??_R0?AVEngineState@@@8    00479234     LoseGameState.obj
 0003:00000254       ??_R0?AVSimpleTextObject@@@8 00479254     LoseGameState.obj
 0003:0000027c       ??_R0?AVDisplayableObject@@@8 0047927c     LoseGameState.obj
 0003:000002a4       ??_R0?AVScrollingTextObject@@@8 004792a4     LoseGameState.obj
 0003:000002cc       ??_R0?AVDragableBaseClassObject@@@8 004792cc     LoseGameState.obj
 0003:000002fc       ??_R0?AVDragableImageObject@@@8 004792fc     LoseGameState.obj
 0003:00000324       ??_R0?AVMappableImageObject@@@8 00479324     LoseGameState.obj
 0003:0000034c       ??_R0?AVCoordinateMappingRotate@@@8 0047934c     LoseGameState.obj
 0003:0000037c       ??_R0?AVGameImageObject@@@8 0047937c     LoseGameState.obj
 0003:000003a0       ??_R0?AV?$_Ref_count@VRawImageData@@@std@@@8 004793a0     LoseGameState.obj
 0003:000003d8       ??_R0?AVFilterPoints@@@8   004793d8     ZoomInFirstState.obj
 0003:000003f8       ??_R0?AVFilterPointsScaling@@@8 004793f8     ZoomInFirstState.obj
 0003:00000420       ??_R0?AVFilterPointsTranslation@@@8 00479420     ZoomInFirstState.obj
 0003:00000450       ??_R0?AVZoomInFirstState@@@8 00479450     ZoomInFirstState.obj
 0003:00000478       ??_R0?AVZoomInState@@@8    00479478     ZoomInState.obj
 0003:00000498       ??_R0?AVZoomOutState@@@8   00479498     ZoomOutState.obj
 0003:000004b8       ??_R0?AVControlsState@@@8  004794b8     ControlsState.obj
 0003:000004dc       ??_R0?AVWinGameState@@@8   004794dc     WinGameState.obj
 0003:000004fc       ??_R0?AVbad_cast@std@@@8   004794fc     EzyjddEngineCW4.obj
 0003:0000051c       ??_R0?AV?$basic_filebuf@DU?$char_traits@D@std@@@std@@@8 0047951c     EzyjddEngineCW4.obj
 0003:00000564       ??_R0?AV?$basic_streambuf@DU?$char_traits@D@std@@@std@@@8 00479564     EzyjddEngineCW4.obj
 0003:000005ac       ??_R0?AV?$basic_fstream@DU?$char_traits@D@std@@@std@@@8 004795ac     EzyjddEngineCW4.obj
 0003:000005f4       ??_R0?AV?$basic_iostream@DU?$char_traits@D@std@@@std@@@8 004795f4     EzyjddEngineCW4.obj
 0003:0000063c       ??_R0?AV?$basic_istream@DU?$char_traits@D@std@@@std@@@8 0047963c     EzyjddEngineCW4.obj
 0003:00000684       ??_R0?AV?$basic_ios@DU?$char_traits@D@std@@@std@@@8 00479684     EzyjddEngineCW4.obj
 0003:000006c4       ??_R0?AVios_base@std@@@8   004796c4     EzyjddEngineCW4.obj
 0003:000006e4       ??_R0?AV?$_Iosb@H@std@@@8  004796e4     EzyjddEngineCW4.obj
 0003:00000708       ??_R0?AV?$basic_ostream@DU?$char_traits@D@std@@@std@@@8 00479708     EzyjddEngineCW4.obj
 0003:00000750       ??_R0?AVDisplayableObjectContainer@@@8 00479750     EzyjddEngineCW4.obj
 0003:00000784       ??_R0?AVEzyjddEngineCW4@@@8 00479784     EzyjddEngineCW4.obj
 0003:000007a8       ??_R0?AVBaseEngine@@@8     004797a8     EzyjddEngineCW4.obj
 0003:000007c8       ??_R0?AV?$_Ref_count_obj2@VStartupState@@@std@@@8 004797c8     EzyjddEngineCW4.obj
 0003:00000808       ??_R0?AV?$_Ref_count_obj2@VInstructionsState@@@std@@@8 00479808     EzyjddEngineCW4.obj
 0003:0000084c       ??_R0?AV?$_Ref_count_obj2@VControlsState@@@std@@@8 0047984c     EzyjddEngineCW4.obj
 0003:0000088c       ??_R0?AV?$_Ref_count_obj2@VLevelInstructionsState@@@std@@@8 0047988c     EzyjddEngineCW4.obj
 0003:000008d8       ??_R0?AV?$_Ref_count_obj2@VRunningState@@@std@@@8 004798d8     EzyjddEngineCW4.obj
 0003:00000918       ??_R0?AV?$_Ref_count_obj2@VZoomInFirstState@@@std@@@8 00479918     EzyjddEngineCW4.obj
 0003:0000095c       ??_R0?AV?$_Ref_count_obj2@VZoomInState@@@std@@@8 0047995c     EzyjddEngineCW4.obj
 0003:0000099c       ??_R0?AV?$_Ref_count_obj2@VZoomOutState@@@std@@@8 0047999c     EzyjddEngineCW4.obj
 0003:000009dc       ??_R0?AV?$_Ref_count_obj2@VPausedState@@@std@@@8 004799dc     EzyjddEngineCW4.obj
 0003:00000a1c       ??_R0?AV?$_Ref_count_obj2@VHighScoresState@@@std@@@8 00479a1c     EzyjddEngineCW4.obj
 0003:00000a60       ??_R0?AV?$_Ref_count_obj2@VWinGameState@@@std@@@8 00479a60     EzyjddEngineCW4.obj
 0003:00000aa0       ??_R0?AV?$_Ref_count_obj2@VLoseGameState@@@std@@@8 00479aa0     EzyjddEngineCW4.obj
 0003:00000ae0       ??_R0?AVDragableObject@@@8 00479ae0     DraggingDemo.obj
 0003:00000b04       ??_R0?AVImageObject@@@8    00479b04     DraggingDemo.obj
 0003:00000b24       ??_R0?AVFlashingDemo@@@8   00479b24     FlashingDemo.obj
 0003:00000b44       ??_R0?AVHighScoresState@@@8 00479b44     HighScoresState.obj
 0003:00000b68       ??_R0?AVBouncingObject@@@8 00479b68     ImageObjectDemo.obj
 0003:00000b8c       ??_R0?AVBouncingImageObject@@@8 00479b8c     ImageObjectDemo.obj
 0003:00000bb4       ??_R0?AVInstructionsState@@@8 00479bb4     InstructionsState.obj
 0003:00000ca8       ??_R0?AV<lambda_341a6657abb2758c42a6873833e6116f>@@@8 00479ca8     JigsawDemo.obj
 0003:00000cec       ??_R0?AV<lambda_817584b2460f1bcab806f46a25c321a8>@@@8 00479cec     JigsawDemo.obj
 0003:00000d30       ??_R0?AV<lambda_369f3aee610e50bbd15c3a78d9c8686f>@@@8 00479d30     JigsawDemo.obj
 0003:00000d74       ??_R0?AV<lambda_4d3c514b9e5ad6cc29096aa3b57f98f2>@@@8 00479d74     JigsawDemo.obj
 0003:00000db8       ??_R0?AV<lambda_2870de01b601283699da779de20905fc>@@@8 00479db8     JigsawDemo.obj
 0003:00000dfc       ??_R0?AV?$_Func_base@XPAVDisplayableObject@@@std@@@8 00479dfc     JigsawDemo.obj
 0003:00000e40       ??_R0?AVJigsawPiece@@@8    00479e40     JigsawDemo.obj
 0003:00000e60       ??_R0?AV?$_Func_impl_no_alloc@V<lambda_2870de01b601283699da779de20905fc>@@XPAVDisplayableObject@@@std@@@8 00479e60     JigsawDemo.obj
 0003:00000ee8       ??_R0?AV?$_Func_impl_no_alloc@V<lambda_4d3c514b9e5ad6cc29096aa3b57f98f2>@@XPAVDisplayableObject@@@std@@@8 00479ee8     JigsawDemo.obj
 0003:00000f70       ??_R0?AV?$_Func_impl_no_alloc@V<lambda_369f3aee610e50bbd15c3a78d9c8686f>@@XPAVDisplayableObject@@@std@@@8 00479f70     JigsawDemo.obj
 0003:00000ff8       ??_R0?AV?$_Func_impl_no_alloc@V<lambda_817584b2460f1bcab806f46a25c321a8>@@XPAVDisplayableObject@@@std@@@8 00479ff8     JigsawDemo.obj
 0003:00001080       ??_R0?AV?$_Func_impl_no_alloc@V<lambda_341a6657abb2758c42a6873833e6116f>@@XPAVDisplayableObject@@@std@@@8 0047a080     JigsawDemo.obj
 0003:0000129c       ??_R0?AVPausedState@@@8    0047a29c     PausedState.obj
 0003:000012bc       ??_R0?AVCollidableInterface@@@8 0047a2bc     RunningState.obj
 0003:000012e4       ??_R0?AVCollidableGameImageObject@@@8 0047a2e4     RunningState.obj
 0003:00001314       ??_R0?AVCollisionCallbacks@@@8 0047a314     RunningState.obj
 0003:0000133c       ??_R0?AVShip@@@8           0047a33c     RunningState.obj
 0003:00001354       ??_R0?AVMine@@@8           0047a354     RunningState.obj
 0003:0000136c       ??_R0?AVMissile@@@8        0047a36c     RunningState.obj
 0003:00001388       ??_R0?AVVirusCallbacks@@@8 0047a388     RunningState.obj
 0003:000013ac       ??_R0?AVVirus@@@8          0047a3ac     RunningState.obj
 0003:000013c4       ??_R0?AVRunningState@@@8   0047a3c4     RunningState.obj
 0003:000013e4       ??_R0?AVLevelInstructionsState@@@8 0047a3e4     LevelInstructionsState.obj
 0003:00001410       ??_R0?AVFlashingTextObject@@@8 0047a410     LevelInstructionsState.obj
 0003:00001438       ??_R0?AVCroppedCoordinateMapping@@@8 0047a438     SimpleImage.obj
 0003:00001468       ??_R0?AVJasonsDemoA@@@8    0047a468     JasonsDemoA.obj
 0003:00001488       ??_R0?AVJasonsObjectA@@@8  0047a488     JasonsObjectA.obj
 0003:000014ac       ??_R0?AVTileManager@@@8    0047a4ac     JasonsTileManager.obj
 0003:000014cc       ??_R0?AVJasonsTileManager@@@8 0047a4cc     JasonsTileManager.obj
 0003:000014f4       ??_R0?AVDragableTokenContainer@@@8 0047a4f4     PlayingCardsDemo.obj
 0003:00001520       ??_R0?AVCardContainer@@@8  0047a520     PlayingCardsDemo.obj
 0003:00001544       ??_R0?AVDragableToken@@@8  0047a544     PlayingCardsDemo.obj
 0003:00001568       ??_R0?AVTokenTray@@@8      0047a568     PlayingCardsDemo.obj
 0003:00001584       ??_R0?AVCardOrTile@@@8     0047a584     PlayingCardsDemo.obj
 0003:000015a4       ??_R0?AVCoordinateMappingRotateAndColour@@@8 0047a5a4     PlayingCardsDemo.obj
 0003:000015dc       ??_R0?AVStarfieldDemo@@@8  0047a5dc     StarfieldDemo.obj
 0003:00001600       ??_R0?AVStartupState@@@8   0047a600     StartupState.obj
 0003:00001620       ??_R0?AVGlowingTextObject@@@8 0047a620     StartupState.obj
 0003:00001648       ??_R0?AVBouncingBall@@@8   0047a648     BouncingBall.obj
 0003:00001668       ??_R0?AVBouncingBall1@@@8  0047a668     BouncingBall.obj
 0003:0000168c       ??_R0?AVBouncingBall2@@@8  0047a68c     BouncingBall.obj
 0003:000016b0       ??_R0?AVSimpleFlashingDragableImageObject@@@8 0047a6b0     ZoomingDemo.obj
 0003:000016ec       ??_R0?AVMazeDemoMain@@@8   0047a6ec     MazeDemoMain.obj
 0003:0000170c       ??_R0?AVMazeDemoTileManager@@@8 0047a70c     MazeDemoMain.obj
 0003:00001734       ??_R0?AVMazeDemoObject@@@8 0047a734     MazeDemoObject.obj
 0003:00001758       ??_R0?AVtype_info@@@8      0047a758     MSVCRTD:std_type_info_static.obj
 0003:000018d0       ?_OptionsStorage@?1??__local_stdio_printf_options@@9@4_KA 0047a8d0     LoseGameState.obj
 0003:000018dc       ?_Stinit@?1??_Init@?$basic_filebuf@DU?$char_traits@D@std@@@std@@IAEXPAU_iobuf@@W4_Initfl@23@@Z@4U_Mbstatet@@A 0047a8dc     EzyjddEngineCW4.obj
 0003:000018e8       ?_Psave@?$_Facetptr@V?$ctype@D@std@@@std@@2PBVfacet@locale@2@B 0047a8e8     EzyjddEngineCW4.obj
 0003:000018ec       ?_Psave@?$_Facetptr@V?$codecvt@DDU_Mbstatet@@@std@@@std@@2PBVfacet@locale@2@B 0047a8ec     EzyjddEngineCW4.obj
 0003:000018f0       ?g_pManager@ImageManager@@0PAV1@A 0047a8f0     SimpleImage.obj
 0003:000018f8       ___scrt_current_native_startup_state 0047a8f8     MSVCRTD:utility.obj
 0003:000018fc       ___scrt_native_startup_lock 0047a8fc     MSVCRTD:utility.obj
 0003:00001928       ?__type_info_root_node@@3U__type_info_node@@A 0047a928     MSVCRTD:tncleanup.obj
 0003:00001938       ?_OptionsStorage@?1??__local_stdio_scanf_options@@9@4_KA 0047a938     MSVCRTD:default_local_stdio_options.obj
 0003:00001944       ___scrt_debugger_hook_flag 0047a944     MSVCRTD:utility_desktop.obj
 0003:00001d04       ___isa_available           0047ad04     MSVCRTD:cpu_disp.obj
 0003:00001d08       ___favor                   0047ad08     MSVCRTD:cpu_disp.obj
 0003:00001d10       ___dyn_tls_dtor_callback   0047ad10     <common>
 0003:00001d1c       ___dyn_tls_init_callback   0047ad1c     <common>
 0004:00000000       __imp__QueryPerformanceCounter@4 0047b000     kernel32:KERNEL32.dll
 0004:00000004       __imp__GetCurrentProcessId@0 0047b004     kernel32:KERNEL32.dll
 0004:00000008       __imp__GetCurrentThreadId@0 0047b008     kernel32:KERNEL32.dll
 0004:0000000c       __imp__GetSystemTimeAsFileTime@4 0047b00c     kernel32:KERNEL32.dll
 0004:00000010       __imp__InitializeSListHead@4 0047b010     kernel32:KERNEL32.dll
 0004:00000014       __imp__IsDebuggerPresent@0 0047b014     kernel32:KERNEL32.dll
 0004:00000018       __imp__UnhandledExceptionFilter@4 0047b018     kernel32:KERNEL32.dll
 0004:0000001c       __imp__SetUnhandledExceptionFilter@4 0047b01c     kernel32:KERNEL32.dll
 0004:00000020       __imp__GetStartupInfoW@4   0047b020     kernel32:KERNEL32.dll
 0004:00000024       __imp__IsProcessorFeaturePresent@4 0047b024     kernel32:KERNEL32.dll
 0004:00000028       __imp__GetCurrentProcess@0 0047b028     kernel32:KERNEL32.dll
 0004:0000002c       __imp__TerminateProcess@8  0047b02c     kernel32:KERNEL32.dll
 0004:00000030       __imp__GetCommandLineW@0   0047b030     kernel32:KERNEL32.dll
 0004:00000034       __imp__VirtualAlloc@16     0047b034     kernel32:KERNEL32.dll
 0004:00000038       __imp__VirtualFree@12      0047b038     kernel32:KERNEL32.dll
 0004:0000003c       __imp__WideCharToMultiByte@32 0047b03c     kernel32:KERNEL32.dll
 0004:00000040       __imp__GetModuleHandleW@4  0047b040     kernel32:KERNEL32.dll
 0004:00000044       \177KERNEL32_NULL_THUNK_DATA 0047b044     kernel32:KERNEL32.dll
 0004:0000007c       __imp_?showmanyc@?$basic_streambuf@DU?$char_traits@D@std@@@std@@MAE_JXZ 0047b07c     msvcprtd:MSVCP140D.dll
 0004:00000080       __imp_?id@?$codecvt@DDU_Mbstatet@@@std@@2V0locale@2@A 0047b080     msvcprtd:MSVCP140D.dll
 0004:00000084       __imp_??1?$basic_iostream@DU?$char_traits@D@std@@@std@@UAE@XZ 0047b084     msvcprtd:MSVCP140D.dll
 0004:00000088       __imp_??0?$basic_iostream@DU?$char_traits@D@std@@@std@@QAE@PAV?$basic_streambuf@DU?$char_traits@D@std@@@1@@Z 0047b088     msvcprtd:MSVCP140D.dll
 0004:0000008c       __imp_??5?$basic_istream@DU?$char_traits@D@std@@@std@@QAEAAV01@AAI@Z 0047b08c     msvcprtd:MSVCP140D.dll
 0004:00000090       __imp_?_Ipfx@?$basic_istream@DU?$char_traits@D@std@@@std@@QAE_N_N@Z 0047b090     msvcprtd:MSVCP140D.dll
 0004:00000094       __imp_??6?$basic_ostream@DU?$char_traits@D@std@@@std@@QAEAAV01@I@Z 0047b094     msvcprtd:MSVCP140D.dll
 0004:00000098       __imp_??0?$basic_ios@DU?$char_traits@D@std@@@std@@IAE@XZ 0047b098     msvcprtd:MSVCP140D.dll
 0004:0000009c       __imp_?clear@?$basic_ios@DU?$char_traits@D@std@@@std@@QAEXH_N@Z 0047b09c     msvcprtd:MSVCP140D.dll
 0004:000000a0       __imp_??1?$basic_ios@DU?$char_traits@D@std@@@std@@UAE@XZ 0047b0a0     msvcprtd:MSVCP140D.dll
 0004:000000a4       __imp_?xsputn@?$basic_streambuf@DU?$char_traits@D@std@@@std@@MAE_JPBD_J@Z 0047b0a4     msvcprtd:MSVCP140D.dll
 0004:000000a8       __imp_?xsgetn@?$basic_streambuf@DU?$char_traits@D@std@@@std@@MAE_JPAD_J@Z 0047b0a8     msvcprtd:MSVCP140D.dll
 0004:000000ac       __imp_?id@?$ctype@D@std@@2V0locale@2@A 0047b0ac     msvcprtd:MSVCP140D.dll
 0004:000000b0       __imp_?cerr@std@@3V?$basic_ostream@DU?$char_traits@D@std@@@1@A 0047b0b0     msvcprtd:MSVCP140D.dll
 0004:000000b4       __imp_?_Xbad_function_call@std@@YAXXZ 0047b0b4     msvcprtd:MSVCP140D.dll
 0004:000000b8       __imp_??6?$basic_ostream@DU?$char_traits@D@std@@@std@@QAEAAV01@N@Z 0047b0b8     msvcprtd:MSVCP140D.dll
 0004:000000bc       __imp_??5?$basic_istream@DU?$char_traits@D@std@@@std@@QAEAAV01@AAH@Z 0047b0bc     msvcprtd:MSVCP140D.dll
 0004:000000c0       __imp_??5?$basic_istream@DU?$char_traits@D@std@@@std@@QAEAAV01@AAN@Z 0047b0c0     msvcprtd:MSVCP140D.dll
 0004:000000c4       __imp_?_Xbad_alloc@std@@YAXXZ 0047b0c4     msvcprtd:MSVCP140D.dll
 0004:000000c8       __imp_?_Fiopen@std@@YAPAU_iobuf@@PBDHH@Z 0047b0c8     msvcprtd:MSVCP140D.dll
 0004:000000cc       __imp_??0_Lockit@std@@QAE@H@Z 0047b0cc     msvcprtd:MSVCP140D.dll
 0004:000000d0       __imp_??1_Lockit@std@@QAE@XZ 0047b0d0     msvcprtd:MSVCP140D.dll
 0004:000000d4       __imp_?uncaught_exception@std@@YA_NXZ 0047b0d4     msvcprtd:MSVCP140D.dll
 0004:000000d8       __imp_?_Xlength_error@std@@YAXPBD@Z 0047b0d8     msvcprtd:MSVCP140D.dll
 0004:000000dc       __imp_?good@ios_base@std@@QBE_NXZ 0047b0dc     msvcprtd:MSVCP140D.dll
 0004:000000e0       __imp_?flags@ios_base@std@@QBEHXZ 0047b0e0     msvcprtd:MSVCP140D.dll
 0004:000000e4       __imp_?width@ios_base@std@@QBE_JXZ 0047b0e4     msvcprtd:MSVCP140D.dll
 0004:000000e8       __imp_?width@ios_base@std@@QAE_J_J@Z 0047b0e8     msvcprtd:MSVCP140D.dll
 0004:000000ec       __imp_?sputc@?$basic_streambuf@DU?$char_traits@D@std@@@std@@QAEHD@Z 0047b0ec     msvcprtd:MSVCP140D.dll
 0004:000000f0       __imp_?sputn@?$basic_streambuf@DU?$char_traits@D@std@@@std@@QAE_JPBD_J@Z 0047b0f0     msvcprtd:MSVCP140D.dll
 0004:000000f4       __imp_?setstate@?$basic_ios@DU?$char_traits@D@std@@@std@@QAEXH_N@Z 0047b0f4     msvcprtd:MSVCP140D.dll
 0004:000000f8       __imp_?tie@?$basic_ios@DU?$char_traits@D@std@@@std@@QBEPAV?$basic_ostream@DU?$char_traits@D@std@@@2@XZ 0047b0f8     msvcprtd:MSVCP140D.dll
 0004:000000fc       __imp_?rdbuf@?$basic_ios@DU?$char_traits@D@std@@@std@@QBEPAV?$basic_streambuf@DU?$char_traits@D@std@@@2@XZ 0047b0fc     msvcprtd:MSVCP140D.dll
 0004:00000100       __imp_?fill@?$basic_ios@DU?$char_traits@D@std@@@std@@QBEDXZ 0047b100     msvcprtd:MSVCP140D.dll
 0004:00000104       __imp_?widen@?$basic_ios@DU?$char_traits@D@std@@@std@@QBEDD@Z 0047b104     msvcprtd:MSVCP140D.dll
 0004:00000108       __imp_?_Osfx@?$basic_ostream@DU?$char_traits@D@std@@@std@@QAEXXZ 0047b108     msvcprtd:MSVCP140D.dll
 0004:0000010c       __imp_??6?$basic_ostream@DU?$char_traits@D@std@@@std@@QAEAAV01@P6AAAV01@AAV01@@Z@Z 0047b10c     msvcprtd:MSVCP140D.dll
 0004:00000110       __imp_?put@?$basic_ostream@DU?$char_traits@D@std@@@std@@QAEAAV12@D@Z 0047b110     msvcprtd:MSVCP140D.dll
 0004:00000114       __imp_?flush@?$basic_ostream@DU?$char_traits@D@std@@@std@@QAEAAV12@XZ 0047b114     msvcprtd:MSVCP140D.dll
 0004:00000118       __imp_?cout@std@@3V?$basic_ostream@DU?$char_traits@D@std@@@1@A 0047b118     msvcprtd:MSVCP140D.dll
 0004:0000011c       __imp_?_Xout_of_range@std@@YAXPBD@Z 0047b11c     msvcprtd:MSVCP140D.dll
 0004:00000120       __imp_??Bid@locale@std@@QAEIXZ 0047b120     msvcprtd:MSVCP140D.dll
 0004:00000124       __imp_?_Getgloballocale@locale@std@@CAPAV_Locimp@12@XZ 0047b124     msvcprtd:MSVCP140D.dll
 0004:00000128       __imp_?always_noconv@codecvt_base@std@@QBE_NXZ 0047b128     msvcprtd:MSVCP140D.dll
 0004:0000012c       __imp_?is@?$ctype@D@std@@QBE_NFD@Z 0047b12c     msvcprtd:MSVCP140D.dll
 0004:00000130       __imp_?_Getcat@?$ctype@D@std@@SAIPAPBVfacet@locale@2@PBV42@@Z 0047b130     msvcprtd:MSVCP140D.dll
 0004:00000134       __imp_?in@?$codecvt@DDU_Mbstatet@@@std@@QBEHAAU_Mbstatet@@PBD1AAPBDPAD3AAPAD@Z 0047b134     msvcprtd:MSVCP140D.dll
 0004:00000138       __imp_?out@?$codecvt@DDU_Mbstatet@@@std@@QBEHAAU_Mbstatet@@PBD1AAPBDPAD3AAPAD@Z 0047b138     msvcprtd:MSVCP140D.dll
 0004:0000013c       __imp_?unshift@?$codecvt@DDU_Mbstatet@@@std@@QBEHAAU_Mbstatet@@PAD1AAPAD@Z 0047b13c     msvcprtd:MSVCP140D.dll
 0004:00000140       __imp_?_Getcat@?$codecvt@DDU_Mbstatet@@@std@@SAIPAPBVfacet@locale@2@PBV42@@Z 0047b140     msvcprtd:MSVCP140D.dll
 0004:00000144       __imp_??Bios_base@std@@QBE_NXZ 0047b144     msvcprtd:MSVCP140D.dll
 0004:00000148       __imp_?eof@ios_base@std@@QBE_NXZ 0047b148     msvcprtd:MSVCP140D.dll
 0004:0000014c       __imp_?getloc@ios_base@std@@QBE?AVlocale@2@XZ 0047b14c     msvcprtd:MSVCP140D.dll
 0004:00000150       __imp_??0?$basic_streambuf@DU?$char_traits@D@std@@@std@@IAE@XZ 0047b150     msvcprtd:MSVCP140D.dll
 0004:00000154       __imp_??1?$basic_streambuf@DU?$char_traits@D@std@@@std@@UAE@XZ 0047b154     msvcprtd:MSVCP140D.dll
 0004:00000158       __imp_?getloc@?$basic_streambuf@DU?$char_traits@D@std@@@std@@QBE?AVlocale@2@XZ 0047b158     msvcprtd:MSVCP140D.dll
 0004:0000015c       __imp_?sbumpc@?$basic_streambuf@DU?$char_traits@D@std@@@std@@QAEHXZ 0047b15c     msvcprtd:MSVCP140D.dll
 0004:00000160       __imp_?sgetc@?$basic_streambuf@DU?$char_traits@D@std@@@std@@QAEHXZ 0047b160     msvcprtd:MSVCP140D.dll
 0004:00000164       __imp_?snextc@?$basic_streambuf@DU?$char_traits@D@std@@@std@@QAEHXZ 0047b164     msvcprtd:MSVCP140D.dll
 0004:00000168       __imp_?eback@?$basic_streambuf@DU?$char_traits@D@std@@@std@@IBEPADXZ 0047b168     msvcprtd:MSVCP140D.dll
 0004:0000016c       __imp_?gptr@?$basic_streambuf@DU?$char_traits@D@std@@@std@@IBEPADXZ 0047b16c     msvcprtd:MSVCP140D.dll
 0004:00000170       __imp_?pptr@?$basic_streambuf@DU?$char_traits@D@std@@@std@@IBEPADXZ 0047b170     msvcprtd:MSVCP140D.dll
 0004:00000174       __imp_?egptr@?$basic_streambuf@DU?$char_traits@D@std@@@std@@IBEPADXZ 0047b174     msvcprtd:MSVCP140D.dll
 0004:00000178       __imp_?gbump@?$basic_streambuf@DU?$char_traits@D@std@@@std@@IAEXH@Z 0047b178     msvcprtd:MSVCP140D.dll
 0004:0000017c       __imp_?setg@?$basic_streambuf@DU?$char_traits@D@std@@@std@@IAEXPAD00@Z 0047b17c     msvcprtd:MSVCP140D.dll
 0004:00000180       __imp_?epptr@?$basic_streambuf@DU?$char_traits@D@std@@@std@@IBEPADXZ 0047b180     msvcprtd:MSVCP140D.dll
 0004:00000184       __imp_?_Gndec@?$basic_streambuf@DU?$char_traits@D@std@@@std@@IAEPADXZ 0047b184     msvcprtd:MSVCP140D.dll
 0004:00000188       __imp_?_Gninc@?$basic_streambuf@DU?$char_traits@D@std@@@std@@IAEPADXZ 0047b188     msvcprtd:MSVCP140D.dll
 0004:0000018c       __imp_?_Gnavail@?$basic_streambuf@DU?$char_traits@D@std@@@std@@IBE_JXZ 0047b18c     msvcprtd:MSVCP140D.dll
 0004:00000190       __imp_?pbump@?$basic_streambuf@DU?$char_traits@D@std@@@std@@IAEXH@Z 0047b190     msvcprtd:MSVCP140D.dll
 0004:00000194       __imp_?_Pninc@?$basic_streambuf@DU?$char_traits@D@std@@@std@@IAEPADXZ 0047b194     msvcprtd:MSVCP140D.dll
 0004:00000198       __imp_?_Pnavail@?$basic_streambuf@DU?$char_traits@D@std@@@std@@IBE_JXZ 0047b198     msvcprtd:MSVCP140D.dll
 0004:0000019c       __imp_?_Init@?$basic_streambuf@DU?$char_traits@D@std@@@std@@IAEXXZ 0047b19c     msvcprtd:MSVCP140D.dll
 0004:000001a0       __imp_?_Init@?$basic_streambuf@DU?$char_traits@D@std@@@std@@IAEXPAPAD0PAH001@Z 0047b1a0     msvcprtd:MSVCP140D.dll
 0004:000001a4       __imp_??6?$basic_ostream@DU?$char_traits@D@std@@@std@@QAEAAV01@H@Z 0047b1a4     msvcprtd:MSVCP140D.dll
 0004:000001a8       \177MSVCP140D_NULL_THUNK_DATA 0047b1a8     msvcprtd:MSVCP140D.dll
 0004:00000210       __imp__SDL_SetClipRect     0047b210     SDL2:SDL2.dll
 0004:00000214       __imp__SDL_GetTicks        0047b214     SDL2:SDL2.dll
 0004:00000218       __imp__SDL_RenderPresent   0047b218     SDL2:SDL2.dll
 0004:0000021c       __imp__SDL_RenderCopy      0047b21c     SDL2:SDL2.dll
 0004:00000220       __imp__SDL_UpdateTexture   0047b220     SDL2:SDL2.dll
 0004:00000224       __imp__SDL_CreateTexture   0047b224     SDL2:SDL2.dll
 0004:00000228       __imp__SDL_CreateRenderer  0047b228     SDL2:SDL2.dll
 0004:0000022c       __imp__SDL_WaitEvent       0047b22c     SDL2:SDL2.dll
 0004:00000230       __imp__SDL_PollEvent       0047b230     SDL2:SDL2.dll
 0004:00000234       __imp__SDL_UpperBlitScaled 0047b234     SDL2:SDL2.dll
 0004:00000238       __imp__SDL_GetError        0047b238     SDL2:SDL2.dll
 0004:0000023c       __imp__SDL_Quit            0047b23c     SDL2:SDL2.dll
 0004:00000240       __imp__SDL_Init            0047b240     SDL2:SDL2.dll
 0004:00000244       __imp__SDL_FillRect        0047b244     SDL2:SDL2.dll
 0004:00000248       __imp__SDL_RWFromFile      0047b248     SDL2:SDL2.dll
 0004:0000024c       __imp__SDL_UnlockSurface   0047b24c     SDL2:SDL2.dll
 0004:00000250       __imp__SDL_LockSurface     0047b250     SDL2:SDL2.dll
 0004:00000254       __imp__SDL_CloseAudio      0047b254     SDL2:SDL2.dll
 0004:00000258       __imp__SDL_UpperBlit       0047b258     SDL2:SDL2.dll
 0004:0000025c       __imp__SDL_CreateWindow    0047b25c     SDL2:SDL2.dll
 0004:00000260       __imp__SDL_FreeSurface     0047b260     SDL2:SDL2.dll
 0004:00000264       __imp__SDL_CreateRGBSurface 0047b264     SDL2:SDL2.dll
 0004:00000268       __imp__SDL_CloseAudioDevice 0047b268     SDL2:SDL2.dll
 0004:0000026c       __imp__SDL_ClearQueuedAudio 0047b26c     SDL2:SDL2.dll
 0004:00000270       __imp__SDL_QueueAudio      0047b270     SDL2:SDL2.dll
 0004:00000274       __imp__SDL_FreeWAV         0047b274     SDL2:SDL2.dll
 0004:00000278       __imp__SDL_LoadWAV_RW      0047b278     SDL2:SDL2.dll
 0004:0000027c       __imp__SDL_PauseAudioDevice 0047b27c     SDL2:SDL2.dll
 0004:00000280       __imp__SDL_OpenAudioDevice 0047b280     SDL2:SDL2.dll
 0004:00000284       __imp__SDL_SetMainReady    0047b284     SDL2:SDL2.dll
 0004:00000288       __imp__SDL_ShowSimpleMessageBox 0047b288     SDL2:SDL2.dll
 0004:0000028c       \177SDL2_NULL_THUNK_DATA   0047b28c     SDL2:SDL2.dll
 0004:000002d0       __imp__IMG_Load            0047b2d0     SDL2_image:SDL2_image.dll
 0004:000002d4       \177SDL2_image_NULL_THUNK_DATA 0047b2d4     SDL2_image:SDL2_image.dll
 0004:00000300       __imp__TTF_CloseFont       0047b300     SDL2_ttf:SDL2_ttf.dll
 0004:00000304       __imp__TTF_OpenFont        0047b304     SDL2_ttf:SDL2_ttf.dll
 0004:00000308       __imp__TTF_RenderText_Solid 0047b308     SDL2_ttf:SDL2_ttf.dll
 0004:0000030c       __imp__TTF_Quit            0047b30c     SDL2_ttf:SDL2_ttf.dll
 0004:00000310       __imp__TTF_Init            0047b310     SDL2_ttf:SDL2_ttf.dll
 0004:00000314       \177SDL2_ttf_NULL_THUNK_DATA 0047b314     SDL2_ttf:SDL2_ttf.dll
 0004:00000344       __imp____current_exception_context 0047b344     vcruntimed:VCRUNTIME140D.dll
 0004:00000348       __imp___except_handler4_common 0047b348     vcruntimed:VCRUNTIME140D.dll
 0004:0000034c       __imp____current_exception 0047b34c     vcruntimed:VCRUNTIME140D.dll
 0004:00000350       __imp___purecall           0047b350     vcruntimed:VCRUNTIME140D.dll
 0004:00000354       __imp__memcmp              0047b354     vcruntimed:VCRUNTIME140D.dll
 0004:00000358       __imp__memcpy              0047b358     vcruntimed:VCRUNTIME140D.dll
 0004:0000035c       __imp__memmove             0047b35c     vcruntimed:VCRUNTIME140D.dll
 0004:00000360       __imp__memset              0047b360     vcruntimed:VCRUNTIME140D.dll
 0004:00000364       __imp____std_exception_copy 0047b364     vcruntimed:VCRUNTIME140D.dll
 0004:00000368       __imp____std_exception_destroy 0047b368     vcruntimed:VCRUNTIME140D.dll
 0004:0000036c       __imp___CxxThrowException@8 0047b36c     vcruntimed:VCRUNTIME140D.dll
 0004:00000370       __imp____CxxFrameHandler3  0047b370     vcruntimed:VCRUNTIME140D.dll
 0004:00000374       __imp____RTDynamicCast     0047b374     vcruntimed:VCRUNTIME140D.dll
 0004:00000378       __imp____std_type_info_destroy_list 0047b378     vcruntimed:VCRUNTIME140D.dll
 0004:0000037c       \177VCRUNTIME140D_NULL_THUNK_DATA 0047b37c     vcruntimed:VCRUNTIME140D.dll
 0004:000003b0       __imp__setvbuf             0047b3b0     ucrtd:ucrtbased.dll
 0004:000003b4       __imp__ungetc              0047b3b4     ucrtd:ucrtbased.dll
 0004:000003b8       __imp___lock_file          0047b3b8     ucrtd:ucrtbased.dll
 0004:000003bc       __imp___unlock_file        0047b3bc     ucrtd:ucrtbased.dll
 0004:000003c0       __imp___time64             0047b3c0     ucrtd:ucrtbased.dll
 0004:000003c4       __imp__rand                0047b3c4     ucrtd:ucrtbased.dll
 0004:000003c8       __imp____stdio_common_vsprintf 0047b3c8     ucrtd:ucrtbased.dll
 0004:000003cc       __imp__atoi                0047b3cc     ucrtd:ucrtbased.dll
 0004:000003d0       __imp__fgets               0047b3d0     ucrtd:ucrtbased.dll
 0004:000003d4       __imp__fopen               0047b3d4     ucrtd:ucrtbased.dll
 0004:000003d8       __imp___CrtDumpMemoryLeaks 0047b3d8     ucrtd:ucrtbased.dll
 0004:000003dc       __imp__puts                0047b3dc     ucrtd:ucrtbased.dll
 0004:000003e0       __imp__strcmp              0047b3e0     ucrtd:ucrtbased.dll
 0004:000003e4       __imp__strcpy              0047b3e4     ucrtd:ucrtbased.dll
 0004:000003e8       __imp__pow                 0047b3e8     ucrtd:ucrtbased.dll
 0004:000003ec       __imp___free_dbg           0047b3ec     ucrtd:ucrtbased.dll
 0004:000003f0       __imp___malloc_dbg         0047b3f0     ucrtd:ucrtbased.dll
 0004:000003f4       __imp___seh_filter_exe     0047b3f4     ucrtd:ucrtbased.dll
 0004:000003f8       __imp___set_app_type       0047b3f8     ucrtd:ucrtbased.dll
 0004:000003fc       __imp____setusermatherr    0047b3fc     ucrtd:ucrtbased.dll
 0004:00000400       __imp___configure_narrow_argv 0047b400     ucrtd:ucrtbased.dll
 0004:00000404       __imp___fseeki64           0047b404     ucrtd:ucrtbased.dll
 0004:00000408       __imp___get_initial_narrow_environment 0047b408     ucrtd:ucrtbased.dll
 0004:0000040c       __imp___initterm           0047b40c     ucrtd:ucrtbased.dll
 0004:00000410       __imp___initterm_e         0047b410     ucrtd:ucrtbased.dll
 0004:00000414       __imp__exit                0047b414     ucrtd:ucrtbased.dll
 0004:00000418       __imp___exit               0047b418     ucrtd:ucrtbased.dll
 0004:0000041c       __imp___set_fmode          0047b41c     ucrtd:ucrtbased.dll
 0004:00000420       __imp____p___argc          0047b420     ucrtd:ucrtbased.dll
 0004:00000424       __imp____p___argv          0047b424     ucrtd:ucrtbased.dll
 0004:00000428       __imp___cexit              0047b428     ucrtd:ucrtbased.dll
 0004:0000042c       __imp___c_exit             0047b42c     ucrtd:ucrtbased.dll
 0004:00000430       __imp___register_thread_local_exe_atexit_callback 0047b430     ucrtd:ucrtbased.dll
 0004:00000434       __imp___configthreadlocale 0047b434     ucrtd:ucrtbased.dll
 0004:00000438       __imp___set_new_mode       0047b438     ucrtd:ucrtbased.dll
 0004:0000043c       __imp____p__commode        0047b43c     ucrtd:ucrtbased.dll
 0004:00000440       __imp___callnewh           0047b440     ucrtd:ucrtbased.dll
 0004:00000444       __imp__malloc              0047b444     ucrtd:ucrtbased.dll
 0004:00000448       __imp___seh_filter_dll     0047b448     ucrtd:ucrtbased.dll
 0004:0000044c       __imp___initialize_onexit_table 0047b44c     ucrtd:ucrtbased.dll
 0004:00000450       __imp___register_onexit_function 0047b450     ucrtd:ucrtbased.dll
 0004:00000454       __imp___execute_onexit_table 0047b454     ucrtd:ucrtbased.dll
 0004:00000458       __imp___crt_atexit         0047b458     ucrtd:ucrtbased.dll
 0004:0000045c       __imp___crt_at_quick_exit  0047b45c     ucrtd:ucrtbased.dll
 0004:00000460       __imp___controlfp_s        0047b460     ucrtd:ucrtbased.dll
 0004:00000464       __imp__terminate           0047b464     ucrtd:ucrtbased.dll
 0004:00000468       __imp__fwrite              0047b468     ucrtd:ucrtbased.dll
 0004:0000046c       __imp__fsetpos             0047b46c     ucrtd:ucrtbased.dll
 0004:00000470       __imp__fread               0047b470     ucrtd:ucrtbased.dll
 0004:00000474       __imp__fputc               0047b474     ucrtd:ucrtbased.dll
 0004:00000478       __imp__fgetpos             0047b478     ucrtd:ucrtbased.dll
 0004:0000047c       __imp__fgetc               0047b47c     ucrtd:ucrtbased.dll
 0004:00000480       __imp__fflush              0047b480     ucrtd:ucrtbased.dll
 0004:00000484       __imp__fclose              0047b484     ucrtd:ucrtbased.dll
 0004:00000488       __imp___get_stream_buffer_pointers 0047b488     ucrtd:ucrtbased.dll
 0004:0000048c       __imp__srand               0047b48c     ucrtd:ucrtbased.dll
 0004:00000490       __imp__strlen              0047b490     ucrtd:ucrtbased.dll
 0004:00000494       __imp____stdio_common_vfprintf 0047b494     ucrtd:ucrtbased.dll
 0004:00000498       __imp____acrt_iob_func     0047b498     ucrtd:ucrtbased.dll
 0004:0000049c       __imp__sqrt                0047b49c     ucrtd:ucrtbased.dll
 0004:000004a0       __imp__sin                 0047b4a0     ucrtd:ucrtbased.dll
 0004:000004a4       __imp__cos                 0047b4a4     ucrtd:ucrtbased.dll
 0004:000004a8       __imp__atan                0047b4a8     ucrtd:ucrtbased.dll
 0004:000004ac       __imp___CrtDbgReport       0047b4ac     ucrtd:ucrtbased.dll
 0004:000004b0       __imp___invalid_parameter  0047b4b0     ucrtd:ucrtbased.dll
 0004:000004b4       __imp___initialize_narrow_environment 0047b4b4     ucrtd:ucrtbased.dll
 0004:000004b8       \177ucrtbased_NULL_THUNK_DATA 0047b4b8     ucrtd:ucrtbased.dll
 0004:00000518       __IMPORT_DESCRIPTOR_SDL2   0047b518     SDL2:SDL2.dll
 0004:0000052c       __IMPORT_DESCRIPTOR_SDL2_image 0047b52c     SDL2_image:SDL2_image.dll
 0004:00000540       __IMPORT_DESCRIPTOR_SDL2_ttf 0047b540     SDL2_ttf:SDL2_ttf.dll
 0004:00000554       __IMPORT_DESCRIPTOR_MSVCP140D 0047b554     msvcprtd:MSVCP140D.dll
 0004:00000568       __IMPORT_DESCRIPTOR_VCRUNTIME140D 0047b568     vcruntimed:VCRUNTIME140D.dll
 0004:0000057c       __IMPORT_DESCRIPTOR_ucrtbased 0047b57c     ucrtd:ucrtbased.dll
 0004:00000590       __IMPORT_DESCRIPTOR_KERNEL32 0047b590     kernel32:KERNEL32.dll
 0004:000005a4       __NULL_IMPORT_DESCRIPTOR   0047b5a4     SDL2:SDL2.dll
 0005:00000000       ___guard_check_icall_fptr  0047e000     MSVCRTD:guard_support.obj
 0005:00000004       ___guard_xfg_check_icall_fptr 0047e004     MSVCRTD:guard_support.obj

 entry point at        0001:00002a80

 Static symbols

 0002:fffa2000       __ehfuncinfo$??$_Deallocate@$07$0A@@std@@YAXPAXI@Z 00400000     BaseEngine.obj
 0002:fffa2000       __ehfuncinfo$??$_Deallocate_plain@V?$allocator@U_Container_proxy@std@@@std@@@std@@YAXAAV?$allocator@U_Container_proxy@std@@@0@QAU_Container_proxy@0@@Z 00400000     BaseEngine.obj
 0001:fffff000       __ehhandler$??$_Deallocate@$07$0A@@std@@YAXPAXI@Z 00400000 f   BaseEngine.obj
 0001:fffff000       __ehhandler$??$_Deallocate_plain@V?$allocator@U_Container_proxy@std@@@std@@@std@@YAXAAV?$allocator@U_Container_proxy@std@@@0@QAU_Container_proxy@0@@Z 00400000 f   BaseEngine.obj
 0002:fffa2000       __catchsym$??$?6U?$char_traits@D@std@@@std@@YAAAV?$basic_ostream@DU?$char_traits@D@std@@@0@AAV10@PBD@Z$3 00400000     BouncingBall.obj
 0002:fffa2000       __ehfuncinfo$??1_Sentry_base@?$basic_ostream@DU?$char_traits@D@std@@@std@@QAE@XZ 00400000     BouncingBall.obj
 0002:fffa2000       __ehfuncinfo$??1sentry@?$basic_ostream@DU?$char_traits@D@std@@@std@@QAE@XZ 00400000     BouncingBall.obj
 0001:fffff000       __ehhandler$??1_Sentry_base@?$basic_ostream@DU?$char_traits@D@std@@@std@@QAE@XZ 00400000 f   BouncingBall.obj
 0001:fffff000       __ehhandler$??1sentry@?$basic_ostream@DU?$char_traits@D@std@@@std@@QAE@XZ 00400000 f   BouncingBall.obj
 0001:fffff000       __unwindfunclet$??$?6U?$char_traits@D@std@@@std@@YAAAV?$basic_ostream@DU?$char_traits@D@std@@@0@AAV10@PBD@Z$2 00400000 f   BouncingBall.obj
 0001:fffff000       __unwindfunclet$??0sentry@?$basic_ostream@DU?$char_traits@D@std@@@std@@QAE@AAV12@@Z$0 00400000 f   BouncingBall.obj
 0002:fffa2000       __unwindtable$??0sentry@?$basic_ostream@DU?$char_traits@D@std@@@std@@QAE@AAV12@@Z 00400000     BouncingBall.obj
 0002:fffa2000       __catchsym$??$?6U?$char_traits@D@std@@@std@@YAAAV?$basic_ostream@DU?$char_traits@D@std@@@0@AAV10@PBD@Z$3 00400000     BouncingBallMain.obj
 0002:fffa2000       __catchsym$??$_Insert_string@DU?$char_traits@D@std@@I@std@@YAAAV?$basic_ostream@DU?$char_traits@D@std@@@0@AAV10@QBDI@Z$3 00400000     BouncingBallMain.obj
 0002:fffa2000       __catchsym$??$_Resize_reallocate@U_Value_init_tag@std@@@?$vector@PAVDisplayableObject@@V?$allocator@PAVDisplayableObject@@@std@@@std@@AAEXIABU_Value_init_tag@1@@Z$2 00400000     BouncingBallMain.obj
 0002:fffa2000       __ehfuncinfo$??$_Deallocate@$07$0A@@std@@YAXPAXI@Z 00400000     BouncingBallMain.obj
 0002:fffa2000       __ehfuncinfo$??$_Deallocate_plain@V?$allocator@U_Container_proxy@std@@@std@@@std@@YAXAAV?$allocator@U_Container_proxy@std@@@0@QAU_Container_proxy@0@@Z 00400000     BouncingBallMain.obj
 0002:fffa2000       __ehfuncinfo$??$_Freenode0@V?$allocator@U?$_Tree_node@U?$pair@$$CBV?$basic_string@DU?$char_traits@D@std@@V?$allocator@D@2@@std@@V?$shared_ptr@VRawImageData@@@2@@std@@PAX@std@@@std@@@?$_Tree_node@U?$pair@$$CBV?$basic_string@DU?$char_traits@D@std@@V?$allocator@D@2@@std@@V?$shared_ptr@VRawImageData@@@2@@std@@PAX@std@@SAXAAV?$allocator@U?$_Tree_node@U?$pair@$$CBV?$basic_string@DU?$char_traits@D@std@@V?$allocator@D@2@@std@@V?$shared_ptr@VRawImageData@@@2@@std@@PAX@std@@@1@PAU01@@Z 00400000     BouncingBallMain.obj
 0002:fffa2000       __ehfuncinfo$??$_Freenode0@V?$allocator@U?$_Tree_node@U?$pair@$$CBV?$basic_string@DU?$char_traits@D@std@@V?$allocator@D@2@@std@@V?$weak_ptr@VRawImageData@@@2@@std@@PAX@std@@@std@@@?$_Tree_node@U?$pair@$$CBV?$basic_string@DU?$char_traits@D@std@@V?$allocator@D@2@@std@@V?$weak_ptr@VRawImageData@@@2@@std@@PAX@std@@SAXAAV?$allocator@U?$_Tree_node@U?$pair@$$CBV?$basic_string@DU?$char_traits@D@std@@V?$allocator@D@2@@std@@V?$weak_ptr@VRawImageData@@@2@@std@@PAX@std@@@1@PAU01@@Z 00400000     BouncingBallMain.obj
 0002:fffa2000       __ehfuncinfo$??$_Freenode@V?$allocator@U?$_Tree_node@U?$pair@$$CBV?$basic_string@DU?$char_traits@D@std@@V?$allocator@D@2@@std@@V?$shared_ptr@VRawImageData@@@2@@std@@PAX@std@@@std@@@?$_Tree_node@U?$pair@$$CBV?$basic_string@DU?$char_traits@D@std@@V?$allocator@D@2@@std@@V?$shared_ptr@VRawImageData@@@2@@std@@PAX@std@@SAXAAV?$allocator@U?$_Tree_node@U?$pair@$$CBV?$basic_string@DU?$char_traits@D@std@@V?$allocator@D@2@@std@@V?$shared_ptr@VRawImageData@@@2@@std@@PAX@std@@@1@PAU01@@Z 00400000     BouncingBallMain.obj
 0002:fffa2000       __ehfuncinfo$??$_Freenode@V?$allocator@U?$_Tree_node@U?$pair@$$CBV?$basic_string@DU?$char_traits@D@std@@V?$allocator@D@2@@std@@V?$weak_ptr@VRawImageData@@@2@@std@@PAX@std@@@std@@@?$_Tree_node@U?$pair@$$CBV?$basic_string@DU?$char_traits@D@std@@V?$allocator@D@2@@std@@V?$weak_ptr@VRawImageData@@@2@@std@@PAX@std@@SAXAAV?$allocator@U?$_Tree_node@U?$pair@$$CBV?$basic_string@DU?$char_traits@D@std@@V?$allocator@D@2@@std@@V?$weak_ptr@VRawImageData@@@2@@std@@PAX@std@@@1@PAU01@@Z 00400000     BouncingBallMain.obj
 0002:fffa2000       __ehfuncinfo$??$erase@V?$_Tree_iterator@V?$_Tree_val@U?$_Tree_simple_types@U?$pair@$$CBV?$basic_string@DU?$char_traits@D@std@@V?$allocator@D@2@@std@@V?$weak_ptr@VRawImageData@@@2@@std@@@std@@@std@@@std@@$0A@@?$_Tree@V?$_Tmap_traits@V?$basic_string@DU?$char_traits@D@std@@V?$allocator@D@2@@std@@V?$weak_ptr@VRawImageData@@@2@U?$less@V?$basic_string@DU?$char_traits@D@std@@V?$allocator@D@2@@std@@@2@V?$allocator@U?$pair@$$CBV?$basic_string@DU?$char_traits@D@std@@V?$allocator@D@2@@std@@V?$weak_ptr@VRawImageData@@@2@@std@@@2@$0A@@std@@@std@@QAE?AV?$_Tree_iterator@V?$_Tree_val@U?$_Tree_simple_types@U?$pair@$$CBV?$basic_string@DU?$char_traits@D@std@@V?$allocator@D@2@@std@@V?$weak_ptr@VRawImageData@@@2@@std@@@std@@@std@@@1@V21@@Z 00400000     BouncingBallMain.obj
 0002:fffa2000       __ehfuncinfo$??0?$basic_string@DU?$char_traits@D@std@@V?$allocator@D@2@@std@@QAE@$$QAV01@@Z 00400000     BouncingBallMain.obj
 0002:fffa2000       __ehfuncinfo$??1?$_Alloc_construct_ptr@V?$allocator@U?$_Tree_node@U?$pair@$$CBV?$basic_string@DU?$char_traits@D@std@@V?$allocator@D@2@@std@@V?$shared_ptr@VRawImageData@@@2@@std@@PAX@std@@@std@@@std@@QAE@XZ 00400000     BouncingBallMain.obj
 0002:fffa2000       __ehfuncinfo$??1?$_Alloc_construct_ptr@V?$allocator@U?$_Tree_node@U?$pair@$$CBV?$basic_string@DU?$char_traits@D@std@@V?$allocator@D@2@@std@@V?$weak_ptr@VRawImageData@@@2@@std@@PAX@std@@@std@@@std@@QAE@XZ 00400000     BouncingBallMain.obj
 0002:fffa2000       __ehfuncinfo$??1?$_Tree_temp_node@V?$allocator@U?$_Tree_node@U?$pair@$$CBV?$basic_string@DU?$char_traits@D@std@@V?$allocator@D@2@@std@@V?$shared_ptr@VRawImageData@@@2@@std@@PAX@std@@@std@@@std@@QAE@XZ 00400000     BouncingBallMain.obj
 0002:fffa2000       __ehfuncinfo$??1?$_Tree_temp_node@V?$allocator@U?$_Tree_node@U?$pair@$$CBV?$basic_string@DU?$char_traits@D@std@@V?$allocator@D@2@@std@@V?$weak_ptr@VRawImageData@@@2@@std@@PAX@std@@@std@@@std@@QAE@XZ 00400000     BouncingBallMain.obj
 0002:fffa2000       __ehfuncinfo$??1RawImageData@@QAE@XZ 00400000     BouncingBallMain.obj
 0002:fffa2000       __ehfuncinfo$??1_Sentry_base@?$basic_ostream@DU?$char_traits@D@std@@@std@@QAE@XZ 00400000     BouncingBallMain.obj
 0002:fffa2000       __ehfuncinfo$??1sentry@?$basic_ostream@DU?$char_traits@D@std@@@std@@QAE@XZ 00400000     BouncingBallMain.obj
 0002:fffa2000       __ehfuncinfo$?_Erase_unchecked@?$_Tree@V?$_Tmap_traits@V?$basic_string@DU?$char_traits@D@std@@V?$allocator@D@2@@std@@V?$weak_ptr@VRawImageData@@@2@U?$less@V?$basic_string@DU?$char_traits@D@std@@V?$allocator@D@2@@std@@@2@V?$allocator@U?$pair@$$CBV?$basic_string@DU?$char_traits@D@std@@V?$allocator@D@2@@std@@V?$weak_ptr@VRawImageData@@@2@@std@@@2@$0A@@std@@@std@@AAEPAU?$_Tree_node@U?$pair@$$CBV?$basic_string@DU?$char_traits@D@std@@V?$allocator@D@2@@std@@V?$weak_ptr@VRawImageData@@@2@@std@@PAX@2@V?$_Tree_unchecked_const_iterator@V?$_Tree_val@U?$_Tree_simple_types@U?$pair@$$CBV?$basic_string@DU?$char_traits@D@std@@V?$allocator@D@2@@std@@V?$weak_ptr@VRawImageData@@@2@@std@@@std@@@std@@U_Iterator_base0@2@@2@@Z 00400000     BouncingBallMain.obj
 0002:fffa2000       __ehfuncinfo$?_Extract@?$_Tree_val@U?$_Tree_simple_types@U?$pair@$$CBV?$basic_string@DU?$char_traits@D@std@@V?$allocator@D@2@@std@@V?$weak_ptr@VRawImageData@@@2@@std@@@std@@@std@@QAEPAU?$_Tree_node@U?$pair@$$CBV?$basic_string@DU?$char_traits@D@std@@V?$allocator@D@2@@std@@V?$weak_ptr@VRawImageData@@@2@@std@@PAX@2@V?$_Tree_unchecked_const_iterator@V?$_Tree_val@U?$_Tree_simple_types@U?$pair@$$CBV?$basic_string@DU?$char_traits@D@std@@V?$allocator@D@2@@std@@V?$weak_ptr@VRawImageData@@@2@@std@@@std@@@std@@U_Iterator_base0@2@@2@@Z 00400000     BouncingBallMain.obj
 0002:fffa2000       __ehfuncinfo$?_Take_contents@?$basic_string@DU?$char_traits@D@std@@V?$allocator@D@2@@std@@AAEXAAV12@U?$integral_constant@_N$00@2@@Z 00400000     BouncingBallMain.obj
 0002:fffa2000       __ehfuncinfo$?_Tidy_deallocate@?$basic_string@DU?$char_traits@D@std@@V?$allocator@D@2@@std@@AAEXXZ 00400000     BouncingBallMain.obj
 0002:fffa2000       __ehfuncinfo$?c_str@?$basic_string@DU?$char_traits@D@std@@V?$allocator@D@2@@std@@QBEPBDXZ 00400000     BouncingBallMain.obj
 0002:fffa2000       __ehfuncinfo$?compare@?$basic_string@DU?$char_traits@D@std@@V?$allocator@D@2@@std@@QBEHABV12@@Z 00400000     BouncingBallMain.obj
 0002:fffa2000       __ehfuncinfo$?data@?$basic_string@DU?$char_traits@D@std@@V?$allocator@D@2@@std@@QBEPBDXZ 00400000     BouncingBallMain.obj
 0002:fffa2000       __ehfuncinfo$?getImagePtrbyURL@ImageManager@@QAE?AV?$shared_ptr@VRawImageData@@@std@@V?$basic_string@DU?$char_traits@D@std@@V?$allocator@D@2@@3@_N1@Z 00400000     BouncingBallMain.obj
 0001:fffff000       __ehhandler$??$_Deallocate@$07$0A@@std@@YAXPAXI@Z 00400000 f   BouncingBallMain.obj
 0001:fffff000       __ehhandler$??$_Deallocate_plain@V?$allocator@U_Container_proxy@std@@@std@@@std@@YAXAAV?$allocator@U_Container_proxy@std@@@0@QAU_Container_proxy@0@@Z 00400000 f   BouncingBallMain.obj
 0001:fffff000       __ehhandler$??$_Freenode0@V?$allocator@U?$_Tree_node@U?$pair@$$CBV?$basic_string@DU?$char_traits@D@std@@V?$allocator@D@2@@std@@V?$shared_ptr@VRawImageData@@@2@@std@@PAX@std@@@std@@@?$_Tree_node@U?$pair@$$CBV?$basic_string@DU?$char_traits@D@std@@V?$allocator@D@2@@std@@V?$shared_ptr@VRawImageData@@@2@@std@@PAX@std@@SAXAAV?$allocator@U?$_Tree_node@U?$pair@$$CBV?$basic_string@DU?$char_traits@D@std@@V?$allocator@D@2@@std@@V?$shared_ptr@VRawImageData@@@2@@std@@PAX@std@@@1@PAU01@@Z 00400000 f   BouncingBallMain.obj
 0001:fffff000       __ehhandler$??$_Freenode0@V?$allocator@U?$_Tree_node@U?$pair@$$CBV?$basic_string@DU?$char_traits@D@std@@V?$allocator@D@2@@std@@V?$weak_ptr@VRawImageData@@@2@@std@@PAX@std@@@std@@@?$_Tree_node@U?$pair@$$CBV?$basic_string@DU?$char_traits@D@std@@V?$allocator@D@2@@std@@V?$weak_ptr@VRawImageData@@@2@@std@@PAX@std@@SAXAAV?$allocator@U?$_Tree_node@U?$pair@$$CBV?$basic_string@DU?$char_traits@D@std@@V?$allocator@D@2@@std@@V?$weak_ptr@VRawImageData@@@2@@std@@PAX@std@@@1@PAU01@@Z 00400000 f   BouncingBallMain.obj
 0001:fffff000       __ehhandler$??$_Freenode@V?$allocator@U?$_Tree_node@U?$pair@$$CBV?$basic_string@DU?$char_traits@D@std@@V?$allocator@D@2@@std@@V?$shared_ptr@VRawImageData@@@2@@std@@PAX@std@@@std@@@?$_Tree_node@U?$pair@$$CBV?$basic_string@DU?$char_traits@D@std@@V?$allocator@D@2@@std@@V?$shared_ptr@VRawImageData@@@2@@std@@PAX@std@@SAXAAV?$allocator@U?$_Tree_node@U?$pair@$$CBV?$basic_string@DU?$char_traits@D@std@@V?$allocator@D@2@@std@@V?$shared_ptr@VRawImageData@@@2@@std@@PAX@std@@@1@PAU01@@Z 00400000 f   BouncingBallMain.obj
 0001:fffff000       __ehhandler$??$_Freenode@V?$allocator@U?$_Tree_node@U?$pair@$$CBV?$basic_string@DU?$char_traits@D@std@@V?$allocator@D@2@@std@@V?$weak_ptr@VRawImageData@@@2@@std@@PAX@std@@@std@@@?$_Tree_node@U?$pair@$$CBV?$basic_string@DU?$char_traits@D@std@@V?$allocator@D@2@@std@@V?$weak_ptr@VRawImageData@@@2@@std@@PAX@std@@SAXAAV?$allocator@U?$_Tree_node@U?$pair@$$CBV?$basic_string@DU?$char_traits@D@std@@V?$allocator@D@2@@std@@V?$weak_ptr@VRawImageData@@@2@@std@@PAX@std@@@1@PAU01@@Z 00400000 f   BouncingBallMain.obj
 0001:fffff000       __ehhandler$??$_Resize_reallocate@U_Value_init_tag@std@@@?$vector@PAVDisplayableObject@@V?$allocator@PAVDisplayableObject@@@std@@@std@@AAEXIABU_Value_init_tag@1@@Z 00400000 f   BouncingBallMain.obj
 0001:fffff000       __ehhandler$??$erase@V?$_Tree_iterator@V?$_Tree_val@U?$_Tree_simple_types@U?$pair@$$CBV?$basic_string@DU?$char_traits@D@std@@V?$allocator@D@2@@std@@V?$weak_ptr@VRawImageData@@@2@@std@@@std@@@std@@@std@@$0A@@?$_Tree@V?$_Tmap_traits@V?$basic_string@DU?$char_traits@D@std@@V?$allocator@D@2@@std@@V?$weak_ptr@VRawImageData@@@2@U?$less@V?$basic_string@DU?$char_traits@D@std@@V?$allocator@D@2@@std@@@2@V?$allocator@U?$pair@$$CBV?$basic_string@DU?$char_traits@D@std@@V?$allocator@D@2@@std@@V?$weak_ptr@VRawImageData@@@2@@std@@@2@$0A@@std@@@std@@QAE?AV?$_Tree_iterator@V?$_Tree_val@U?$_Tree_simple_types@U?$pair@$$CBV?$basic_string@DU?$char_traits@D@std@@V?$allocator@D@2@@std@@V?$weak_ptr@VRawImageData@@@2@@std@@@std@@@std@@@1@V21@@Z 00400000 f   BouncingBallMain.obj
 0001:fffff000       __ehhandler$??0?$basic_string@DU?$char_traits@D@std@@V?$allocator@D@2@@std@@QAE@$$QAV01@@Z 00400000 f   BouncingBallMain.obj
 0001:fffff000       __ehhandler$??1?$_Alloc_construct_ptr@V?$allocator@U?$_Tree_node@U?$pair@$$CBV?$basic_string@DU?$char_traits@D@std@@V?$allocator@D@2@@std@@V?$shared_ptr@VRawImageData@@@2@@std@@PAX@std@@@std@@@std@@QAE@XZ 00400000 f   BouncingBallMain.obj
 0001:fffff000       __ehhandler$??1?$_Alloc_construct_ptr@V?$allocator@U?$_Tree_node@U?$pair@$$CBV?$basic_string@DU?$char_traits@D@std@@V?$allocator@D@2@@std@@V?$weak_ptr@VRawImageData@@@2@@std@@PAX@std@@@std@@@std@@QAE@XZ 00400000 f   BouncingBallMain.obj
 0001:fffff000       __ehhandler$??1?$_Tree_temp_node@V?$allocator@U?$_Tree_node@U?$pair@$$CBV?$basic_string@DU?$char_traits@D@std@@V?$allocator@D@2@@std@@V?$shared_ptr@VRawImageData@@@2@@std@@PAX@std@@@std@@@std@@QAE@XZ 00400000 f   BouncingBallMain.obj
 0001:fffff000       __ehhandler$??1?$_Tree_temp_node@V?$allocator@U?$_Tree_node@U?$pair@$$CBV?$basic_string@DU?$char_traits@D@std@@V?$allocator@D@2@@std@@V?$weak_ptr@VRawImageData@@@2@@std@@PAX@std@@@std@@@std@@QAE@XZ 00400000 f   BouncingBallMain.obj
 0001:fffff000       __ehhandler$??1RawImageData@@QAE@XZ 00400000 f   BouncingBallMain.obj
 0001:fffff000       __ehhandler$??1_Sentry_base@?$basic_ostream@DU?$char_traits@D@std@@@std@@QAE@XZ 00400000 f   BouncingBallMain.obj
 0001:fffff000       __ehhandler$??1sentry@?$basic_ostream@DU?$char_traits@D@std@@@std@@QAE@XZ 00400000 f   BouncingBallMain.obj
 0001:fffff000       __ehhandler$?_Erase_unchecked@?$_Tree@V?$_Tmap_traits@V?$basic_string@DU?$char_traits@D@std@@V?$allocator@D@2@@std@@V?$weak_ptr@VRawImageData@@@2@U?$less@V?$basic_string@DU?$char_traits@D@std@@V?$allocator@D@2@@std@@@2@V?$allocator@U?$pair@$$CBV?$basic_string@DU?$char_traits@D@std@@V?$allocator@D@2@@std@@V?$weak_ptr@VRawImageData@@@2@@std@@@2@$0A@@std@@@std@@AAEPAU?$_Tree_node@U?$pair@$$CBV?$basic_string@DU?$char_traits@D@std@@V?$allocator@D@2@@std@@V?$weak_ptr@VRawImageData@@@2@@std@@PAX@2@V?$_Tree_unchecked_const_iterator@V?$_Tree_val@U?$_Tree_simple_types@U?$pair@$$CBV?$basic_string@DU?$char_traits@D@std@@V?$allocator@D@2@@std@@V?$weak_ptr@VRawImageData@@@2@@std@@@std@@@std@@U_Iterator_base0@2@@2@@Z 00400000 f   BouncingBallMain.obj
 0001:fffff000       __ehhandler$?_Extract@?$_Tree_val@U?$_Tree_simple_types@U?$pair@$$CBV?$basic_string@DU?$char_traits@D@std@@V?$allocator@D@2@@std@@V?$weak_ptr@VRawImageData@@@2@@std@@@std@@@std@@QAEPAU?$_Tree_node@U?$pair@$$CBV?$basic_string@DU?$char_traits@D@std@@V?$allocator@D@2@@std@@V?$weak_ptr@VRawImageData@@@2@@std@@PAX@2@V?$_Tree_unchecked_const_iterator@V?$_Tree_val@U?$_Tree_simple_types@U?$pair@$$CBV?$basic_string@DU?$char_traits@D@std@@V?$allocator@D@2@@std@@V?$weak_ptr@VRawImageData@@@2@@std@@@std@@@std@@U_Iterator_base0@2@@2@@Z 00400000 f   BouncingBallMain.obj
 0001:fffff000       __ehhandler$?_Take_contents@?$basic_string@DU?$char_traits@D@std@@V?$allocator@D@2@@std@@AAEXAAV12@U?$integral_constant@_N$00@2@@Z 00400000 f   BouncingBallMain.obj
 0001:fffff000       __ehhandler$?_Tidy_deallocate@?$basic_string@DU?$char_traits@D@std@@V?$allocator@D@2@@std@@AAEXXZ 00400000 f   BouncingBallMain.obj
 0001:fffff000       __ehhandler$?c_str@?$basic_string@DU?$char_traits@D@std@@V?$allocator@D@2@@std@@QBEPBDXZ 00400000 f   BouncingBallMain.obj
 0001:fffff000       __ehhandler$?compare@?$basic_string@DU?$char_traits@D@std@@V?$allocator@D@2@@std@@QBEHABV12@@Z 00400000 f   BouncingBallMain.obj
 0001:fffff000       __ehhandler$?data@?$basic_string@DU?$char_traits@D@std@@V?$allocator@D@2@@std@@QBEPBDXZ 00400000 f   BouncingBallMain.obj
 0001:fffff000       __unwindfunclet$??$?0PAD$0A@@?$basic_string@DU?$char_traits@D@std@@V?$allocator@D@2@@std@@QAE@PAD0ABV?$allocator@D@1@@Z$0 00400000 f   BouncingBallMain.obj
 0001:fffff000       __unwindfunclet$??$?0U?$pair@V?$basic_string@DU?$char_traits@D@std@@V?$allocator@D@2@@std@@V?$shared_ptr@VRawImageData@@@2@@std@@@?$_Tree_temp_node@V?$allocator@U?$_Tree_node@U?$pair@$$CBV?$basic_string@DU?$char_traits@D@std@@V?$allocator@D@2@@std@@V?$shared_ptr@VRawImageData@@@2@@std@@PAX@std@@@std@@@std@@QAE@AAV?$allocator@U?$_Tree_node@U?$pair@$$CBV?$basic_string@DU?$char_traits@D@std@@V?$allocator@D@2@@std@@V?$shared_ptr@VRawImageData@@@2@@std@@PAX@std@@@1@PAU?$_Tree_node@U?$pair@$$CBV?$basic_string@DU?$char_traits@D@std@@V?$allocator@D@2@@std@@V?$shared_ptr@VRawImageData@@@2@@std@@PAX@1@$$QAU?$pair@V?$basic_string@DU?$char_traits@D@std@@V?$allocator@D@2@@std@@V?$shared_ptr@VRawImageData@@@2@@1@@Z$0 00400000 f   BouncingBallMain.obj
 0001:fffff000       __unwindfunclet$??$?0U?$pair@V?$basic_string@DU?$char_traits@D@std@@V?$allocator@D@2@@std@@V?$weak_ptr@VRawImageData@@@2@@std@@@?$_Tree_temp_node@V?$allocator@U?$_Tree_node@U?$pair@$$CBV?$basic_string@DU?$char_traits@D@std@@V?$allocator@D@2@@std@@V?$weak_ptr@VRawImageData@@@2@@std@@PAX@std@@@std@@@std@@QAE@AAV?$allocator@U?$_Tree_node@U?$pair@$$CBV?$basic_string@DU?$char_traits@D@std@@V?$allocator@D@2@@std@@V?$weak_ptr@VRawImageData@@@2@@std@@PAX@std@@@1@PAU?$_Tree_node@U?$pair@$$CBV?$basic_string@DU?$char_traits@D@std@@V?$allocator@D@2@@std@@V?$weak_ptr@VRawImageData@@@2@@std@@PAX@1@$$QAU?$pair@V?$basic_string@DU?$char_traits@D@std@@V?$allocator@D@2@@std@@V?$weak_ptr@VRawImageData@@@2@@1@@Z$0 00400000 f   BouncingBallMain.obj
 0001:fffff000       __unwindfunclet$??$?0VRawImageData@@$0A@@?$shared_ptr@VRawImageData@@@std@@QAE@PAVRawImageData@@@Z$0 00400000 f   BouncingBallMain.obj
 0001:fffff000       __unwindfunclet$??$?6U?$char_traits@D@std@@@std@@YAAAV?$basic_ostream@DU?$char_traits@D@std@@@0@AAV10@PBD@Z$2 00400000 f   BouncingBallMain.obj
 0001:fffff000       __unwindfunclet$??$_Insert_string@DU?$char_traits@D@std@@I@std@@YAAAV?$basic_ostream@DU?$char_traits@D@std@@@0@AAV10@QBDI@Z$2 00400000 f   BouncingBallMain.obj
